   1               		.file	"switcherator.c"
   2               	__SREG__ = 0x3f
   3               	__SP_H__ = 0x3e
   4               	__SP_L__ = 0x3d
   5               	__CCP__  = 0x34
   6               	__tmp_reg__ = 0
   7               	__zero_reg__ = 1
  15               	.Ltext0:
  16               	.global	getPort
  18               	getPort:
  19               	.LFB16:
  20               	.LM1:
  21               	.LVL0:
  22 0000 CF93      		push r28
  23 0002 DF93      		push r29
  24               	/* prologue: function */
  25               	/* frame size = 0 */
  26 0004 DB01      		movw r26,r22
  27 0006 EA01      		movw r28,r20
  28               	.LM2:
  29 0008 FC01      		movw r30,r24
  30 000a E050      		subi r30,lo8(-(switchStuff))
  31 000c F040      		sbci r31,hi8(-(switchStuff))
  32 000e E081      		ld r30,Z
  33               	.LVL1:
  34               	.LM3:
  35 0010 9E2F      		mov r25,r30
  36 0012 9051      		subi r25,lo8(-(-16))
  37               	.LVL2:
  38 0014 9031      		cpi r25,lo8(16)
  39 0016 00F4      		brsh .L2
  40               	.LVL3:
  41               	.LM4:
  42 0018 82E4      		ldi r24,lo8(66)
  43               	.LVL4:
  44 001a 8C93      		st X,r24
  45 001c 00C0      		rjmp .L3
  46               	.LVL5:
  47               	.L2:
  48               	.LM5:
  49 001e E031      		cpi r30,lo8(16)
  50 0020 00F4      		brsh .L4
  51               	.LVL6:
  52               	.LM6:
  53 0022 81E4      		ldi r24,lo8(65)
  54               	.LVL7:
  55 0024 8C93      		st X,r24
  56 0026 9E2F      		mov r25,r30
  57 0028 00C0      		rjmp .L3
  58               	.LVL8:
  59               	.L4:
  60               	.LM7:
  61 002a E033      		cpi r30,lo8(48)
  62 002c 00F4      		brsh .L5
  63               	.LM8:
  64 002e 83E4      		ldi r24,lo8(67)
  65               	.LVL9:
  66 0030 8C93      		st X,r24
  67               	.LM9:
  68 0032 9E2F      		mov r25,r30
  69 0034 9052      		subi r25,lo8(-(-32))
  70               	.LVL10:
  71 0036 00C0      		rjmp .L3
  72               	.LVL11:
  73               	.L5:
  74               	.LM10:
  75 0038 E034      		cpi r30,lo8(64)
  76 003a 00F4      		brsh .L6
  77               	.LM11:
  78 003c 84E4      		ldi r24,lo8(68)
  79               	.LVL12:
  80 003e 8C93      		st X,r24
  81               	.LM12:
  82 0040 9E2F      		mov r25,r30
  83 0042 9053      		subi r25,lo8(-(-48))
  84               	.LVL13:
  85 0044 00C0      		rjmp .L3
  86               	.LVL14:
  87               	.L6:
  88               	.LM13:
  89 0046 E035      		cpi r30,lo8(80)
  90 0048 00F4      		brsh .L7
  91               	.LM14:
  92 004a 85E4      		ldi r24,lo8(69)
  93               	.LVL15:
  94 004c 8C93      		st X,r24
  95               	.LM15:
  96 004e 9E2F      		mov r25,r30
  97 0050 9054      		subi r25,lo8(-(-64))
  98               	.LVL16:
  99 0052 00C0      		rjmp .L3
 100               	.LVL17:
 101               	.L7:
 102               	.LM16:
 103 0054 E036      		cpi r30,lo8(96)
 104 0056 00F4      		brsh .L8
 105               	.LM17:
 106 0058 86E4      		ldi r24,lo8(70)
 107               	.LVL18:
 108 005a 8C93      		st X,r24
 109               	.LM18:
 110 005c 9E2F      		mov r25,r30
 111 005e 9055      		subi r25,lo8(-(-80))
 112               	.LVL19:
 113 0060 00C0      		rjmp .L3
 114               	.LVL20:
 115               	.L8:
 116               	.LM19:
 117 0062 E037      		cpi r30,lo8(112)
 118 0064 00F4      		brsh .L9
 119               	.LM20:
 120 0066 87E4      		ldi r24,lo8(71)
 121               	.LVL21:
 122 0068 8C93      		st X,r24
 123               	.LM21:
 124 006a 9E2F      		mov r25,r30
 125 006c 9056      		subi r25,lo8(-(-96))
 126               	.LVL22:
 127 006e 00C0      		rjmp .L3
 128               	.LVL23:
 129               	.L9:
 130               	.LM22:
 131 0070 E7FD      		sbrc r30,7
 132 0072 00C0      		rjmp .L10
 133               	.LM23:
 134 0074 88E4      		ldi r24,lo8(72)
 135               	.LVL24:
 136 0076 8C93      		st X,r24
 137               	.LM24:
 138 0078 9E2F      		mov r25,r30
 139 007a 9057      		subi r25,lo8(-(-112))
 140               	.LVL25:
 141 007c 00C0      		rjmp .L3
 142               	.LVL26:
 143               	.L10:
 144               	.LM25:
 145 007e E039      		cpi r30,lo8(-112)
 146 0080 00F4      		brsh .L11
 147               	.LM26:
 148 0082 89E4      		ldi r24,lo8(73)
 149               	.LVL27:
 150 0084 8C93      		st X,r24
 151               	.LM27:
 152 0086 9E2F      		mov r25,r30
 153 0088 9058      		subi r25,lo8(-(-128))
 154               	.LVL28:
 155 008a 00C0      		rjmp .L3
 156               	.LVL29:
 157               	.L11:
 158               	.LM28:
 159 008c 8FE3      		ldi r24,lo8(63)
 160               	.LVL30:
 161 008e 8C93      		st X,r24
 162               	.LM29:
 163 0090 1882      		st Y,__zero_reg__
 164               	.LM30:
 165 0092 F901      		movw r30,r18
 166               	.LVL31:
 167 0094 1082      		st Z,__zero_reg__
 168 0096 00C0      		rjmp .L13
 169               	.LVL32:
 170               	.L3:
 171               	.LM31:
 172 0098 892F      		mov r24,r25
 173 009a 8695      		lsr r24
 174 009c 8883      		st Y,r24
 175               	.LM32:
 176 009e 9170      		andi r25,lo8(1)
 177 00a0 F901      		movw r30,r18
 178 00a2 9083      		st Z,r25
 179               	.L13:
 180               	/* epilogue start */
 181               	.LM33:
 182 00a4 DF91      		pop r29
 183 00a6 CF91      		pop r28
 184               	.LVL33:
 185 00a8 0895      		ret
 186               	.LFE16:
 188               	.global	pwmClear
 190               	pwmClear:
 191               	.LFB19:
 192               	.LM34:
 193               	.LVL34:
 194               	/* prologue: function */
 195               	/* frame size = 0 */
 196               	.LM35:
 197 00aa FC01      		movw r30,r24
 198 00ac E050      		subi r30,lo8(-(switchStuff))
 199 00ae F040      		sbci r31,hi8(-(switchStuff))
 200 00b0 8081      		ld r24,Z
 201               	.LVL35:
 202 00b2 843D      		cpi r24,lo8(-44)
 203 00b4 01F4      		brne .L15
 204               	.LM36:
 205 00b6 8091 0000 		lds r24,oldBright
 206 00ba 8093 0000 		sts bright,r24
 207 00be 1092 0000 		sts bright+1,__zero_reg__
 208 00c2 0895      		ret
 209               	.L15:
 210               	.LM37:
 211 00c4 14BC      		out 68-32,__zero_reg__
 212               	.LM38:
 213 00c6 15BC      		out 69-32,__zero_reg__
 214               	.LM39:
 215 00c8 1092 B000 		sts 176,__zero_reg__
 216               	.LM40:
 217 00cc 1092 B100 		sts 177,__zero_reg__
 218               	.LM41:
 219 00d0 1092 B400 		sts 180,__zero_reg__
 220               	.LM42:
 221 00d4 18BC      		out 72-32,__zero_reg__
 222               	.LM43:
 223 00d6 17BC      		out 71-32,__zero_reg__
 224               	.LM44:
 225 00d8 8AB1      		in r24,42-32
 226 00da 8AB9      		out 42-32,r24
 227               	.LM45:
 228 00dc 1092 0000 		sts runHue,__zero_reg__
 229               	.LM46:
 230 00e0 1092 0000 		sts runColorChanges,__zero_reg__
 231               	.LM47:
 232 00e4 1092 0000 		sts pwmIsSet,__zero_reg__
 233 00e8 0895      		ret
 234               	.LFE19:
 236               	.global	clearTheSwitch
 238               	clearTheSwitch:
 239               	.LFB13:
 240               	.LM48:
 241               	.LVL36:
 242 00ea EF92      		push r14
 243 00ec FF92      		push r15
 244 00ee 0F93      		push r16
 245 00f0 1F93      		push r17
 246 00f2 DF93      		push r29
 247 00f4 CF93      		push r28
 248 00f6 00D0      		rcall .
 249 00f8 0F92      		push __tmp_reg__
 250 00fa CDB7      		in r28,__SP_L__
 251 00fc DEB7      		in r29,__SP_H__
 252               	/* prologue: function */
 253               	/* frame size = 3 */
 254 00fe 7C01      		movw r14,r24
 255               	.LM49:
 256 0100 1982      		std Y+1,__zero_reg__
 257               	.LM50:
 258 0102 1A82      		std Y+2,__zero_reg__
 259               	.LM51:
 260 0104 1B82      		std Y+3,__zero_reg__
 261               	.LM52:
 262 0106 8C01      		movw r16,r24
 263 0108 0050      		subi r16,lo8(-(switchStuff))
 264 010a 1040      		sbci r17,hi8(-(switchStuff))
 265 010c F801      		movw r30,r16
 266 010e 8081      		ld r24,Z
 267               	.LVL37:
 268 0110 885C      		subi r24,lo8(-(56))
 269 0112 8531      		cpi r24,lo8(21)
 270 0114 00F4      		brsh .L19
 271               	.LM53:
 272 0116 C701      		movw r24,r14
 273 0118 0E94 0000 		call pwmClear
 274               	.LM54:
 275 011c 8FEF      		ldi r24,lo8(-1)
 276 011e F801      		movw r30,r16
 277 0120 00C0      		rjmp .L26
 278               	.L19:
 279               	.LM55:
 280 0122 C701      		movw r24,r14
 281 0124 BE01      		movw r22,r28
 282 0126 6F5F      		subi r22,lo8(-(1))
 283 0128 7F4F      		sbci r23,hi8(-(1))
 284 012a AE01      		movw r20,r28
 285 012c 4E5F      		subi r20,lo8(-(2))
 286 012e 5F4F      		sbci r21,hi8(-(2))
 287 0130 9E01      		movw r18,r28
 288 0132 2D5F      		subi r18,lo8(-(3))
 289 0134 3F4F      		sbci r19,hi8(-(3))
 290 0136 0E94 0000 		call getPort
 291               	.LM56:
 292 013a 8981      		ldd r24,Y+1
 293 013c 8234      		cpi r24,lo8(66)
 294 013e 01F4      		brne .L21
 295 0140 A5E2      		ldi r26,lo8(37)
 296 0142 B0E0      		ldi r27,hi8(37)
 297               	.LVL38:
 298 0144 E4E2      		ldi r30,lo8(36)
 299 0146 F0E0      		ldi r31,hi8(36)
 300               	.LVL39:
 301 0148 00C0      		rjmp .L22
 302               	.LVL40:
 303               	.L21:
 304               	.LM57:
 305 014a 8334      		cpi r24,lo8(67)
 306 014c 01F4      		brne .L23
 307 014e A8E2      		ldi r26,lo8(40)
 308 0150 B0E0      		ldi r27,hi8(40)
 309               	.LVL41:
 310 0152 E7E2      		ldi r30,lo8(39)
 311 0154 F0E0      		ldi r31,hi8(39)
 312               	.LVL42:
 313 0156 00C0      		rjmp .L22
 314               	.LVL43:
 315               	.L23:
 316               	.LM58:
 317 0158 8434      		cpi r24,lo8(68)
 318 015a 01F4      		brne .L24
 319 015c ABE2      		ldi r26,lo8(43)
 320 015e B0E0      		ldi r27,hi8(43)
 321               	.LVL44:
 322 0160 EAE2      		ldi r30,lo8(42)
 323 0162 F0E0      		ldi r31,hi8(42)
 324               	.LVL45:
 325 0164 00C0      		rjmp .L22
 326               	.LVL46:
 327               	.L24:
 328 0166 A0E0      		ldi r26,lo8(0)
 329 0168 B0E0      		ldi r27,hi8(0)
 330               	.LVL47:
 331 016a E0E0      		ldi r30,lo8(0)
 332 016c F0E0      		ldi r31,hi8(0)
 333               	.LVL48:
 334               	.L22:
 335               	.LM59:
 336 016e 2081      		ld r18,Z
 337 0170 81E0      		ldi r24,lo8(1)
 338 0172 90E0      		ldi r25,hi8(1)
 339 0174 0A80      		ldd r0,Y+2
 340 0176 00C0      		rjmp 2f
 341 0178 880F      	1:	lsl r24
 342 017a 991F      		rol r25
 343 017c 0A94      	2:	dec r0
 344 017e 02F4      		brpl 1b
 345 0180 8095      		com r24
 346 0182 2823      		and r18,r24
 347 0184 2083      		st Z,r18
 348               	.LM60:
 349 0186 2C91      		ld r18,X
 350 0188 2823      		and r18,r24
 351 018a 2C93      		st X,r18
 352               	.LM61:
 353 018c 80E0      		ldi r24,lo8(switchStuff)
 354 018e 90E0      		ldi r25,hi8(switchStuff)
 355 0190 E80E      		add r14,r24
 356 0192 F91E      		adc r15,r25
 357 0194 8FEF      		ldi r24,lo8(-1)
 358 0196 F701      		movw r30,r14
 359               	.LVL49:
 360               	.L26:
 361 0198 8083      		st Z,r24
 362               	/* epilogue start */
 363               	.LM62:
 364 019a 0F90      		pop __tmp_reg__
 365 019c 0F90      		pop __tmp_reg__
 366 019e 0F90      		pop __tmp_reg__
 367 01a0 CF91      		pop r28
 368 01a2 DF91      		pop r29
 369 01a4 1F91      		pop r17
 370 01a6 0F91      		pop r16
 371 01a8 FF90      		pop r15
 372 01aa EF90      		pop r14
 373               	.LVL50:
 374 01ac 0895      		ret
 375               	.LFE13:
 377               	.global	runColorFunction
 379               	runColorFunction:
 380               	.LFB25:
 381               	.LM63:
 382               	/* prologue: function */
 383               	/* frame size = 0 */
 384               	.LM64:
 385 01ae 8091 0000 		lds r24,colorChangeCount
 386 01b2 9091 0000 		lds r25,(colorChangeCount)+1
 387 01b6 0196      		adiw r24,1
 388 01b8 9093 0000 		sts (colorChangeCount)+1,r25
 389 01bc 8093 0000 		sts colorChangeCount,r24
 390               	.LM65:
 391 01c0 2091 0000 		lds r18,colorChangeSpeed
 392 01c4 3091 0000 		lds r19,(colorChangeSpeed)+1
 393 01c8 8217      		cp r24,r18
 394 01ca 9307      		cpc r25,r19
 395 01cc 00F4      		brsh .+2
 396 01ce 00C0      		rjmp .L31
 397               	.LM66:
 398 01d0 1092 0000 		sts (colorChangeCount)+1,__zero_reg__
 399 01d4 1092 0000 		sts colorChangeCount,__zero_reg__
 400               	.LM67:
 401 01d8 8091 0000 		lds r24,currentColor
 402 01dc 8F5F      		subi r24,lo8(-(1))
 403 01de 8093 0000 		sts currentColor,r24
 404               	.LM68:
 405 01e2 8630      		cpi r24,lo8(6)
 406 01e4 01F4      		brne .L29
 407               	.LM69:
 408 01e6 1092 0000 		sts currentColor,__zero_reg__
 409               	.L29:
 410               	.LM70:
 411 01ea 2091 0000 		lds r18,currentColor
 412 01ee 822F      		mov r24,r18
 413 01f0 90E0      		ldi r25,lo8(0)
 414 01f2 FC01      		movw r30,r24
 415 01f4 EE0F      		lsl r30
 416 01f6 FF1F      		rol r31
 417 01f8 E80F      		add r30,r24
 418 01fa F91F      		adc r31,r25
 419 01fc E050      		subi r30,lo8(-(colorChanges))
 420 01fe F040      		sbci r31,hi8(-(colorChanges))
 421 0200 8081      		ld r24,Z
 422 0202 8823      		tst r24
 423 0204 01F4      		brne .L30
 424 0206 8181      		ldd r24,Z+1
 425 0208 8130      		cpi r24,lo8(1)
 426 020a 01F4      		brne .L30
 427 020c 8281      		ldd r24,Z+2
 428 020e 8823      		tst r24
 429 0210 01F4      		brne .L30
 430               	.LM71:
 431 0212 2223      		tst r18
 432 0214 01F4      		brne .+2
 433 0216 00C0      		rjmp .L31
 434               	.LM72:
 435 0218 1092 0000 		sts currentColor,__zero_reg__
 436               	.L30:
 437               	.LM73:
 438 021c 8091 0000 		lds r24,currentColor
 439 0220 90E0      		ldi r25,lo8(0)
 440               	.LM74:
 441 0222 FC01      		movw r30,r24
 442 0224 EE0F      		lsl r30
 443 0226 FF1F      		rol r31
 444 0228 E80F      		add r30,r24
 445 022a F91F      		adc r31,r25
 446 022c E050      		subi r30,lo8(-(colorChanges))
 447 022e F040      		sbci r31,hi8(-(colorChanges))
 448 0230 2181      		ldd r18,Z+1
 449 0232 30E0      		ldi r19,lo8(0)
 450               	.LM75:
 451 0234 A281      		ldd r26,Z+2
 452 0236 B0E0      		ldi r27,lo8(0)
 453               	.LM76:
 454 0238 6091 0000 		lds r22,bright
 455 023c 7091 0000 		lds r23,(bright)+1
 456 0240 8081      		ld r24,Z
 457 0242 90E0      		ldi r25,lo8(0)
 458 0244 869F      		mul r24,r22
 459 0246 A001      		movw r20,r0
 460 0248 879F      		mul r24,r23
 461 024a 500D      		add r21,r0
 462 024c 969F      		mul r25,r22
 463 024e 500D      		add r21,r0
 464 0250 1124      		clr r1
 465 0252 E4E0      		ldi r30,4
 466 0254 5695      	1:	lsr r21
 467 0256 4795      		ror r20
 468 0258 EA95      		dec r30
 469 025a 01F4      		brne 1b
 470 025c 5093 0000 		sts (red)+1,r21
 471 0260 4093 0000 		sts red,r20
 472               	.LM77:
 473 0264 C901      		movw r24,r18
 474 0266 869F      		mul r24,r22
 475 0268 9001      		movw r18,r0
 476 026a 879F      		mul r24,r23
 477 026c 300D      		add r19,r0
 478 026e 969F      		mul r25,r22
 479 0270 300D      		add r19,r0
 480 0272 1124      		clr r1
 481 0274 54E0      		ldi r21,4
 482 0276 3695      	1:	lsr r19
 483 0278 2795      		ror r18
 484 027a 5A95      		dec r21
 485 027c 01F4      		brne 1b
 486 027e 3093 0000 		sts (green)+1,r19
 487 0282 2093 0000 		sts green,r18
 488               	.LM78:
 489 0286 A69F      		mul r26,r22
 490 0288 C001      		movw r24,r0
 491 028a A79F      		mul r26,r23
 492 028c 900D      		add r25,r0
 493 028e B69F      		mul r27,r22
 494 0290 900D      		add r25,r0
 495 0292 1124      		clr r1
 496 0294 34E0      		ldi r19,4
 497 0296 9695      	1:	lsr r25
 498 0298 8795      		ror r24
 499 029a 3A95      		dec r19
 500 029c 01F4      		brne 1b
 501 029e 9093 0000 		sts (blue)+1,r25
 502 02a2 8093 0000 		sts blue,r24
 503               	.LM79:
 504 02a6 4093 B400 		sts 180,r20
 505               	.LM80:
 506 02aa 28BD      		out 72-32,r18
 507               	.LM81:
 508 02ac 87BD      		out 71-32,r24
 509               	.L31:
 510 02ae 0895      		ret
 511               	.LFE25:
 513               	.global	runHueFunction
 515               	runHueFunction:
 516               	.LFB26:
 517               	.LM82:
 518               	/* prologue: function */
 519               	/* frame size = 0 */
 520               	.LM83:
 521 02b0 8091 0000 		lds r24,littleCount
 522 02b4 8F5F      		subi r24,lo8(-(1))
 523 02b6 8093 0000 		sts littleCount,r24
 524               	.LM84:
 525 02ba 8230      		cpi r24,lo8(2)
 526 02bc 01F0      		breq .+2
 527 02be 00C0      		rjmp .L41
 528               	.LM85:
 529 02c0 1092 0000 		sts littleCount,__zero_reg__
 530               	.LM86:
 531 02c4 8091 0000 		lds r24,hueCount
 532 02c8 9091 0000 		lds r25,(hueCount)+1
 533 02cc 0196      		adiw r24,1
 534 02ce 9093 0000 		sts (hueCount)+1,r25
 535 02d2 8093 0000 		sts hueCount,r24
 536               	.LM87:
 537 02d6 2091 0000 		lds r18,hueSpeed
 538 02da 3091 0000 		lds r19,(hueSpeed)+1
 539 02de 8217      		cp r24,r18
 540 02e0 9307      		cpc r25,r19
 541 02e2 00F4      		brsh .+2
 542 02e4 00C0      		rjmp .L41
 543               	.LM88:
 544 02e6 1092 0000 		sts (hueCount)+1,__zero_reg__
 545 02ea 1092 0000 		sts hueCount,__zero_reg__
 546               	.LM89:
 547 02ee 2091 0000 		lds r18,currentHue
 548 02f2 3091 0000 		lds r19,(currentHue)+1
 549 02f6 2F3F      		cpi r18,255
 550 02f8 3105      		cpc r19,__zero_reg__
 551 02fa 00F4      		brsh .L34
 552               	.LM90:
 553 02fc 8FEF      		ldi r24,lo8(255)
 554 02fe 90E0      		ldi r25,hi8(255)
 555 0300 9093 0000 		sts (red)+1,r25
 556 0304 8093 0000 		sts red,r24
 557               	.LM91:
 558 0308 3093 0000 		sts (green)+1,r19
 559 030c 2093 0000 		sts green,r18
 560 0310 00C0      		rjmp .L42
 561               	.L34:
 562               	.LM92:
 563 0312 81E0      		ldi r24,hi8(511)
 564 0314 2F3F      		cpi r18,lo8(511)
 565 0316 3807      		cpc r19,r24
 566 0318 00F4      		brsh .L36
 567               	.LM93:
 568 031a 8EEF      		ldi r24,lo8(510)
 569 031c 91E0      		ldi r25,hi8(510)
 570 031e 821B      		sub r24,r18
 571 0320 930B      		sbc r25,r19
 572 0322 9093 0000 		sts (red)+1,r25
 573 0326 8093 0000 		sts red,r24
 574               	.LM94:
 575 032a 8FEF      		ldi r24,lo8(255)
 576 032c 90E0      		ldi r25,hi8(255)
 577 032e 9093 0000 		sts (green)+1,r25
 578 0332 8093 0000 		sts green,r24
 579               	.L42:
 580               	.LM95:
 581 0336 1092 0000 		sts (blue)+1,__zero_reg__
 582 033a 1092 0000 		sts blue,__zero_reg__
 583 033e 00C0      		rjmp .L35
 584               	.L36:
 585               	.LM96:
 586 0340 E2E0      		ldi r30,hi8(767)
 587 0342 2F3F      		cpi r18,lo8(767)
 588 0344 3E07      		cpc r19,r30
 589 0346 00F4      		brsh .L37
 590               	.LM97:
 591 0348 1092 0000 		sts (red)+1,__zero_reg__
 592 034c 1092 0000 		sts red,__zero_reg__
 593               	.LM98:
 594 0350 8FEF      		ldi r24,lo8(255)
 595 0352 90E0      		ldi r25,hi8(255)
 596 0354 9093 0000 		sts (green)+1,r25
 597 0358 8093 0000 		sts green,r24
 598               	.LM99:
 599 035c 2F5F      		subi r18,lo8(-(-511))
 600 035e 3140      		sbci r19,hi8(-(-511))
 601 0360 3093 0000 		sts (blue)+1,r19
 602 0364 2093 0000 		sts blue,r18
 603 0368 00C0      		rjmp .L35
 604               	.L37:
 605               	.LM100:
 606 036a F3E0      		ldi r31,hi8(1023)
 607 036c 2F3F      		cpi r18,lo8(1023)
 608 036e 3F07      		cpc r19,r31
 609 0370 00F4      		brsh .L38
 610               	.LM101:
 611 0372 1092 0000 		sts (red)+1,__zero_reg__
 612 0376 1092 0000 		sts red,__zero_reg__
 613               	.LM102:
 614 037a 8EEF      		ldi r24,lo8(1022)
 615 037c 93E0      		ldi r25,hi8(1022)
 616 037e 821B      		sub r24,r18
 617 0380 930B      		sbc r25,r19
 618 0382 9093 0000 		sts (green)+1,r25
 619 0386 8093 0000 		sts green,r24
 620 038a 00C0      		rjmp .L44
 621               	.L38:
 622               	.LM103:
 623 038c 84E0      		ldi r24,hi8(1279)
 624 038e 2F3F      		cpi r18,lo8(1279)
 625 0390 3807      		cpc r19,r24
 626 0392 00F4      		brsh .L39
 627               	.LM104:
 628 0394 2F5F      		subi r18,lo8(-(-1023))
 629 0396 3340      		sbci r19,hi8(-(-1023))
 630 0398 3093 0000 		sts (red)+1,r19
 631 039c 2093 0000 		sts red,r18
 632               	.LM105:
 633 03a0 1092 0000 		sts (green)+1,__zero_reg__
 634 03a4 1092 0000 		sts green,__zero_reg__
 635               	.L44:
 636               	.LM106:
 637 03a8 8FEF      		ldi r24,lo8(255)
 638 03aa 90E0      		ldi r25,hi8(255)
 639 03ac 00C0      		rjmp .L43
 640               	.L39:
 641               	.LM107:
 642 03ae E5E0      		ldi r30,hi8(1535)
 643 03b0 2F3F      		cpi r18,lo8(1535)
 644 03b2 3E07      		cpc r19,r30
 645 03b4 00F4      		brsh .L40
 646               	.LM108:
 647 03b6 8FEF      		ldi r24,lo8(255)
 648 03b8 90E0      		ldi r25,hi8(255)
 649 03ba 9093 0000 		sts (red)+1,r25
 650 03be 8093 0000 		sts red,r24
 651               	.LM109:
 652 03c2 1092 0000 		sts (green)+1,__zero_reg__
 653 03c6 1092 0000 		sts green,__zero_reg__
 654               	.LM110:
 655 03ca 8EEF      		ldi r24,lo8(1534)
 656 03cc 95E0      		ldi r25,hi8(1534)
 657 03ce 821B      		sub r24,r18
 658 03d0 930B      		sbc r25,r19
 659               	.L43:
 660 03d2 9093 0000 		sts (blue)+1,r25
 661 03d6 8093 0000 		sts blue,r24
 662 03da 00C0      		rjmp .L35
 663               	.L40:
 664               	.LM111:
 665 03dc 8FEF      		ldi r24,lo8(255)
 666 03de 90E0      		ldi r25,hi8(255)
 667 03e0 9093 0000 		sts (red)+1,r25
 668 03e4 8093 0000 		sts red,r24
 669               	.LM112:
 670 03e8 1092 0000 		sts (green)+1,__zero_reg__
 671 03ec 1092 0000 		sts green,__zero_reg__
 672               	.LM113:
 673 03f0 1092 0000 		sts (blue)+1,__zero_reg__
 674 03f4 1092 0000 		sts blue,__zero_reg__
 675               	.LM114:
 676 03f8 1092 0000 		sts (currentHue)+1,__zero_reg__
 677 03fc 1092 0000 		sts currentHue,__zero_reg__
 678               	.L35:
 679               	.LM115:
 680 0400 6091 0000 		lds r22,bright
 681 0404 7091 0000 		lds r23,(bright)+1
 682 0408 8091 0000 		lds r24,red
 683 040c 9091 0000 		lds r25,(red)+1
 684 0410 689F      		mul r22,r24
 685 0412 A001      		movw r20,r0
 686 0414 699F      		mul r22,r25
 687 0416 500D      		add r21,r0
 688 0418 789F      		mul r23,r24
 689 041a 500D      		add r21,r0
 690 041c 1124      		clr r1
 691 041e E4E0      		ldi r30,4
 692 0420 5695      	1:	lsr r21
 693 0422 4795      		ror r20
 694 0424 EA95      		dec r30
 695 0426 01F4      		brne 1b
 696 0428 5093 0000 		sts (red)+1,r21
 697 042c 4093 0000 		sts red,r20
 698               	.LM116:
 699 0430 8091 0000 		lds r24,green
 700 0434 9091 0000 		lds r25,(green)+1
 701 0438 689F      		mul r22,r24
 702 043a 9001      		movw r18,r0
 703 043c 699F      		mul r22,r25
 704 043e 300D      		add r19,r0
 705 0440 789F      		mul r23,r24
 706 0442 300D      		add r19,r0
 707 0444 1124      		clr r1
 708 0446 54E0      		ldi r21,4
 709 0448 3695      	1:	lsr r19
 710 044a 2795      		ror r18
 711 044c 5A95      		dec r21
 712 044e 01F4      		brne 1b
 713 0450 3093 0000 		sts (green)+1,r19
 714 0454 2093 0000 		sts green,r18
 715               	.LM117:
 716 0458 8091 0000 		lds r24,blue
 717 045c 9091 0000 		lds r25,(blue)+1
 718 0460 FC01      		movw r30,r24
 719 0462 6E9F      		mul r22,r30
 720 0464 C001      		movw r24,r0
 721 0466 6F9F      		mul r22,r31
 722 0468 900D      		add r25,r0
 723 046a 7E9F      		mul r23,r30
 724 046c 900D      		add r25,r0
 725 046e 1124      		clr r1
 726 0470 34E0      		ldi r19,4
 727 0472 9695      	1:	lsr r25
 728 0474 8795      		ror r24
 729 0476 3A95      		dec r19
 730 0478 01F4      		brne 1b
 731 047a 9093 0000 		sts (blue)+1,r25
 732 047e 8093 0000 		sts blue,r24
 733               	.LM118:
 734 0482 4093 B400 		sts 180,r20
 735               	.LM119:
 736 0486 28BD      		out 72-32,r18
 737               	.LM120:
 738 0488 87BD      		out 71-32,r24
 739               	.LM121:
 740 048a 8091 0000 		lds r24,currentHue
 741 048e 9091 0000 		lds r25,(currentHue)+1
 742 0492 0196      		adiw r24,1
 743 0494 9093 0000 		sts (currentHue)+1,r25
 744 0498 8093 0000 		sts currentHue,r24
 745               	.L41:
 746 049c 0895      		ret
 747               	.LFE26:
 749               	.global	clearImmediateChange
 751               	clearImmediateChange:
 752               	.LFB29:
 753               	.LM122:
 754               	/* prologue: function */
 755               	/* frame size = 0 */
 756               	.LM123:
 757 049e 1092 0000 		sts immediateChange,__zero_reg__
 758 04a2 1092 0000 		sts (immediateChange)+1,__zero_reg__
 759 04a6 1092 0000 		sts (immediateChange)+2,__zero_reg__
 760 04aa 1092 0000 		sts (immediateChange)+3,__zero_reg__
 761               	.LM124:
 762 04ae 8091 0000 		lds r24,pwmOldValues
 763 04b2 8093 B400 		sts 180,r24
 764               	.LM125:
 765 04b6 8091 0000 		lds r24,pwmOldValues+1
 766 04ba 88BD      		out 72-32,r24
 767               	.LM126:
 768 04bc 8091 0000 		lds r24,pwmOldValues+2
 769 04c0 87BD      		out 71-32,r24
 770               	.LM127:
 771 04c2 81E0      		ldi r24,lo8(1)
 772 04c4 8093 0000 		sts switchChanged,r24
 773               	/* epilogue start */
 774               	.LM128:
 775 04c8 0895      		ret
 776               	.LFE29:
 778               	.global	clearTheProgram
 780               	clearTheProgram:
 781               	.LFB32:
 782               	.LM129:
 783               	.LVL51:
 784               	/* prologue: function */
 785               	/* frame size = 0 */
 786               	.LM130:
 787 04ca 9C01      		movw r18,r24
 788               	.LVL52:
 789 04cc FC01      		movw r30,r24
 790               	.LVL53:
 791 04ce B3E0      		ldi r27,3
 792 04d0 EE0F      	1:	lsl r30
 793 04d2 FF1F      		rol r31
 794 04d4 BA95      		dec r27
 795 04d6 01F4      		brne 1b
 796 04d8 220F      		lsl r18
 797 04da 331F      		rol r19
 798               	.LVL54:
 799 04dc E20F      		add r30,r18
 800 04de F31F      		adc r31,r19
 801 04e0 E050      		subi r30,lo8(-(weeklyProgram))
 802 04e2 F040      		sbci r31,hi8(-(weeklyProgram))
 803 04e4 80E0      		ldi r24,lo8(0)
 804 04e6 90E0      		ldi r25,hi8(0)
 805               	.LVL55:
 806               	.LM131:
 807 04e8 2FEF      		ldi r18,lo8(-1)
 808               	.LVL56:
 809               	.L48:
 810 04ea 2193      		st Z+,r18
 811               	.LM132:
 812 04ec 0196      		adiw r24,1
 813 04ee 8A30      		cpi r24,10
 814 04f0 9105      		cpc r25,__zero_reg__
 815 04f2 01F4      		brne .L48
 816               	/* epilogue start */
 817               	.LM133:
 818 04f4 0895      		ret
 819               	.LFE32:
 821               	.global	findOpenSwitch
 823               	findOpenSwitch:
 824               	.LFB34:
 825               	.LM134:
 826               	.LVL57:
 827               	/* prologue: function */
 828               	/* frame size = 0 */
 829               	.LM135:
 830 04f6 9C01      		movw r18,r24
 831               	.LVL58:
 832 04f8 FC01      		movw r30,r24
 833               	.LVL59:
 834 04fa 93E0      		ldi r25,3
 835 04fc EE0F      	1:	lsl r30
 836 04fe FF1F      		rol r31
 837 0500 9A95      		dec r25
 838 0502 01F4      		brne 1b
 839 0504 220F      		lsl r18
 840 0506 331F      		rol r19
 841               	.LVL60:
 842 0508 E20F      		add r30,r18
 843 050a F31F      		adc r31,r19
 844 050c E050      		subi r30,lo8(-(weeklyProgram+5))
 845 050e F040      		sbci r31,hi8(-(weeklyProgram+5))
 846 0510 25E0      		ldi r18,lo8(5)
 847 0512 30E0      		ldi r19,hi8(5)
 848               	.LVL61:
 849               	.L54:
 850               	.LM136:
 851 0514 8081      		ld r24,Z
 852 0516 8F3F      		cpi r24,lo8(-1)
 853 0518 01F0      		breq .L53
 854               	.LM137:
 855 051a 2F5F      		subi r18,lo8(-(1))
 856 051c 3F4F      		sbci r19,hi8(-(1))
 857 051e 3196      		adiw r30,1
 858 0520 2930      		cpi r18,9
 859 0522 3105      		cpc r19,__zero_reg__
 860 0524 01F4      		brne .L54
 861 0526 20E0      		ldi r18,lo8(0)
 862 0528 30E0      		ldi r19,hi8(0)
 863               	.LVL62:
 864               	.L53:
 865               	.LM138:
 866 052a C901      		movw r24,r18
 867               	.LVL63:
 868               	/* epilogue start */
 869 052c 0895      		ret
 870               	.LFE34:
 872               	.global	programGetSwitches
 874               	programGetSwitches:
 875               	.LFB38:
 876               	.LM139:
 877               	.LVL64:
 878 052e 0F93      		push r16
 879 0530 1F93      		push r17
 880               	/* prologue: function */
 881               	/* frame size = 0 */
 882 0532 8C01      		movw r16,r24
 883               	.LVL65:
 884               	.LM140:
 885 0534 20E0      		ldi r18,lo8(0)
 886 0536 30E0      		ldi r19,hi8(0)
 887               	.LVL66:
 888               	.L60:
 889 0538 C801      		movw r24,r16
 890               	.LVL67:
 891 053a F801      		movw r30,r16
 892               	.LVL68:
 893 053c B3E0      		ldi r27,3
 894 053e EE0F      	1:	lsl r30
 895 0540 FF1F      		rol r31
 896 0542 BA95      		dec r27
 897 0544 01F4      		brne 1b
 898 0546 880F      		lsl r24
 899 0548 991F      		rol r25
 900               	.LVL69:
 901 054a E80F      		add r30,r24
 902 054c F91F      		adc r31,r25
 903 054e E050      		subi r30,lo8(-(weeklyProgram+5))
 904 0550 F040      		sbci r31,hi8(-(weeklyProgram+5))
 905 0552 DB01      		movw r26,r22
 906 0554 A20F      		add r26,r18
 907 0556 B31F      		adc r27,r19
 908               	.LM141:
 909 0558 A901      		movw r20,r18
 910 055a 4C5F      		subi r20,lo8(-(4))
 911 055c 5F4F      		sbci r21,hi8(-(4))
 912               	.L59:
 913               	.LM142:
 914 055e 8081      		ld r24,Z
 915               	.LVL70:
 916 0560 8F3F      		cpi r24,lo8(-1)
 917 0562 01F0      		breq .L58
 918               	.LM143:
 919 0564 8D93      		st X+,r24
 920               	.LM144:
 921 0566 2F5F      		subi r18,lo8(-(1))
 922 0568 3F4F      		sbci r19,hi8(-(1))
 923 056a 3196      		adiw r30,1
 924               	.LM145:
 925 056c 2417      		cp r18,r20
 926 056e 3507      		cpc r19,r21
 927 0570 01F4      		brne .L59
 928               	.LM146:
 929 0572 C801      		movw r24,r16
 930 0574 F801      		movw r30,r16
 931               	.LVL71:
 932 0576 53E0      		ldi r21,3
 933 0578 EE0F      	1:	lsl r30
 934 057a FF1F      		rol r31
 935 057c 5A95      		dec r21
 936 057e 01F4      		brne 1b
 937 0580 880F      		lsl r24
 938 0582 991F      		rol r25
 939               	.LVL72:
 940 0584 E80F      		add r30,r24
 941 0586 F91F      		adc r31,r25
 942 0588 E050      		subi r30,lo8(-(weeklyProgram))
 943 058a F040      		sbci r31,hi8(-(weeklyProgram))
 944 058c 8185      		ldd r24,Z+9
 945               	.LVL73:
 946 058e 8F3F      		cpi r24,lo8(-1)
 947 0590 01F0      		breq .L58
 948               	.LM147:
 949 0592 082F      		mov r16,r24
 950               	.LVL74:
 951 0594 10E0      		ldi r17,lo8(0)
 952 0596 00C0      		rjmp .L60
 953               	.LVL75:
 954               	.L58:
 955               	.LM148:
 956 0598 C901      		movw r24,r18
 957               	.LVL76:
 958               	/* epilogue start */
 959 059a 1F91      		pop r17
 960               	.LVL77:
 961 059c 0F91      		pop r16
 962 059e 0895      		ret
 963               	.LFE38:
 965               	.global	startTheProgram
 967               	startTheProgram:
 968               	.LFB40:
 969               	.LM149:
 970               	.LVL78:
 971 05a0 AF92      		push r10
 972 05a2 BF92      		push r11
 973 05a4 CF92      		push r12
 974 05a6 DF92      		push r13
 975 05a8 EF92      		push r14
 976 05aa FF92      		push r15
 977 05ac 0F93      		push r16
 978 05ae 1F93      		push r17
 979 05b0 DF93      		push r29
 980 05b2 CF93      		push r28
 981 05b4 CDB7      		in r28,__SP_L__
 982 05b6 DEB7      		in r29,__SP_H__
 983 05b8 6097      		sbiw r28,16
 984 05ba 0FB6      		in __tmp_reg__,__SREG__
 985 05bc F894      		cli
 986 05be DEBF      		out __SP_H__,r29
 987 05c0 0FBE      		out __SREG__,__tmp_reg__
 988 05c2 CDBF      		out __SP_L__,r28
 989               	/* prologue: function */
 990               	/* frame size = 16 */
 991 05c4 DC01      		movw r26,r24
 992               	.LVL79:
 993 05c6 8B01      		movw r16,r22
 994 05c8 6901      		movw r12,r18
 995 05ca 7A01      		movw r14,r20
 996               	.LM150:
 997 05cc 6115      		cp r22,__zero_reg__
 998 05ce 7105      		cpc r23,__zero_reg__
 999 05d0 01F4      		brne .L64
 1000               	.LVL80:
 1001               	.LM151:
 1002 05d2 FC01      		movw r30,r24
 1003               	.LVL81:
 1004 05d4 33E0      		ldi r19,3
 1005 05d6 EE0F      	1:	lsl r30
 1006 05d8 FF1F      		rol r31
 1007 05da 3A95      		dec r19
 1008 05dc 01F4      		brne 1b
 1009 05de 880F      		lsl r24
 1010 05e0 991F      		rol r25
 1011 05e2 E80F      		add r30,r24
 1012 05e4 F91F      		adc r31,r25
 1013 05e6 E050      		subi r30,lo8(-(weeklyProgram))
 1014 05e8 F040      		sbci r31,hi8(-(weeklyProgram))
 1015 05ea 8481      		ldd r24,Z+4
 1016               	.LVL82:
 1017 05ec 082F      		mov r16,r24
 1018               	.LVL83:
 1019 05ee 10E0      		ldi r17,lo8(0)
 1020               	.LVL84:
 1021               	.L64:
 1022               	.LM152:
 1023 05f0 CD01      		movw r24,r26
 1024 05f2 BE01      		movw r22,r28
 1025 05f4 6F5F      		subi r22,lo8(-(1))
 1026 05f6 7F4F      		sbci r23,hi8(-(1))
 1027 05f8 0E94 0000 		call programGetSwitches
 1028 05fc 5C01      		movw r10,r24
 1029               	.LVL85:
 1030               	.LM153:
 1031 05fe C114      		cp r12,__zero_reg__
 1032 0600 D104      		cpc r13,__zero_reg__
 1033 0602 E104      		cpc r14,__zero_reg__
 1034 0604 F104      		cpc r15,__zero_reg__
 1035 0606 01F4      		brne .L65
 1036               	.LM154:
 1037 0608 6801      		movw r12,r16
 1038 060a EE24      		clr r14
 1039 060c D7FC      		sbrc r13,7
 1040 060e E094      		com r14
 1041 0610 FE2C      		mov r15,r14
 1042 0612 8091 0000 		lds r24,weeklySeconds
 1043 0616 9091 0000 		lds r25,(weeklySeconds)+1
 1044 061a A091 0000 		lds r26,(weeklySeconds)+2
 1045 061e B091 0000 		lds r27,(weeklySeconds)+3
 1046 0622 C80E      		add r12,r24
 1047 0624 D91E      		adc r13,r25
 1048 0626 EA1E      		adc r14,r26
 1049 0628 FB1E      		adc r15,r27
 1050               	.L65:
 1051               	.LM155:
 1052 062a 9801      		movw r18,r16
 1053 062c 4427      		clr r20
 1054 062e 37FD      		sbrc r19,7
 1055 0630 4095      		com r20
 1056 0632 542F      		mov r21,r20
 1057 0634 8091 0000 		lds r24,weeklySeconds
 1058 0638 9091 0000 		lds r25,(weeklySeconds)+1
 1059 063c A091 0000 		lds r26,(weeklySeconds)+2
 1060 0640 B091 0000 		lds r27,(weeklySeconds)+3
 1061 0644 280F      		add r18,r24
 1062 0646 391F      		adc r19,r25
 1063 0648 4A1F      		adc r20,r26
 1064 064a 5B1F      		adc r21,r27
 1065 064c 60E0      		ldi r22,lo8(0)
 1066 064e 70E0      		ldi r23,hi8(0)
 1067               	.LVL86:
 1068               	.LM156:
 1069 0650 8E01      		movw r16,r28
 1070               	.LVL87:
 1071 0652 0F5F      		subi r16,lo8(-(1))
 1072 0654 1F4F      		sbci r17,hi8(-(1))
 1073 0656 00C0      		rjmp .L66
 1074               	.L68:
 1075 0658 F801      		movw r30,r16
 1076 065a E60F      		add r30,r22
 1077 065c F71F      		adc r31,r23
 1078 065e 8081      		ld r24,Z
 1079 0660 E82F      		mov r30,r24
 1080 0662 F0E0      		ldi r31,lo8(0)
 1081               	.LM157:
 1082 0664 EE0F      		lsl r30
 1083 0666 FF1F      		rol r31
 1084 0668 EE0F      		lsl r30
 1085 066a FF1F      		rol r31
 1086 066c E050      		subi r30,lo8(-(switchStatus))
 1087 066e F040      		sbci r31,hi8(-(switchStatus))
 1088 0670 8081      		ld r24,Z
 1089 0672 9181      		ldd r25,Z+1
 1090 0674 A281      		ldd r26,Z+2
 1091 0676 B381      		ldd r27,Z+3
 1092 0678 8217      		cp r24,r18
 1093 067a 9307      		cpc r25,r19
 1094 067c A407      		cpc r26,r20
 1095 067e B507      		cpc r27,r21
 1096 0680 00F4      		brsh .L67
 1097               	.LM158:
 1098 0682 C082      		st Z,r12
 1099 0684 D182      		std Z+1,r13
 1100 0686 E282      		std Z+2,r14
 1101 0688 F382      		std Z+3,r15
 1102               	.L67:
 1103               	.LM159:
 1104 068a 6F5F      		subi r22,lo8(-(1))
 1105 068c 7F4F      		sbci r23,hi8(-(1))
 1106               	.L66:
 1107 068e 6A15      		cp r22,r10
 1108 0690 7B05      		cpc r23,r11
 1109 0692 04F0      		brlt .L68
 1110               	.LM160:
 1111 0694 81E0      		ldi r24,lo8(1)
 1112 0696 8093 0000 		sts switchChanged,r24
 1113               	/* epilogue start */
 1114               	.LM161:
 1115 069a 6096      		adiw r28,16
 1116 069c 0FB6      		in __tmp_reg__,__SREG__
 1117 069e F894      		cli
 1118 06a0 DEBF      		out __SP_H__,r29
 1119 06a2 0FBE      		out __SREG__,__tmp_reg__
 1120 06a4 CDBF      		out __SP_L__,r28
 1121 06a6 CF91      		pop r28
 1122 06a8 DF91      		pop r29
 1123 06aa 1F91      		pop r17
 1124               	.LVL88:
 1125 06ac 0F91      		pop r16
 1126 06ae FF90      		pop r15
 1127 06b0 EF90      		pop r14
 1128 06b2 DF90      		pop r13
 1129 06b4 CF90      		pop r12
 1130               	.LVL89:
 1131 06b6 BF90      		pop r11
 1132 06b8 AF90      		pop r10
 1133               	.LVL90:
 1134 06ba 0895      		ret
 1135               	.LFE40:
 1137               	.global	clockInit
 1139               	clockInit:
 1140               	.LFB49:
 1141               	.LM162:
 1142               	/* prologue: function */
 1143               	/* frame size = 0 */
 1144               	.LM163:
 1145 06bc 1092 8000 		sts 128,__zero_reg__
 1146               	.LM164:
 1147 06c0 88E0      		ldi r24,lo8(8)
 1148 06c2 8093 8100 		sts 129,r24
 1149               	.LM165:
 1150 06c6 1092 8900 		sts (136)+1,__zero_reg__
 1151 06ca 1092 8800 		sts 136,__zero_reg__
 1152               	.LM166:
 1153 06ce 82E0      		ldi r24,lo8(2)
 1154 06d0 8093 6F00 		sts 111,r24
 1155               	/* epilogue start */
 1156               	.LM167:
 1157 06d4 0895      		ret
 1158               	.LFE49:
 1160               	.global	startClock
 1162               	startClock:
 1163               	.LFB52:
 1164               	.LM168:
 1165               	/* prologue: function */
 1166               	/* frame size = 0 */
 1167               	.LM169:
 1168 06d6 8FEF      		ldi r24,lo8(-1)
 1169 06d8 9FEF      		ldi r25,hi8(-1)
 1170 06da 9093 8500 		sts (132)+1,r25
 1171 06de 8093 8400 		sts 132,r24
 1172               	.LM170:
 1173 06e2 E1E8      		ldi r30,lo8(129)
 1174 06e4 F0E0      		ldi r31,hi8(129)
 1175 06e6 8081      		ld r24,Z
 1176 06e8 8560      		ori r24,lo8(5)
 1177 06ea 8083      		st Z,r24
 1178               	/* epilogue start */
 1179               	.LM171:
 1180 06ec 0895      		ret
 1181               	.LFE52:
 1183               	.global	stopClock
 1185               	stopClock:
 1186               	.LFB53:
 1187               	.LM172:
 1188               	/* prologue: function */
 1189               	/* frame size = 0 */
 1190               	.LM173:
 1191 06ee E1E8      		ldi r30,lo8(129)
 1192 06f0 F0E0      		ldi r31,hi8(129)
 1193 06f2 8081      		ld r24,Z
 1194 06f4 8A7F      		andi r24,lo8(-6)
 1195 06f6 8083      		st Z,r24
 1196               	/* epilogue start */
 1197               	.LM174:
 1198 06f8 0895      		ret
 1199               	.LFE53:
 1201               	.global	getWeekday
 1203               	getWeekday:
 1204               	.LFB54:
 1205               	.LM175:
 1206               	.LVL91:
 1207 06fa EF92      		push r14
 1208 06fc FF92      		push r15
 1209 06fe 0F93      		push r16
 1210 0700 1F93      		push r17
 1211               	/* prologue: function */
 1212               	/* frame size = 0 */
 1213 0702 7B01      		movw r14,r22
 1214 0704 8A01      		movw r16,r20
 1215               	.LM176:
 1216 0706 8EE0      		ldi r24,lo8(14)
 1217 0708 90E0      		ldi r25,hi8(14)
 1218               	.LVL92:
 1219 070a 861B      		sub r24,r22
 1220 070c 970B      		sbc r25,r23
 1221 070e 6CE0      		ldi r22,lo8(12)
 1222 0710 70E0      		ldi r23,hi8(12)
 1223               	.LVL93:
 1224 0712 0E94 0000 		call __divmodhi4
 1225 0716 FB01      		movw r30,r22
 1226               	.LM177:
 1227 0718 2091 0000 		lds r18,globalYear
 1228 071c 3091 0000 		lds r19,(globalYear)+1
 1229               	.LVL94:
 1230 0720 261B      		sub r18,r22
 1231 0722 370B      		sbc r19,r23
 1232               	.LVL95:
 1233 0724 020F      		add r16,r18
 1234 0726 131F      		adc r17,r19
 1235               	.LVL96:
 1236 0728 C901      		movw r24,r18
 1237 072a 64E0      		ldi r22,lo8(4)
 1238 072c 70E0      		ldi r23,hi8(4)
 1239               	.LVL97:
 1240 072e 0E94 0000 		call __divmodhi4
 1241 0732 060F      		add r16,r22
 1242 0734 171F      		adc r17,r23
 1243 0736 C901      		movw r24,r18
 1244 0738 6CE9      		ldi r22,lo8(-100)
 1245 073a 7FEF      		ldi r23,hi8(-100)
 1246 073c 0E94 0000 		call __divmodhi4
 1247 0740 060F      		add r16,r22
 1248 0742 171F      		adc r17,r23
 1249 0744 C901      		movw r24,r18
 1250 0746 60E9      		ldi r22,lo8(400)
 1251 0748 71E0      		ldi r23,hi8(400)
 1252 074a 0E94 0000 		call __divmodhi4
 1253 074e 060F      		add r16,r22
 1254 0750 171F      		adc r17,r23
 1255 0752 4EEF      		ldi r20,lo8(-2)
 1256 0754 5FEF      		ldi r21,hi8(-2)
 1257 0756 E40E      		add r14,r20
 1258 0758 F51E      		adc r15,r21
 1259 075a CF01      		movw r24,r30
 1260               	.LVL98:
 1261 075c 880F      		lsl r24
 1262 075e 991F      		rol r25
 1263 0760 8E0F      		add r24,r30
 1264 0762 9F1F      		adc r25,r31
 1265 0764 880F      		lsl r24
 1266 0766 991F      		rol r25
 1267 0768 880F      		lsl r24
 1268 076a 991F      		rol r25
 1269 076c 8E0D      		add r24,r14
 1270 076e 9F1D      		adc r25,r15
 1271 0770 2DE0      		ldi r18,lo8(13)
 1272 0772 30E0      		ldi r19,hi8(13)
 1273               	.LVL99:
 1274 0774 AC01      		movw r20,r24
 1275 0776 429F      		mul r20,r18
 1276 0778 C001      		movw r24,r0
 1277 077a 439F      		mul r20,r19
 1278 077c 900D      		add r25,r0
 1279 077e 529F      		mul r21,r18
 1280 0780 900D      		add r25,r0
 1281 0782 1124      		clr r1
 1282 0784 0197      		sbiw r24,1
 1283 0786 65E0      		ldi r22,lo8(5)
 1284 0788 70E0      		ldi r23,hi8(5)
 1285 078a 0E94 0000 		call __divmodhi4
 1286 078e C801      		movw r24,r16
 1287 0790 860F      		add r24,r22
 1288 0792 971F      		adc r25,r23
 1289 0794 67E0      		ldi r22,lo8(7)
 1290 0796 70E0      		ldi r23,hi8(7)
 1291 0798 0E94 0000 		call __divmodhi4
 1292               	/* epilogue start */
 1293               	.LM178:
 1294 079c 1F91      		pop r17
 1295 079e 0F91      		pop r16
 1296               	.LVL100:
 1297 07a0 FF90      		pop r15
 1298 07a2 EF90      		pop r14
 1299               	.LVL101:
 1300 07a4 0895      		ret
 1301               	.LFE54:
 1303               	.global	getDayofYear
 1305               	getDayofYear:
 1306               	.LFB55:
 1307               	.LM179:
 1308               	.LVL102:
 1309 07a6 DF93      		push r29
 1310 07a8 CF93      		push r28
 1311 07aa CDB7      		in r28,__SP_L__
 1312 07ac DEB7      		in r29,__SP_H__
 1313 07ae 6897      		sbiw r28,24
 1314 07b0 0FB6      		in __tmp_reg__,__SREG__
 1315 07b2 F894      		cli
 1316 07b4 DEBF      		out __SP_H__,r29
 1317 07b6 0FBE      		out __SREG__,__tmp_reg__
 1318 07b8 CDBF      		out __SP_L__,r28
 1319               	/* prologue: function */
 1320               	/* frame size = 24 */
 1321               	.LM180:
 1322 07ba DE01      		movw r26,r28
 1323 07bc 1196      		adiw r26,1
 1324 07be E0E0      		ldi r30,lo8(C.203.3335)
 1325 07c0 F0E0      		ldi r31,hi8(C.203.3335)
 1326 07c2 28E1      		ldi r18,lo8(24)
 1327               	.L79:
 1328 07c4 0190      		ld r0,Z+
 1329 07c6 0D92      		st X+,r0
 1330 07c8 2150      		subi r18,lo8(-(-1))
 1331 07ca 01F4      		brne .L79
 1332               	.LM181:
 1333 07cc 8370      		andi r24,lo8(3)
 1334 07ce 9070      		andi r25,hi8(3)
 1335               	.LVL103:
 1336 07d0 892B      		or r24,r25
 1337 07d2 01F4      		brne .L80
 1338               	.LM182:
 1339 07d4 8DE1      		ldi r24,lo8(29)
 1340 07d6 90E0      		ldi r25,hi8(29)
 1341               	.LVL104:
 1342 07d8 9887      		std Y+8,r25
 1343 07da 8F83      		std Y+7,r24
 1344               	.LVL105:
 1345               	.L80:
 1346 07dc FE01      		movw r30,r28
 1347 07de 3196      		adiw r30,1
 1348 07e0 9A01      		movw r18,r20
 1349               	.LVL106:
 1350 07e2 40E0      		ldi r20,lo8(0)
 1351 07e4 50E0      		ldi r21,hi8(0)
 1352               	.LVL107:
 1353 07e6 00C0      		rjmp .L81
 1354               	.LVL108:
 1355               	.L82:
 1356               	.LM183:
 1357 07e8 8191      		ld r24,Z+
 1358 07ea 9191      		ld r25,Z+
 1359               	.LVL109:
 1360 07ec 280F      		add r18,r24
 1361 07ee 391F      		adc r19,r25
 1362               	.LM184:
 1363 07f0 4F5F      		subi r20,lo8(-(1))
 1364 07f2 5F4F      		sbci r21,hi8(-(1))
 1365               	.LVL110:
 1366               	.L81:
 1367 07f4 4617      		cp r20,r22
 1368 07f6 5707      		cpc r21,r23
 1369 07f8 04F0      		brlt .L82
 1370               	.LM185:
 1371 07fa C901      		movw r24,r18
 1372               	.LVL111:
 1373               	/* epilogue start */
 1374 07fc 6896      		adiw r28,24
 1375 07fe 0FB6      		in __tmp_reg__,__SREG__
 1376 0800 F894      		cli
 1377 0802 DEBF      		out __SP_H__,r29
 1378 0804 0FBE      		out __SREG__,__tmp_reg__
 1379 0806 CDBF      		out __SP_L__,r28
 1380 0808 CF91      		pop r28
 1381 080a DF91      		pop r29
 1382 080c 0895      		ret
 1383               	.LFE55:
 1385               	.global	checkDaylightSavings
 1387               	checkDaylightSavings:
 1388               	.LFB57:
 1389               	.LM186:
 1390               	/* prologue: function */
 1391               	/* frame size = 0 */
 1392               	.LM187:
 1393 080e 8091 0000 		lds r24,wasDaylightSavings
 1394 0812 8130      		cpi r24,lo8(1)
 1395 0814 01F4      		brne .+2
 1396 0816 00C0      		rjmp .L88
 1397               	.LM188:
 1398 0818 4091 0000 		lds r20,globalMonth
 1399 081c 5091 0000 		lds r21,(globalMonth)+1
 1400 0820 8091 0000 		lds r24,daylightSavings
 1401 0824 9091 0000 		lds r25,(daylightSavings)+1
 1402 0828 4817      		cp r20,r24
 1403 082a 5907      		cpc r21,r25
 1404 082c 01F4      		brne .L87
 1405 082e 2091 0000 		lds r18,globalDay
 1406 0832 3091 0000 		lds r19,(globalDay)+1
 1407 0836 8091 0000 		lds r24,daylightSavings+2
 1408 083a 9091 0000 		lds r25,(daylightSavings+2)+1
 1409 083e 2817      		cp r18,r24
 1410 0840 3907      		cpc r19,r25
 1411 0842 01F4      		brne .L87
 1412               	.LM189:
 1413 0844 81E0      		ldi r24,lo8(1)
 1414 0846 8093 0000 		sts wasDaylightSavings,r24
 1415               	.LM190:
 1416 084a 8091 0000 		lds r24,globalHour
 1417 084e 9091 0000 		lds r25,(globalHour)+1
 1418 0852 0196      		adiw r24,1
 1419 0854 9093 0000 		sts (globalHour)+1,r25
 1420 0858 8093 0000 		sts globalHour,r24
 1421 085c 0895      		ret
 1422               	.L87:
 1423               	.LM191:
 1424 085e 8091 0000 		lds r24,daylightSavings+4
 1425 0862 9091 0000 		lds r25,(daylightSavings+4)+1
 1426 0866 4817      		cp r20,r24
 1427 0868 5907      		cpc r21,r25
 1428 086a 01F4      		brne .L88
 1429 086c 2091 0000 		lds r18,globalDay
 1430 0870 3091 0000 		lds r19,(globalDay)+1
 1431 0874 8091 0000 		lds r24,daylightSavings+6
 1432 0878 9091 0000 		lds r25,(daylightSavings+6)+1
 1433 087c 2817      		cp r18,r24
 1434 087e 3907      		cpc r19,r25
 1435 0880 01F4      		brne .L88
 1436               	.LM192:
 1437 0882 81E0      		ldi r24,lo8(1)
 1438 0884 8093 0000 		sts wasDaylightSavings,r24
 1439               	.LM193:
 1440 0888 8091 0000 		lds r24,globalHour
 1441 088c 9091 0000 		lds r25,(globalHour)+1
 1442 0890 0197      		sbiw r24,1
 1443 0892 9093 0000 		sts (globalHour)+1,r25
 1444 0896 8093 0000 		sts globalHour,r24
 1445               	.L88:
 1446 089a 0895      		ret
 1447               	.LFE57:
 1449               	.global	advanceDay
 1451               	advanceDay:
 1452               	.LFB58:
 1453               	.LM194:
 1454               	/* prologue: function */
 1455               	/* frame size = 0 */
 1456               	.LM195:
 1457 089c 1092 0000 		sts wasDaylightSavings,__zero_reg__
 1458               	.LM196:
 1459 08a0 8091 0000 		lds r24,dow
 1460 08a4 9091 0000 		lds r25,(dow)+1
 1461 08a8 0196      		adiw r24,1
 1462 08aa 9093 0000 		sts (dow)+1,r25
 1463 08ae 8093 0000 		sts dow,r24
 1464               	.LM197:
 1465 08b2 0797      		sbiw r24,7
 1466 08b4 01F4      		brne .L90
 1467               	.LM198:
 1468 08b6 1092 0000 		sts (dow)+1,__zero_reg__
 1469 08ba 1092 0000 		sts dow,__zero_reg__
 1470               	.LM199:
 1471 08be 1092 0000 		sts weeklySeconds,__zero_reg__
 1472 08c2 1092 0000 		sts (weeklySeconds)+1,__zero_reg__
 1473 08c6 1092 0000 		sts (weeklySeconds)+2,__zero_reg__
 1474 08ca 1092 0000 		sts (weeklySeconds)+3,__zero_reg__
 1475 08ce E0E0      		ldi r30,lo8(switchStatus)
 1476 08d0 F0E0      		ldi r31,hi8(switchStatus)
 1477               	.L92:
 1478               	.LM200:
 1479 08d2 8081      		ld r24,Z
 1480 08d4 9181      		ldd r25,Z+1
 1481 08d6 A281      		ldd r26,Z+2
 1482 08d8 B381      		ldd r27,Z+3
 1483 08da 8038      		cpi r24,lo8(604800)
 1484 08dc 2AE3      		ldi r18,hi8(604800)
 1485 08de 9207      		cpc r25,r18
 1486 08e0 29E0      		ldi r18,hlo8(604800)
 1487 08e2 A207      		cpc r26,r18
 1488 08e4 20E0      		ldi r18,hhi8(604800)
 1489 08e6 B207      		cpc r27,r18
 1490 08e8 00F0      		brlo .L91
 1491               	.LM201:
 1492 08ea 8058      		subi r24,lo8(-(-604800))
 1493 08ec 9A43      		sbci r25,hi8(-(-604800))
 1494 08ee A940      		sbci r26,hlo8(-(-604800))
 1495 08f0 B040      		sbci r27,hhi8(-(-604800))
 1496 08f2 8083      		st Z,r24
 1497 08f4 9183      		std Z+1,r25
 1498 08f6 A283      		std Z+2,r26
 1499 08f8 B383      		std Z+3,r27
 1500               	.L91:
 1501 08fa 3496      		adiw r30,4
 1502               	.LM202:
 1503 08fc 80E0      		ldi r24,hi8(switchStatus+64)
 1504 08fe E030      		cpi r30,lo8(switchStatus+64)
 1505 0900 F807      		cpc r31,r24
 1506 0902 01F4      		brne .L92
 1507               	.L90:
 1508               	.LM203:
 1509 0904 4091 0000 		lds r20,globalDay
 1510 0908 5091 0000 		lds r21,(globalDay)+1
 1511 090c 4F5F      		subi r20,lo8(-(1))
 1512 090e 5F4F      		sbci r21,hi8(-(1))
 1513 0910 5093 0000 		sts (globalDay)+1,r21
 1514 0914 4093 0000 		sts globalDay,r20
 1515               	.LM204:
 1516 0918 4D31      		cpi r20,29
 1517 091a 5105      		cpc r21,__zero_reg__
 1518 091c 00F4      		brsh .+2
 1519 091e 00C0      		rjmp .L101
 1520               	.LM205:
 1521 0920 2091 0000 		lds r18,globalMonth
 1522 0924 3091 0000 		lds r19,(globalMonth)+1
 1523 0928 2630      		cpi r18,6
 1524 092a 3105      		cpc r19,__zero_reg__
 1525 092c 01F0      		breq .L96
 1526 092e 2730      		cpi r18,7
 1527 0930 3105      		cpc r19,__zero_reg__
 1528 0932 00F4      		brsh .L98
 1529 0934 2330      		cpi r18,3
 1530 0936 3105      		cpc r19,__zero_reg__
 1531 0938 01F0      		breq .L94
 1532 093a 2430      		cpi r18,4
 1533 093c 3105      		cpc r19,__zero_reg__
 1534 093e 00F4      		brsh .L99
 1535 0940 2130      		cpi r18,1
 1536 0942 3105      		cpc r19,__zero_reg__
 1537 0944 01F0      		breq .L94
 1538 0946 2230      		cpi r18,2
 1539 0948 3105      		cpc r19,__zero_reg__
 1540 094a 01F0      		breq .+2
 1541 094c 00C0      		rjmp .L101
 1542 094e 00C0      		rjmp .L104
 1543               	.L99:
 1544 0950 2430      		cpi r18,4
 1545 0952 3105      		cpc r19,__zero_reg__
 1546 0954 01F0      		breq .L96
 1547 0956 2530      		cpi r18,5
 1548 0958 3105      		cpc r19,__zero_reg__
 1549 095a 01F0      		breq .+2
 1550 095c 00C0      		rjmp .L101
 1551 095e 00C0      		rjmp .L94
 1552               	.L98:
 1553 0960 2930      		cpi r18,9
 1554 0962 3105      		cpc r19,__zero_reg__
 1555 0964 01F0      		breq .L96
 1556 0966 2930      		cpi r18,9
 1557 0968 3105      		cpc r19,__zero_reg__
 1558 096a 00F0      		brlo .L94
 1559 096c 2B30      		cpi r18,11
 1560 096e 3105      		cpc r19,__zero_reg__
 1561 0970 01F0      		breq .L96
 1562 0972 2B30      		cpi r18,11
 1563 0974 3105      		cpc r19,__zero_reg__
 1564 0976 00F0      		brlo .L94
 1565 0978 2C30      		cpi r18,12
 1566 097a 3105      		cpc r19,__zero_reg__
 1567 097c 01F0      		breq .+2
 1568 097e 00C0      		rjmp .L101
 1569 0980 00C0      		rjmp .L105
 1570               	.L96:
 1571               	.LM206:
 1572 0982 4F31      		cpi r20,31
 1573 0984 5105      		cpc r21,__zero_reg__
 1574 0986 00F4      		brsh .+2
 1575 0988 00C0      		rjmp .L101
 1576 098a 00C0      		rjmp .L103
 1577               	.L94:
 1578               	.LM207:
 1579 098c 4032      		cpi r20,32
 1580 098e 5105      		cpc r21,__zero_reg__
 1581 0990 00F4      		brsh .+2
 1582 0992 00C0      		rjmp .L101
 1583               	.L103:
 1584               	.LM208:
 1585 0994 81E0      		ldi r24,lo8(1)
 1586 0996 90E0      		ldi r25,hi8(1)
 1587 0998 9093 0000 		sts (globalDay)+1,r25
 1588 099c 8093 0000 		sts globalDay,r24
 1589               	.LM209:
 1590 09a0 2F5F      		subi r18,lo8(-(1))
 1591 09a2 3F4F      		sbci r19,hi8(-(1))
 1592 09a4 3093 0000 		sts (globalMonth)+1,r19
 1593 09a8 2093 0000 		sts globalMonth,r18
 1594 09ac 0895      		ret
 1595               	.L105:
 1596               	.LM210:
 1597 09ae 4032      		cpi r20,32
 1598 09b0 5105      		cpc r21,__zero_reg__
 1599 09b2 00F0      		brlo .L101
 1600               	.LM211:
 1601 09b4 81E0      		ldi r24,lo8(1)
 1602 09b6 90E0      		ldi r25,hi8(1)
 1603 09b8 9093 0000 		sts (globalDay)+1,r25
 1604 09bc 8093 0000 		sts globalDay,r24
 1605               	.LM212:
 1606 09c0 9093 0000 		sts (globalMonth)+1,r25
 1607 09c4 8093 0000 		sts globalMonth,r24
 1608               	.LM213:
 1609 09c8 8091 0000 		lds r24,globalYear
 1610 09cc 9091 0000 		lds r25,(globalYear)+1
 1611 09d0 0196      		adiw r24,1
 1612 09d2 9093 0000 		sts (globalYear)+1,r25
 1613 09d6 8093 0000 		sts globalYear,r24
 1614 09da 0895      		ret
 1615               	.L104:
 1616               	.LM214:
 1617 09dc 8091 0000 		lds r24,globalYear
 1618 09e0 9091 0000 		lds r25,(globalYear)+1
 1619 09e4 8370      		andi r24,lo8(3)
 1620 09e6 9070      		andi r25,hi8(3)
 1621 09e8 892B      		or r24,r25
 1622 09ea 01F4      		brne .L100
 1623               	.LM215:
 1624 09ec 4D31      		cpi r20,29
 1625 09ee 5105      		cpc r21,__zero_reg__
 1626 09f0 01F0      		breq .L101
 1627               	.LM216:
 1628 09f2 81E0      		ldi r24,lo8(1)
 1629 09f4 90E0      		ldi r25,hi8(1)
 1630 09f6 9093 0000 		sts (globalDay)+1,r25
 1631 09fa 8093 0000 		sts globalDay,r24
 1632               	.LM217:
 1633 09fe 83E0      		ldi r24,lo8(3)
 1634 0a00 90E0      		ldi r25,hi8(3)
 1635 0a02 9093 0000 		sts (globalMonth)+1,r25
 1636 0a06 8093 0000 		sts globalMonth,r24
 1637 0a0a 0895      		ret
 1638               	.L100:
 1639               	.LM218:
 1640 0a0c 81E0      		ldi r24,lo8(1)
 1641 0a0e 90E0      		ldi r25,hi8(1)
 1642 0a10 9093 0000 		sts (globalDay)+1,r25
 1643 0a14 8093 0000 		sts globalDay,r24
 1644               	.LM219:
 1645 0a18 83E0      		ldi r24,lo8(3)
 1646 0a1a 90E0      		ldi r25,hi8(3)
 1647 0a1c 9093 0000 		sts (globalMonth)+1,r25
 1648 0a20 8093 0000 		sts globalMonth,r24
 1649               	.L101:
 1650 0a24 0895      		ret
 1651               	.LFE58:
 1653               	.global	timerCheck
 1655               	timerCheck:
 1656               	.LFB59:
 1657               	.LM220:
 1658 0a26 4F92      		push r4
 1659 0a28 5F92      		push r5
 1660 0a2a 6F92      		push r6
 1661 0a2c 7F92      		push r7
 1662 0a2e 8F92      		push r8
 1663 0a30 9F92      		push r9
 1664 0a32 AF92      		push r10
 1665 0a34 BF92      		push r11
 1666 0a36 CF92      		push r12
 1667 0a38 DF92      		push r13
 1668 0a3a EF92      		push r14
 1669 0a3c FF92      		push r15
 1670 0a3e 0F93      		push r16
 1671 0a40 1F93      		push r17
 1672 0a42 CF93      		push r28
 1673 0a44 DF93      		push r29
 1674               	/* prologue: function */
 1675               	/* frame size = 0 */
 1676               	.LM221:
 1677 0a46 C090 0000 		lds r12,weeklySeconds
 1678 0a4a D090 0000 		lds r13,(weeklySeconds)+1
 1679 0a4e E090 0000 		lds r14,(weeklySeconds)+2
 1680 0a52 F090 0000 		lds r15,(weeklySeconds)+3
 1681 0a56 2091 0000 		lds r18,switchChanged
 1682 0a5a E0E0      		ldi r30,lo8(switchStatus)
 1683 0a5c F0E0      		ldi r31,hi8(switchStatus)
 1684               	.L108:
 1685 0a5e 8081      		ld r24,Z
 1686 0a60 9181      		ldd r25,Z+1
 1687 0a62 A281      		ldd r26,Z+2
 1688 0a64 B381      		ldd r27,Z+3
 1689 0a66 0097      		sbiw r24,0
 1690 0a68 A105      		cpc r26,__zero_reg__
 1691 0a6a B105      		cpc r27,__zero_reg__
 1692 0a6c 01F0      		breq .L107
 1693 0a6e 8C15      		cp r24,r12
 1694 0a70 9D05      		cpc r25,r13
 1695 0a72 AE05      		cpc r26,r14
 1696 0a74 BF05      		cpc r27,r15
 1697 0a76 00F4      		brsh .L107
 1698               	.LM222:
 1699 0a78 1082      		st Z,__zero_reg__
 1700 0a7a 1182      		std Z+1,__zero_reg__
 1701 0a7c 1282      		std Z+2,__zero_reg__
 1702 0a7e 1382      		std Z+3,__zero_reg__
 1703 0a80 21E0      		ldi r18,lo8(1)
 1704               	.L107:
 1705 0a82 3496      		adiw r30,4
 1706               	.LM223:
 1707 0a84 80E0      		ldi r24,hi8(switchStatus+64)
 1708 0a86 E030      		cpi r30,lo8(switchStatus+64)
 1709 0a88 F807      		cpc r31,r24
 1710 0a8a 01F4      		brne .L108
 1711 0a8c 2093 0000 		sts switchChanged,r18
 1712               	.LM224:
 1713 0a90 6091 0000 		lds r22,dow
 1714 0a94 7091 0000 		lds r23,(dow)+1
 1715 0a98 F0E4      		ldi r31,lo8(64)
 1716 0a9a 8F2E      		mov r8,r31
 1717 0a9c 912C      		mov r9,__zero_reg__
 1718               	.LVL112:
 1719 0a9e 062E      		mov r0,r22
 1720 0aa0 00C0      		rjmp 2f
 1721 0aa2 9594      	1:	asr r9
 1722 0aa4 8794      		ror r8
 1723 0aa6 0A94      	2:	dec r0
 1724 0aa8 02F4      		brpl 1b
 1725               	.LM225:
 1726 0aaa 80E0      		ldi r24,lo8(0)
 1727 0aac 90E0      		ldi r25,hi8(0)
 1728 0aae 20E8      		ldi r18,lo8(86400)
 1729 0ab0 31E5      		ldi r19,hi8(86400)
 1730 0ab2 41E0      		ldi r20,hlo8(86400)
 1731 0ab4 50E0      		ldi r21,hhi8(86400)
 1732 0ab6 0E94 0000 		call __mulsi3
 1733 0aba 2B01      		movw r4,r22
 1734 0abc 3C01      		movw r6,r24
 1735 0abe C0E0      		ldi r28,lo8(weeklyProgram)
 1736 0ac0 D0E0      		ldi r29,hi8(weeklyProgram)
 1737 0ac2 AA24      		clr r10
 1738 0ac4 BB24      		clr r11
 1739               	.LVL113:
 1740               	.L110:
 1741               	.LM226:
 1742 0ac6 8881      		ld r24,Y
 1743 0ac8 8F3F      		cpi r24,lo8(-1)
 1744 0aca 01F4      		brne .+2
 1745 0acc 00C0      		rjmp .L109
 1746 0ace 6981      		ldd r22,Y+1
 1747 0ad0 6F3F      		cpi r22,lo8(-1)
 1748 0ad2 01F0      		breq .L109
 1749               	.LM227:
 1750 0ad4 90E0      		ldi r25,lo8(0)
 1751 0ad6 8821      		and r24,r8
 1752 0ad8 9921      		and r25,r9
 1753 0ada 892B      		or r24,r25
 1754 0adc 01F0      		breq .L109
 1755               	.LM228:
 1756 0ade 70E0      		ldi r23,lo8(0)
 1757 0ae0 80E0      		ldi r24,lo8(0)
 1758 0ae2 90E0      		ldi r25,hi8(0)
 1759               	.LVL114:
 1760               	.LM229:
 1761 0ae4 982F      		mov r25,r24
 1762 0ae6 872F      		mov r24,r23
 1763 0ae8 762F      		mov r23,r22
 1764 0aea 6627      		clr r22
 1765               	.LVL115:
 1766               	.LM230:
 1767 0aec 2A81      		ldd r18,Y+2
 1768 0aee 30E0      		ldi r19,lo8(0)
 1769 0af0 40E0      		ldi r20,lo8(0)
 1770 0af2 50E0      		ldi r21,hi8(0)
 1771 0af4 622B      		or r22,r18
 1772 0af6 732B      		or r23,r19
 1773 0af8 842B      		or r24,r20
 1774 0afa 952B      		or r25,r21
 1775               	.LM231:
 1776 0afc 2CE3      		ldi r18,lo8(60)
 1777 0afe 30E0      		ldi r19,hi8(60)
 1778 0b00 40E0      		ldi r20,hlo8(60)
 1779 0b02 50E0      		ldi r21,hhi8(60)
 1780 0b04 0E94 0000 		call __mulsi3
 1781               	.LVL116:
 1782 0b08 9B01      		movw r18,r22
 1783 0b0a AC01      		movw r20,r24
 1784               	.LVL117:
 1785               	.LM232:
 1786 0b0c 6B81      		ldd r22,Y+3
 1787               	.LM233:
 1788 0b0e 8C81      		ldd r24,Y+4
 1789               	.LVL118:
 1790               	.LM234:
 1791 0b10 240D      		add r18,r4
 1792 0b12 351D      		adc r19,r5
 1793 0b14 461D      		adc r20,r6
 1794 0b16 571D      		adc r21,r7
 1795               	.LM235:
 1796 0b18 C216      		cp r12,r18
 1797 0b1a D306      		cpc r13,r19
 1798 0b1c E406      		cpc r14,r20
 1799 0b1e F506      		cpc r15,r21
 1800 0b20 00F0      		brlo .L109
 1801               	.LM236:
 1802 0b22 162F      		mov r17,r22
 1803 0b24 00E0      		ldi r16,lo8(0)
 1804               	.LM237:
 1805 0b26 90E0      		ldi r25,lo8(0)
 1806 0b28 802B      		or r24,r16
 1807 0b2a 912B      		or r25,r17
 1808 0b2c AA27      		clr r26
 1809 0b2e 97FD      		sbrc r25,7
 1810 0b30 A095      		com r26
 1811 0b32 BA2F      		mov r27,r26
 1812 0b34 820F      		add r24,r18
 1813 0b36 931F      		adc r25,r19
 1814 0b38 A41F      		adc r26,r20
 1815 0b3a B51F      		adc r27,r21
 1816 0b3c C816      		cp r12,r24
 1817 0b3e D906      		cpc r13,r25
 1818 0b40 EA06      		cpc r14,r26
 1819 0b42 FB06      		cpc r15,r27
 1820 0b44 00F4      		brsh .L109
 1821               	.LM238:
 1822 0b46 C501      		movw r24,r10
 1823 0b48 60E0      		ldi r22,lo8(0)
 1824 0b4a 70E0      		ldi r23,hi8(0)
 1825 0b4c 0E94 0000 		call startTheProgram
 1826               	.LVL119:
 1827               	.L109:
 1828               	.LM239:
 1829 0b50 0894      		sec
 1830 0b52 A11C      		adc r10,__zero_reg__
 1831 0b54 B11C      		adc r11,__zero_reg__
 1832 0b56 2A96      		adiw r28,10
 1833 0b58 84E1      		ldi r24,lo8(20)
 1834 0b5a A816      		cp r10,r24
 1835 0b5c B104      		cpc r11,__zero_reg__
 1836 0b5e 01F0      		breq .+2
 1837 0b60 00C0      		rjmp .L110
 1838               	/* epilogue start */
 1839               	.LM240:
 1840 0b62 DF91      		pop r29
 1841 0b64 CF91      		pop r28
 1842 0b66 1F91      		pop r17
 1843               	.LVL120:
 1844 0b68 0F91      		pop r16
 1845               	.LVL121:
 1846 0b6a FF90      		pop r15
 1847 0b6c EF90      		pop r14
 1848 0b6e DF90      		pop r13
 1849 0b70 CF90      		pop r12
 1850 0b72 BF90      		pop r11
 1851 0b74 AF90      		pop r10
 1852               	.LVL122:
 1853 0b76 9F90      		pop r9
 1854 0b78 8F90      		pop r8
 1855               	.LVL123:
 1856 0b7a 7F90      		pop r7
 1857 0b7c 6F90      		pop r6
 1858 0b7e 5F90      		pop r5
 1859 0b80 4F90      		pop r4
 1860 0b82 0895      		ret
 1861               	.LFE59:
 1863               	.global	switchOnOff
 1865               	switchOnOff:
 1866               	.LFB60:
 1867               	.LM241:
 1868 0b84 2F92      		push r2
 1869 0b86 3F92      		push r3
 1870 0b88 4F92      		push r4
 1871 0b8a 5F92      		push r5
 1872 0b8c 6F92      		push r6
 1873 0b8e 7F92      		push r7
 1874 0b90 8F92      		push r8
 1875 0b92 9F92      		push r9
 1876 0b94 AF92      		push r10
 1877 0b96 BF92      		push r11
 1878 0b98 CF92      		push r12
 1879 0b9a DF92      		push r13
 1880 0b9c EF92      		push r14
 1881 0b9e FF92      		push r15
 1882 0ba0 0F93      		push r16
 1883 0ba2 1F93      		push r17
 1884 0ba4 DF93      		push r29
 1885 0ba6 CF93      		push r28
 1886 0ba8 CDB7      		in r28,__SP_L__
 1887 0baa DEB7      		in r29,__SP_H__
 1888 0bac 6097      		sbiw r28,16
 1889 0bae 0FB6      		in __tmp_reg__,__SREG__
 1890 0bb0 F894      		cli
 1891 0bb2 DEBF      		out __SP_H__,r29
 1892 0bb4 0FBE      		out __SREG__,__tmp_reg__
 1893 0bb6 CDBF      		out __SP_L__,r28
 1894               	/* prologue: function */
 1895               	/* frame size = 16 */
 1896               	.LM242:
 1897 0bb8 2091 0000 		lds r18,oldBright
 1898 0bbc 288B      		std Y+16,r18
 1899               	.LM243:
 1900 0bbe 8091 0000 		lds r24,immediateChange
 1901 0bc2 9091 0000 		lds r25,(immediateChange)+1
 1902 0bc6 A091 0000 		lds r26,(immediateChange)+2
 1903 0bca B091 0000 		lds r27,(immediateChange)+3
 1904 0bce 8C87      		std Y+12,r24
 1905 0bd0 9D87      		std Y+13,r25
 1906 0bd2 AE87      		std Y+14,r26
 1907 0bd4 BF87      		std Y+15,r27
 1908               	.LM244:
 1909 0bd6 8091 0000 		lds r24,pwmValues
 1910 0bda A82F      		mov r26,r24
 1911 0bdc B0E0      		ldi r27,lo8(0)
 1912 0bde BB87      		std Y+11,r27
 1913 0be0 AA87      		std Y+10,r26
 1914               	.LM245:
 1915 0be2 8091 0000 		lds r24,pwmValues+1
 1916 0be6 E82F      		mov r30,r24
 1917 0be8 F0E0      		ldi r31,lo8(0)
 1918 0bea F987      		std Y+9,r31
 1919 0bec E887      		std Y+8,r30
 1920               	.LM246:
 1921 0bee 8091 0000 		lds r24,pwmValues+2
 1922 0bf2 282F      		mov r18,r24
 1923 0bf4 30E0      		ldi r19,lo8(0)
 1924 0bf6 3F83      		std Y+7,r19
 1925 0bf8 2E83      		std Y+6,r18
 1926 0bfa A090 0000 		lds r10,blue
 1927 0bfe B090 0000 		lds r11,(blue)+1
 1928 0c02 8090 0000 		lds r8,green
 1929 0c06 9090 0000 		lds r9,(green)+1
 1930 0c0a 6090 0000 		lds r6,red
 1931 0c0e 7090 0000 		lds r7,(red)+1
 1932 0c12 E090 0000 		lds r14,bright
 1933 0c16 F090 0000 		lds r15,(bright)+1
 1934 0c1a 3091 0000 		lds r19,runColorChanges
 1935 0c1e 3D83      		std Y+5,r19
 1936 0c20 8091 0000 		lds r24,runHue
 1937 0c24 8C83      		std Y+4,r24
 1938 0c26 20E0      		ldi r18,lo8(switchStatus)
 1939 0c28 422E      		mov r4,r18
 1940 0c2a 20E0      		ldi r18,hi8(switchStatus)
 1941 0c2c 522E      		mov r5,r18
 1942 0c2e CC24      		clr r12
 1943 0c30 DD24      		clr r13
 1944               	.LVL124:
 1945 0c32 00E0      		ldi r16,lo8(0)
 1946 0c34 10E0      		ldi r17,hi8(0)
 1947               	.LVL125:
 1948               	.LM247:
 1949 0c36 91E0      		ldi r25,lo8(1)
 1950 0c38 292E      		mov r2,r25
 1951 0c3a 312C      		mov r3,__zero_reg__
 1952               	.L130:
 1953               	.LM248:
 1954 0c3c F601      		movw r30,r12
 1955 0c3e E050      		subi r30,lo8(-(switchStuff))
 1956 0c40 F040      		sbci r31,hi8(-(switchStuff))
 1957 0c42 E081      		ld r30,Z
 1958 0c44 EF3F      		cpi r30,lo8(-1)
 1959 0c46 01F4      		brne .+2
 1960 0c48 00C0      		rjmp .L115
 1961               	.LM249:
 1962 0c4a 8E2F      		mov r24,r30
 1963 0c4c 885C      		subi r24,lo8(-(56))
 1964 0c4e 8531      		cpi r24,lo8(21)
 1965 0c50 00F0      		brlo .+2
 1966 0c52 00C0      		rjmp .L116
 1967               	.LM250:
 1968 0c54 D201      		movw r26,r4
 1969 0c56 2D91      		ld r18,X+
 1970 0c58 3D91      		ld r19,X+
 1971 0c5a 4D91      		ld r20,X+
 1972 0c5c 5C91      		ld r21,X
 1973 0c5e 2115      		cp r18,__zero_reg__
 1974 0c60 3105      		cpc r19,__zero_reg__
 1975 0c62 4105      		cpc r20,__zero_reg__
 1976 0c64 5105      		cpc r21,__zero_reg__
 1977 0c66 01F4      		brne .L117
 1978               	.LM251:
 1979 0c68 E83C      		cpi r30,lo8(-56)
 1980 0c6a 01F4      		brne .L118
 1981               	.LM252:
 1982 0c6c 1092 B400 		sts 180,__zero_reg__
 1983               	.LM253:
 1984 0c70 18BC      		out 72-32,__zero_reg__
 1985               	.LM254:
 1986 0c72 17BC      		out 71-32,__zero_reg__
 1987 0c74 00C0      		rjmp .L115
 1988               	.L118:
 1989               	.LM255:
 1990 0c76 E93C      		cpi r30,lo8(-55)
 1991 0c78 01F4      		brne .L119
 1992               	.LM256:
 1993 0c7a 1092 B400 		sts 180,__zero_reg__
 1994               	.LM257:
 1995 0c7e 18BC      		out 72-32,__zero_reg__
 1996               	.LM258:
 1997 0c80 17BC      		out 71-32,__zero_reg__
 1998 0c82 1C82      		std Y+4,__zero_reg__
 1999 0c84 00C0      		rjmp .L115
 2000               	.L119:
 2001               	.LM259:
 2002 0c86 EA3C      		cpi r30,lo8(-54)
 2003 0c88 01F4      		brne .L120
 2004               	.LM260:
 2005 0c8a 1092 B400 		sts 180,__zero_reg__
 2006               	.LM261:
 2007 0c8e 18BC      		out 72-32,__zero_reg__
 2008               	.LM262:
 2009 0c90 17BC      		out 71-32,__zero_reg__
 2010 0c92 1D82      		std Y+5,__zero_reg__
 2011 0c94 00C0      		rjmp .L115
 2012               	.L120:
 2013               	.LM263:
 2014 0c96 E43D      		cpi r30,lo8(-44)
 2015 0c98 01F0      		breq .+2
 2016 0c9a 00C0      		rjmp .L115
 2017 0c9c 8889      		ldd r24,Y+16
 2018 0c9e 90E0      		ldi r25,lo8(0)
 2019 0ca0 9C01      		movw r18,r24
 2020 0ca2 7901      		movw r14,r18
 2021 0ca4 00C0      		rjmp .L115
 2022               	.L117:
 2023               	.LM264:
 2024 0ca6 8C85      		ldd r24,Y+12
 2025 0ca8 9D85      		ldd r25,Y+13
 2026 0caa AE85      		ldd r26,Y+14
 2027 0cac BF85      		ldd r27,Y+15
 2028 0cae 0097      		sbiw r24,0
 2029 0cb0 A105      		cpc r26,__zero_reg__
 2030 0cb2 B105      		cpc r27,__zero_reg__
 2031 0cb4 01F0      		breq .+2
 2032 0cb6 00C0      		rjmp .L115
 2033               	.LM265:
 2034 0cb8 E83C      		cpi r30,lo8(-56)
 2035 0cba 01F4      		brne .L121
 2036               	.LM266:
 2037 0cbc AA85      		ldd r26,Y+10
 2038 0cbe BB85      		ldd r27,Y+11
 2039 0cc0 EA9E      		mul r14,r26
 2040 0cc2 3001      		movw r6,r0
 2041 0cc4 EB9E      		mul r14,r27
 2042 0cc6 700C      		add r7,r0
 2043 0cc8 FA9E      		mul r15,r26
 2044 0cca 700C      		add r7,r0
 2045 0ccc 1124      		clr r1
 2046 0cce 84E0      		ldi r24,4
 2047 0cd0 7694      	1:	lsr r7
 2048 0cd2 6794      		ror r6
 2049 0cd4 8A95      		dec r24
 2050 0cd6 01F4      		brne 1b
 2051               	.LM267:
 2052 0cd8 E885      		ldd r30,Y+8
 2053 0cda F985      		ldd r31,Y+9
 2054 0cdc EE9E      		mul r14,r30
 2055 0cde 4001      		movw r8,r0
 2056 0ce0 EF9E      		mul r14,r31
 2057 0ce2 900C      		add r9,r0
 2058 0ce4 FE9E      		mul r15,r30
 2059 0ce6 900C      		add r9,r0
 2060 0ce8 1124      		clr r1
 2061 0cea B4E0      		ldi r27,4
 2062 0cec 9694      	1:	lsr r9
 2063 0cee 8794      		ror r8
 2064 0cf0 BA95      		dec r27
 2065 0cf2 01F4      		brne 1b
 2066               	.LM268:
 2067 0cf4 2E81      		ldd r18,Y+6
 2068 0cf6 3F81      		ldd r19,Y+7
 2069 0cf8 E29E      		mul r14,r18
 2070 0cfa 5001      		movw r10,r0
 2071 0cfc E39E      		mul r14,r19
 2072 0cfe B00C      		add r11,r0
 2073 0d00 F29E      		mul r15,r18
 2074 0d02 B00C      		add r11,r0
 2075 0d04 1124      		clr r1
 2076 0d06 A4E0      		ldi r26,4
 2077 0d08 B694      	1:	lsr r11
 2078 0d0a A794      		ror r10
 2079 0d0c AA95      		dec r26
 2080 0d0e 01F4      		brne 1b
 2081               	.LM269:
 2082 0d10 6092 B400 		sts 180,r6
 2083               	.LM270:
 2084 0d14 88BC      		out 72-32,r8
 2085               	.LM271:
 2086 0d16 A7BC      		out 71-32,r10
 2087 0d18 00C0      		rjmp .L115
 2088               	.L121:
 2089               	.LM272:
 2090 0d1a EA3C      		cpi r30,lo8(-54)
 2091 0d1c 01F4      		brne .L122
 2092 0d1e 31E0      		ldi r19,lo8(1)
 2093 0d20 3D83      		std Y+5,r19
 2094 0d22 00C0      		rjmp .L115
 2095               	.L122:
 2096               	.LM273:
 2097 0d24 E43D      		cpi r30,lo8(-44)
 2098 0d26 01F0      		breq .L123
 2099 0d28 81E0      		ldi r24,lo8(1)
 2100 0d2a 8C83      		std Y+4,r24
 2101 0d2c 00C0      		rjmp .L115
 2102               	.L123:
 2103               	.LM274:
 2104 0d2e F601      		movw r30,r12
 2105 0d30 E050      		subi r30,lo8(-(switchBright))
 2106 0d32 F040      		sbci r31,hi8(-(switchBright))
 2107 0d34 8081      		ld r24,Z
 2108 0d36 E82E      		mov r14,r24
 2109 0d38 FF24      		clr r15
 2110 0d3a 00C0      		rjmp .L115
 2111               	.L116:
 2112               	.LM275:
 2113 0d3c C601      		movw r24,r12
 2114 0d3e BE01      		movw r22,r28
 2115 0d40 6F5F      		subi r22,lo8(-(1))
 2116 0d42 7F4F      		sbci r23,hi8(-(1))
 2117 0d44 AE01      		movw r20,r28
 2118 0d46 4E5F      		subi r20,lo8(-(2))
 2119 0d48 5F4F      		sbci r21,hi8(-(2))
 2120 0d4a 9E01      		movw r18,r28
 2121 0d4c 2D5F      		subi r18,lo8(-(3))
 2122 0d4e 3F4F      		sbci r19,hi8(-(3))
 2123 0d50 0E94 0000 		call getPort
 2124               	.LM276:
 2125 0d54 3A81      		ldd r19,Y+2
 2126               	.LVL126:
 2127               	.LM277:
 2128 0d56 8981      		ldd r24,Y+1
 2129 0d58 8234      		cpi r24,lo8(66)
 2130 0d5a 01F4      		brne .L124
 2131 0d5c 05E2      		ldi r16,lo8(37)
 2132 0d5e 10E0      		ldi r17,hi8(37)
 2133 0d60 00C0      		rjmp .L125
 2134               	.L124:
 2135               	.LM278:
 2136 0d62 8334      		cpi r24,lo8(67)
 2137 0d64 01F4      		brne .L126
 2138 0d66 08E2      		ldi r16,lo8(40)
 2139 0d68 10E0      		ldi r17,hi8(40)
 2140 0d6a 00C0      		rjmp .L125
 2141               	.L126:
 2142               	.LM279:
 2143 0d6c 8434      		cpi r24,lo8(68)
 2144 0d6e 01F4      		brne .L125
 2145 0d70 0BE2      		ldi r16,lo8(43)
 2146 0d72 10E0      		ldi r17,hi8(43)
 2147               	.L125:
 2148               	.LM280:
 2149 0d74 F201      		movw r30,r4
 2150 0d76 8081      		ld r24,Z
 2151 0d78 9181      		ldd r25,Z+1
 2152 0d7a A281      		ldd r26,Z+2
 2153 0d7c B381      		ldd r27,Z+3
 2154 0d7e 2B81      		ldd r18,Y+3
 2155 0d80 0097      		sbiw r24,0
 2156 0d82 A105      		cpc r26,__zero_reg__
 2157 0d84 B105      		cpc r27,__zero_reg__
 2158 0d86 01F4      		brne .L127
 2159               	.LM281:
 2160 0d88 2223      		tst r18
 2161 0d8a 01F4      		brne .L128
 2162               	.LM282:
 2163 0d8c D801      		movw r26,r16
 2164 0d8e 2C91      		ld r18,X
 2165 0d90 C101      		movw r24,r2
 2166 0d92 00C0      		rjmp 2f
 2167 0d94 880F      	1:	lsl r24
 2168 0d96 991F      		rol r25
 2169 0d98 3A95      	2:	dec r19
 2170 0d9a 02F4      		brpl 1b
 2171 0d9c 282B      		or r18,r24
 2172 0d9e 00C0      		rjmp .L133
 2173               	.L128:
 2174               	.LM283:
 2175 0da0 F801      		movw r30,r16
 2176 0da2 2081      		ld r18,Z
 2177 0da4 C101      		movw r24,r2
 2178 0da6 00C0      		rjmp 2f
 2179 0da8 880F      	1:	lsl r24
 2180 0daa 991F      		rol r25
 2181 0dac 3A95      	2:	dec r19
 2182 0dae 02F4      		brpl 1b
 2183 0db0 8095      		com r24
 2184 0db2 2823      		and r18,r24
 2185 0db4 00C0      		rjmp .L134
 2186               	.L127:
 2187               	.LM284:
 2188 0db6 2223      		tst r18
 2189 0db8 01F4      		brne .L129
 2190               	.LM285:
 2191 0dba D801      		movw r26,r16
 2192 0dbc 2C91      		ld r18,X
 2193 0dbe C101      		movw r24,r2
 2194 0dc0 00C0      		rjmp 2f
 2195 0dc2 880F      	1:	lsl r24
 2196 0dc4 991F      		rol r25
 2197 0dc6 3A95      	2:	dec r19
 2198 0dc8 02F4      		brpl 1b
 2199 0dca 8095      		com r24
 2200 0dcc 2823      		and r18,r24
 2201               	.L133:
 2202 0dce 2C93      		st X,r18
 2203 0dd0 00C0      		rjmp .L115
 2204               	.L129:
 2205               	.LM286:
 2206 0dd2 F801      		movw r30,r16
 2207 0dd4 2081      		ld r18,Z
 2208 0dd6 C101      		movw r24,r2
 2209 0dd8 00C0      		rjmp 2f
 2210 0dda 880F      	1:	lsl r24
 2211 0ddc 991F      		rol r25
 2212 0dde 3A95      	2:	dec r19
 2213 0de0 02F4      		brpl 1b
 2214 0de2 282B      		or r18,r24
 2215               	.L134:
 2216 0de4 2083      		st Z,r18
 2217               	.L115:
 2218               	.LM287:
 2219 0de6 0894      		sec
 2220 0de8 C11C      		adc r12,__zero_reg__
 2221 0dea D11C      		adc r13,__zero_reg__
 2222 0dec 24E0      		ldi r18,lo8(4)
 2223 0dee 30E0      		ldi r19,hi8(4)
 2224 0df0 420E      		add r4,r18
 2225 0df2 531E      		adc r5,r19
 2226 0df4 30E1      		ldi r19,lo8(16)
 2227 0df6 C316      		cp r12,r19
 2228 0df8 D104      		cpc r13,__zero_reg__
 2229               	.LVL127:
 2230 0dfa 01F0      		breq .+2
 2231 0dfc 00C0      		rjmp .L130
 2232 0dfe B092 0000 		sts (blue)+1,r11
 2233 0e02 A092 0000 		sts blue,r10
 2234 0e06 9092 0000 		sts (green)+1,r9
 2235 0e0a 8092 0000 		sts green,r8
 2236 0e0e 7092 0000 		sts (red)+1,r7
 2237 0e12 6092 0000 		sts red,r6
 2238 0e16 F092 0000 		sts (bright)+1,r15
 2239 0e1a E092 0000 		sts bright,r14
 2240 0e1e 8D81      		ldd r24,Y+5
 2241 0e20 8093 0000 		sts runColorChanges,r24
 2242 0e24 9C81      		ldd r25,Y+4
 2243 0e26 9093 0000 		sts runHue,r25
 2244               	/* epilogue start */
 2245               	.LM288:
 2246 0e2a 6096      		adiw r28,16
 2247 0e2c 0FB6      		in __tmp_reg__,__SREG__
 2248 0e2e F894      		cli
 2249 0e30 DEBF      		out __SP_H__,r29
 2250 0e32 0FBE      		out __SREG__,__tmp_reg__
 2251 0e34 CDBF      		out __SP_L__,r28
 2252 0e36 CF91      		pop r28
 2253 0e38 DF91      		pop r29
 2254 0e3a 1F91      		pop r17
 2255 0e3c 0F91      		pop r16
 2256               	.LVL128:
 2257 0e3e FF90      		pop r15
 2258 0e40 EF90      		pop r14
 2259 0e42 DF90      		pop r13
 2260 0e44 CF90      		pop r12
 2261               	.LVL129:
 2262 0e46 BF90      		pop r11
 2263 0e48 AF90      		pop r10
 2264 0e4a 9F90      		pop r9
 2265 0e4c 8F90      		pop r8
 2266 0e4e 7F90      		pop r7
 2267 0e50 6F90      		pop r6
 2268 0e52 5F90      		pop r5
 2269 0e54 4F90      		pop r4
 2270 0e56 3F90      		pop r3
 2271 0e58 2F90      		pop r2
 2272 0e5a 0895      		ret
 2273               	.LFE60:
 2275               	.global	formatAddress
 2277               	formatAddress:
 2278               	.LFB74:
 2279               	.LM289:
 2280               	.LVL130:
 2281 0e5c EF92      		push r14
 2282 0e5e FF92      		push r15
 2283 0e60 0F93      		push r16
 2284 0e62 CF93      		push r28
 2285 0e64 DF93      		push r29
 2286               	/* prologue: function */
 2287               	/* frame size = 0 */
 2288 0e66 7C01      		movw r14,r24
 2289               	.LM290:
 2290 0e68 C0E0      		ldi r28,lo8(0)
 2291 0e6a D0E0      		ldi r29,hi8(0)
 2292               	.LVL131:
 2293 0e6c 20E0      		ldi r18,lo8(0)
 2294               	.LVL132:
 2295 0e6e 30E0      		ldi r19,lo8(0)
 2296               	.LVL133:
 2297 0e70 40E0      		ldi r20,lo8(0)
 2298               	.LVL134:
 2299 0e72 50E0      		ldi r21,lo8(0)
 2300               	.LVL135:
 2301 0e74 60E0      		ldi r22,lo8(0)
 2302               	.LVL136:
 2303 0e76 70E0      		ldi r23,lo8(0)
 2304               	.LVL137:
 2305 0e78 A0E0      		ldi r26,lo8(0)
 2306               	.LVL138:
 2307 0e7a B0E0      		ldi r27,lo8(0)
 2308               	.LVL139:
 2309               	.L138:
 2310               	.LM291:
 2311 0e7c F701      		movw r30,r14
 2312               	.LVL140:
 2313 0e7e EC0F      		add r30,r28
 2314 0e80 FD1F      		adc r31,r29
 2315 0e82 8081      		ld r24,Z
 2316 0e84 E82F      		mov r30,r24
 2317               	.LVL141:
 2318 0e86 F0E0      		ldi r31,lo8(0)
 2319               	.LVL142:
 2320 0e88 CF01      		movw r24,r30
 2321 0e8a 990F      		lsl r25
 2322 0e8c 880B      		sbc r24,r24
 2323 0e8e 982F      		mov r25,r24
 2324               	.LVL143:
 2325               	.LM292:
 2326 0e90 C430      		cpi r28,4
 2327 0e92 D105      		cpc r29,__zero_reg__
 2328 0e94 01F0      		breq .L136
 2329               	.LM293:
 2330 0e96 982F      		mov r25,r24
 2331 0e98 2E2B      		or r18,r30
 2332 0e9a 482B      		or r20,r24
 2333 0e9c 582B      		or r21,r24
 2334 0e9e 682B      		or r22,r24
 2335 0ea0 782B      		or r23,r24
 2336               	.LM294:
 2337 0ea2 8A2F      		mov r24,r26
 2338 0ea4 892B      		or r24,r25
 2339 0ea6 9B2B      		or r25,r27
 2340 0ea8 08E0      		ldi r16,lo8(8)
 2341 0eaa 0E94 0000 		call __ashldi3
 2342               	.LVL144:
 2343 0eae DC01      		movw r26,r24
 2344 0eb0 00C0      		rjmp .L137
 2345               	.LVL145:
 2346               	.L136:
 2347               	.LM295:
 2348 0eb2 2E2B      		or r18,r30
 2349 0eb4 482B      		or r20,r24
 2350 0eb6 582B      		or r21,r24
 2351 0eb8 682B      		or r22,r24
 2352 0eba 782B      		or r23,r24
 2353 0ebc A82B      		or r26,r24
 2354 0ebe B82B      		or r27,r24
 2355               	.L137:
 2356               	.LM296:
 2357 0ec0 2196      		adiw r28,1
 2358 0ec2 C530      		cpi r28,5
 2359 0ec4 D105      		cpc r29,__zero_reg__
 2360 0ec6 01F4      		brne .L138
 2361               	.LM297:
 2362 0ec8 CD01      		movw r24,r26
 2363               	.LVL146:
 2364               	.LVL147:
 2365               	/* epilogue start */
 2366 0eca DF91      		pop r29
 2367 0ecc CF91      		pop r28
 2368               	.LVL148:
 2369 0ece 0F91      		pop r16
 2370 0ed0 FF90      		pop r15
 2371 0ed2 EF90      		pop r14
 2372               	.LVL149:
 2373 0ed4 0895      		ret
 2374               	.LFE74:
 2376               	.global	unformatAddress
 2378               	unformatAddress:
 2379               	.LFB77:
 2380               	.LM298:
 2381               	.LVL150:
 2382 0ed6 EF92      		push r14
 2383 0ed8 FF92      		push r15
 2384 0eda 0F93      		push r16
 2385               	.LVL151:
 2386 0edc 1F93      		push r17
 2387               	/* prologue: function */
 2388               	/* frame size = 0 */
 2389 0ede 7801      		movw r14,r16
 2390               	.LVL152:
 2391               	.LM299:
 2392 0ee0 F801      		movw r30,r16
 2393 0ee2 2483      		std Z+4,r18
 2394               	.LM300:
 2395 0ee4 08E0      		ldi r16,lo8(8)
 2396               	.LVL153:
 2397 0ee6 0E94 0000 		call __lshrdi3
 2398               	.LVL154:
 2399               	.LM301:
 2400 0eea F701      		movw r30,r14
 2401 0eec 2383      		std Z+3,r18
 2402               	.LM302:
 2403 0eee 0E94 0000 		call __lshrdi3
 2404               	.LM303:
 2405 0ef2 F701      		movw r30,r14
 2406 0ef4 2283      		std Z+2,r18
 2407               	.LM304:
 2408 0ef6 0E94 0000 		call __lshrdi3
 2409               	.LM305:
 2410 0efa F701      		movw r30,r14
 2411 0efc 2183      		std Z+1,r18
 2412               	.LM306:
 2413 0efe 0E94 0000 		call __lshrdi3
 2414 0f02 F701      		movw r30,r14
 2415 0f04 2083      		st Z,r18
 2416               	/* epilogue start */
 2417               	.LM307:
 2418 0f06 1F91      		pop r17
 2419 0f08 0F91      		pop r16
 2420 0f0a FF90      		pop r15
 2421 0f0c EF90      		pop r14
 2422               	.LVL155:
 2423 0f0e 0895      		ret
 2424               	.LFE77:
 2426               	.global	getInput
 2428               	getInput:
 2429               	.LFB83:
 2430               	.LM308:
 2431               	.LVL156:
 2432 0f10 2F92      		push r2
 2433 0f12 3F92      		push r3
 2434 0f14 4F92      		push r4
 2435 0f16 5F92      		push r5
 2436 0f18 6F92      		push r6
 2437 0f1a 7F92      		push r7
 2438 0f1c 8F92      		push r8
 2439 0f1e 9F92      		push r9
 2440 0f20 AF92      		push r10
 2441 0f22 BF92      		push r11
 2442 0f24 CF92      		push r12
 2443 0f26 DF92      		push r13
 2444 0f28 EF92      		push r14
 2445 0f2a FF92      		push r15
 2446 0f2c 0F93      		push r16
 2447 0f2e 1F93      		push r17
 2448 0f30 DF93      		push r29
 2449 0f32 CF93      		push r28
 2450 0f34 CDB7      		in r28,__SP_L__
 2451 0f36 DEB7      		in r29,__SP_H__
 2452 0f38 6397      		sbiw r28,19
 2453 0f3a 0FB6      		in __tmp_reg__,__SREG__
 2454 0f3c F894      		cli
 2455 0f3e DEBF      		out __SP_H__,r29
 2456 0f40 0FBE      		out __SREG__,__tmp_reg__
 2457 0f42 CDBF      		out __SP_L__,r28
 2458               	/* prologue: function */
 2459               	/* frame size = 19 */
 2460 0f44 8C01      		movw r16,r24
 2461               	.LM309:
 2462 0f46 2091 0000 		lds r18,dow
 2463 0f4a 3091 0000 		lds r19,(dow)+1
 2464 0f4e 3987      		std Y+9,r19
 2465 0f50 2887      		std Y+8,r18
 2466 0f52 C901      		movw r24,r18
 2467               	.LVL157:
 2468 0f54 A0E0      		ldi r26,lo8(0)
 2469 0f56 B0E0      		ldi r27,hi8(0)
 2470 0f58 8C83      		std Y+4,r24
 2471 0f5a 9D83      		std Y+5,r25
 2472 0f5c AE83      		std Y+6,r26
 2473 0f5e BF83      		std Y+7,r27
 2474 0f60 BC01      		movw r22,r24
 2475 0f62 CD01      		movw r24,r26
 2476 0f64 20E8      		ldi r18,lo8(86400)
 2477 0f66 31E5      		ldi r19,hi8(86400)
 2478 0f68 41E0      		ldi r20,hlo8(86400)
 2479 0f6a 50E0      		ldi r21,hhi8(86400)
 2480 0f6c 0E94 0000 		call __mulsi3
 2481 0f70 2B01      		movw r4,r22
 2482 0f72 3C01      		movw r6,r24
 2483               	.LVL158:
 2484               	.LM310:
 2485 0f74 83E0      		ldi r24,3
 2486 0f76 000F      	1:	lsl r16
 2487 0f78 111F      		rol r17
 2488 0f7a 8A95      		dec r24
 2489 0f7c 01F4      		brne 1b
 2490 0f7e 9801      		movw r18,r16
 2491 0f80 2050      		subi r18,lo8(-(inputs))
 2492 0f82 3040      		sbci r19,hi8(-(inputs))
 2493 0f84 F901      		movw r30,r18
 2494 0f86 8081      		ld r24,Z
 2495 0f88 482F      		mov r20,r24
 2496               	.LVL159:
 2497 0f8a 50E0      		ldi r21,lo8(0)
 2498               	.LVL160:
 2499               	.LM311:
 2500 0f8c E180      		ldd r14,Z+1
 2501 0f8e 8E2D      		mov r24,r14
 2502 0f90 90E0      		ldi r25,lo8(0)
 2503 0f92 9B83      		std Y+3,r25
 2504 0f94 8A83      		std Y+2,r24
 2505               	.LVL161:
 2506               	.LM312:
 2507 0f96 F801      		movw r30,r16
 2508 0f98 E050      		subi r30,lo8(-(inputs+2))
 2509 0f9a F040      		sbci r31,hi8(-(inputs+2))
 2510 0f9c F080      		ld r15,Z
 2511               	.LM313:
 2512 0f9e D901      		movw r26,r18
 2513 0fa0 1396      		adiw r26,3
 2514 0fa2 8C91      		ld r24,X
 2515 0fa4 C82E      		mov r12,r24
 2516               	.LVL162:
 2517 0fa6 DD24      		clr r13
 2518               	.LVL163:
 2519               	.LM314:
 2520 0fa8 0050      		subi r16,lo8(-(inputs+4))
 2521 0faa 1040      		sbci r17,hi8(-(inputs+4))
 2522 0fac F801      		movw r30,r16
 2523 0fae 8081      		ld r24,Z
 2524 0fb0 90E0      		ldi r25,lo8(0)
 2525 0fb2 382E      		mov r3,r24
 2526 0fb4 2224      		clr r2
 2527 0fb6 D901      		movw r26,r18
 2528 0fb8 1596      		adiw r26,5
 2529 0fba 8C91      		ld r24,X
 2530 0fbc 90E0      		ldi r25,lo8(0)
 2531 0fbe 282A      		or r2,r24
 2532 0fc0 392A      		or r3,r25
 2533               	.LM315:
 2534 0fc2 F901      		movw r30,r18
 2535 0fc4 F781      		ldd r31,Z+7
 2536 0fc6 F983      		std Y+1,r31
 2537               	.LVL164:
 2538               	.LM316:
 2539 0fc8 2A81      		ldd r18,Y+2
 2540 0fca 3B81      		ldd r19,Y+3
 2541 0fcc 2F3F      		cpi r18,255
 2542 0fce 3105      		cpc r19,__zero_reg__
 2543 0fd0 01F4      		brne .+2
 2544 0fd2 00C0      		rjmp .L144
 2545               	.LM317:
 2546 0fd4 0F2D      		mov r16,r15
 2547               	.LVL165:
 2548 0fd6 10E0      		ldi r17,lo8(0)
 2549               	.LVL166:
 2550               	.LM318:
 2551 0fd8 0F3F      		cpi r16,255
 2552 0fda 1105      		cpc r17,__zero_reg__
 2553 0fdc 01F4      		brne .+2
 2554 0fde 00C0      		rjmp .L144
 2555               	.LM319:
 2556 0fe0 4052      		subi r20,lo8(-(-32))
 2557 0fe2 5040      		sbci r21,hi8(-(-32))
 2558               	.LVL167:
 2559 0fe4 CA01      		movw r24,r20
 2560               	.LVL168:
 2561 0fe6 A0E0      		ldi r26,lo8(0)
 2562 0fe8 B0E0      		ldi r27,hi8(0)
 2563               	.LVL169:
 2564               	.LM320:
 2565 0fea B595      		asr r27
 2566 0fec A795      		ror r26
 2567 0fee 9795      		ror r25
 2568 0ff0 8795      		ror r24
 2569               	.LVL170:
 2570               	.LM321:
 2571 0ff2 8830      		cpi r24,lo8(8)
 2572 0ff4 9105      		cpc r25,__zero_reg__
 2573 0ff6 A105      		cpc r26,__zero_reg__
 2574 0ff8 B105      		cpc r27,__zero_reg__
 2575 0ffa 04F0      		brlt .+2
 2576 0ffc 00C0      		rjmp .L179
 2577               	.LM322:
 2578 0ffe 8093 7C00 		sts 124,r24
 2579               	.LM323:
 2580 1002 8091 7A00 		lds r24,122
 2581               	.LVL171:
 2582 1006 806C      		ori r24,lo8(-64)
 2583 1008 8093 7A00 		sts 122,r24
 2584               	.L146:
 2585               	.LM324:
 2586 100c 8091 7A00 		lds r24,122
 2587 1010 84FF      		sbrs r24,4
 2588 1012 00C0      		rjmp .L146
 2589               	.LM325:
 2590 1014 6091 7800 		lds r22,120
 2591 1018 7091 7900 		lds r23,(120)+1
 2592 101c 80E0      		ldi r24,lo8(0)
 2593 101e 90E0      		ldi r25,hi8(0)
 2594               	.LVL172:
 2595               	.LM326:
 2596 1020 2FEF      		ldi r18,lo8(255)
 2597 1022 30E0      		ldi r19,hi8(255)
 2598 1024 40E0      		ldi r20,hlo8(255)
 2599 1026 50E0      		ldi r21,hhi8(255)
 2600 1028 0E94 0000 		call __mulsi3
 2601 102c 9B01      		movw r18,r22
 2602 102e AC01      		movw r20,r24
 2603               	.LVL173:
 2604               	.LM327:
 2605 1030 7AE0      		ldi r23,10
 2606 1032 5595      	1:	asr r21
 2607 1034 4795      		ror r20
 2608 1036 3795      		ror r19
 2609 1038 2795      		ror r18
 2610 103a 7A95      		dec r23
 2611 103c 01F4      		brne 1b
 2612               	.LM328:
 2613 103e 8091 7A00 		lds r24,122
 2614               	.LVL174:
 2615 1042 8061      		ori r24,lo8(16)
 2616 1044 8093 7A00 		sts 122,r24
 2617               	.LM329:
 2618 1048 8A81      		ldd r24,Y+2
 2619 104a 9B81      		ldd r25,Y+3
 2620 104c 4C01      		movw r8,r24
 2621 104e AA24      		clr r10
 2622 1050 BB24      		clr r11
 2623 1052 8216      		cp r8,r18
 2624 1054 9306      		cpc r9,r19
 2625 1056 A406      		cpc r10,r20
 2626 1058 B506      		cpc r11,r21
 2627 105a 04F0      		brlt .+2
 2628 105c 00C0      		rjmp .L179
 2629 105e 0F5F      		subi r16,lo8(-(1))
 2630 1060 1F4F      		sbci r17,hi8(-(1))
 2631               	.LVL175:
 2632 1062 C801      		movw r24,r16
 2633 1064 A0E0      		ldi r26,lo8(0)
 2634 1066 B0E0      		ldi r27,hi8(0)
 2635 1068 0150      		subi r16,lo8(-(-1))
 2636 106a 1040      		sbci r17,hi8(-(-1))
 2637 106c 2817      		cp r18,r24
 2638 106e 3907      		cpc r19,r25
 2639 1070 4A07      		cpc r20,r26
 2640 1072 5B07      		cpc r21,r27
 2641 1074 04F0      		brlt .+2
 2642 1076 00C0      		rjmp .L179
 2643               	.LM330:
 2644 1078 90E8      		ldi r25,lo8(128)
 2645 107a C916      		cp r12,r25
 2646 107c D104      		cpc r13,__zero_reg__
 2647 107e 00F0      		brlo .+2
 2648 1080 00C0      		rjmp .L147
 2649 1082 F601      		movw r30,r12
 2650 1084 E050      		subi r30,lo8(-(switchStuff))
 2651 1086 F040      		sbci r31,hi8(-(switchStuff))
 2652 1088 8081      		ld r24,Z
 2653 108a 883C      		cpi r24,lo8(-56)
 2654 108c 01F0      		breq .+2
 2655 108e 00C0      		rjmp .L148
 2656               	.LM331:
 2657 1090 AA81      		ldd r26,Y+2
 2658 1092 BB81      		ldd r27,Y+3
 2659 1094 0A1B      		sub r16,r26
 2660 1096 1B0B      		sbc r17,r27
 2661 1098 0B3F      		cpi r16,251
 2662 109a 1105      		cpc r17,__zero_reg__
 2663 109c 00F0      		brlo .+2
 2664 109e 00C0      		rjmp .L148
 2665               	.LBB101:
 2666               	.LM332:
 2667 10a0 2819      		sub r18,r8
 2668 10a2 3909      		sbc r19,r9
 2669 10a4 4A09      		sbc r20,r10
 2670 10a6 5B09      		sbc r21,r11
 2671               	.LM333:
 2672 10a8 CA01      		movw r24,r20
 2673 10aa B901      		movw r22,r18
 2674 10ac 2FEF      		ldi r18,lo8(255)
 2675 10ae 30E0      		ldi r19,hi8(255)
 2676 10b0 40E0      		ldi r20,hlo8(255)
 2677 10b2 50E0      		ldi r21,hhi8(255)
 2678               	.LVL176:
 2679 10b4 0E94 0000 		call __mulsi3
 2680               	.LM334:
 2681 10b8 FE18      		sub r15,r14
 2682 10ba 2F2D      		mov r18,r15
 2683 10bc 30E0      		ldi r19,lo8(0)
 2684 10be 40E0      		ldi r20,lo8(0)
 2685 10c0 50E0      		ldi r21,hi8(0)
 2686               	.LVL177:
 2687 10c2 0E94 0000 		call __divmodsi4
 2688               	.LM335:
 2689 10c6 B981      		ldd r27,Y+1
 2690 10c8 8B2F      		mov r24,r27
 2691 10ca 90E0      		ldi r25,lo8(0)
 2692 10cc B2FF      		sbrs r27,2
 2693 10ce 00C0      		rjmp .L149
 2694               	.LM336:
 2695 10d0 2093 0000 		sts pwmValues,r18
 2696               	.LVL178:
 2697               	.L149:
 2698               	.LM337:
 2699 10d4 81FF      		sbrs r24,1
 2700 10d6 00C0      		rjmp .L150
 2701               	.LM338:
 2702 10d8 2093 0000 		sts pwmValues+1,r18
 2703               	.L150:
 2704               	.LM339:
 2705 10dc 80FF      		sbrs r24,0
 2706 10de 00C0      		rjmp .L151
 2707               	.LM340:
 2708 10e0 2093 0000 		sts pwmValues+2,r18
 2709               	.L151:
 2710               	.LM341:
 2711 10e4 8770      		andi r24,lo8(7)
 2712 10e6 9070      		andi r25,hi8(7)
 2713 10e8 892B      		or r24,r25
 2714 10ea 01F4      		brne .+2
 2715 10ec 00C0      		rjmp .L148
 2716               	.LM342:
 2717 10ee 81E0      		ldi r24,lo8(1)
 2718 10f0 8093 0000 		sts switchChanged,r24
 2719 10f4 00C0      		rjmp .L148
 2720               	.LVL179:
 2721               	.L177:
 2722               	.LBE101:
 2723               	.LM343:
 2724 10f6 81E0      		ldi r24,lo8(1)
 2725 10f8 8093 0000 		sts switchChanged,r24
 2726               	.L178:
 2727               	.LM344:
 2728 10fc 9101      		movw r18,r2
 2729               	.LVL180:
 2730 10fe 40E0      		ldi r20,lo8(0)
 2731 1100 50E0      		ldi r21,hi8(0)
 2732               	.LVL181:
 2733 1102 8091 0000 		lds r24,weeklySeconds
 2734 1106 9091 0000 		lds r25,(weeklySeconds)+1
 2735 110a A091 0000 		lds r26,(weeklySeconds)+2
 2736 110e B091 0000 		lds r27,(weeklySeconds)+3
 2737 1112 280F      		add r18,r24
 2738 1114 391F      		adc r19,r25
 2739 1116 4A1F      		adc r20,r26
 2740 1118 5B1F      		adc r21,r27
 2741 111a E216      		cp r14,r18
 2742 111c F306      		cpc r15,r19
 2743 111e 0407      		cpc r16,r20
 2744 1120 1507      		cpc r17,r21
 2745 1122 00F0      		brlo .+2
 2746 1124 00C0      		rjmp .L179
 2747               	.LM345:
 2748 1126 CC0C      		lsl r12
 2749 1128 DD1C      		rol r13
 2750 112a CC0C      		lsl r12
 2751 112c DD1C      		rol r13
 2752               	.LVL182:
 2753 112e E0E0      		ldi r30,lo8(switchStatus)
 2754 1130 F0E0      		ldi r31,hi8(switchStatus)
 2755 1132 CE0E      		add r12,r30
 2756 1134 DF1E      		adc r13,r31
 2757 1136 00C0      		rjmp .L187
 2758               	.LVL183:
 2759               	.L147:
 2760 1138 E0E0      		ldi r30,lo8(timeLimits+8)
 2761 113a F0E0      		ldi r31,hi8(timeLimits+8)
 2762 113c 20E0      		ldi r18,lo8(0)
 2763               	.LVL184:
 2764               	.L153:
 2765               	.LM346:
 2766 113e 8081      		ld r24,Z
 2767 1140 9181      		ldd r25,Z+1
 2768 1142 A281      		ldd r26,Z+2
 2769 1144 B381      		ldd r27,Z+3
 2770 1146 0097      		sbiw r24,0
 2771 1148 A105      		cpc r26,__zero_reg__
 2772 114a B105      		cpc r27,__zero_reg__
 2773 114c 01F0      		breq .L152
 2774 114e 21E0      		ldi r18,lo8(1)
 2775               	.L152:
 2776 1150 3C96      		adiw r30,12
 2777               	.LM347:
 2778 1152 B0E0      		ldi r27,hi8(timeLimits+56)
 2779 1154 E030      		cpi r30,lo8(timeLimits+56)
 2780 1156 FB07      		cpc r31,r27
 2781 1158 01F4      		brne .L153
 2782               	.LM348:
 2783 115a 2223      		tst r18
 2784 115c 01F4      		brne .L154
 2785               	.LM349:
 2786 115e C601      		movw r24,r12
 2787 1160 8058      		subi r24,lo8(-(-128))
 2788 1162 9040      		sbci r25,hi8(-(-128))
 2789 1164 B101      		movw r22,r2
 2790 1166 20E0      		ldi r18,lo8(0)
 2791 1168 30E0      		ldi r19,hi8(0)
 2792 116a 40E0      		ldi r20,hlo8(0)
 2793 116c 50E0      		ldi r21,hhi8(0)
 2794               	.LVL185:
 2795 116e 0E94 0000 		call startTheProgram
 2796               	.LVL186:
 2797               	.L154:
 2798               	.LM350:
 2799 1172 E090 0000 		lds r14,weeklySeconds
 2800 1176 F090 0000 		lds r15,(weeklySeconds)+1
 2801 117a 0091 0000 		lds r16,(weeklySeconds)+2
 2802 117e 1091 0000 		lds r17,(weeklySeconds)+3
 2803               	.LM351:
 2804 1182 81E0      		ldi r24,lo8(1)
 2805 1184 90E0      		ldi r25,hi8(1)
 2806 1186 0884      		ldd r0,Y+8
 2807 1188 00C0      		rjmp 2f
 2808 118a 880F      	1:	lsl r24
 2809 118c 991F      		rol r25
 2810 118e 0A94      	2:	dec r0
 2811 1190 02F4      		brpl 1b
 2812 1192 4C01      		movw r8,r24
 2813 1194 AA24      		clr r10
 2814 1196 97FC      		sbrc r9,7
 2815 1198 A094      		com r10
 2816 119a BA2C      		mov r11,r10
 2817 119c E0E0      		ldi r30,lo8(timeLimits)
 2818 119e F0E0      		ldi r31,hi8(timeLimits)
 2819 11a0 FB8B      		std Y+19,r31
 2820 11a2 EA8B      		std Y+18,r30
 2821               	.LM352:
 2822 11a4 20E8      		ldi r18,lo8(-128)
 2823 11a6 3FEF      		ldi r19,hi8(-128)
 2824               	.LVL187:
 2825 11a8 C20E      		add r12,r18
 2826 11aa D31E      		adc r13,r19
 2827               	.LVL188:
 2828               	.LM353:
 2829 11ac 8C81      		ldd r24,Y+4
 2830 11ae 9D81      		ldd r25,Y+5
 2831 11b0 AE81      		ldd r26,Y+6
 2832 11b2 BF81      		ldd r27,Y+7
 2833 11b4 0197      		sbiw r24,1
 2834 11b6 A109      		sbc r26,__zero_reg__
 2835 11b8 B109      		sbc r27,__zero_reg__
 2836 11ba 8E87      		std Y+14,r24
 2837 11bc 9F87      		std Y+15,r25
 2838 11be A88B      		std Y+16,r26
 2839 11c0 B98B      		std Y+17,r27
 2840               	.L160:
 2841               	.LM354:
 2842 11c2 AA89      		ldd r26,Y+18
 2843 11c4 BB89      		ldd r27,Y+19
 2844 11c6 2D91      		ld r18,X+
 2845 11c8 3D91      		ld r19,X+
 2846 11ca 4D91      		ld r20,X+
 2847 11cc 5C91      		ld r21,X
 2848 11ce 1397      		sbiw r26,3
 2849               	.LVL189:
 2850               	.LM355:
 2851 11d0 1496      		adiw r26,4
 2852 11d2 8D91      		ld r24,X+
 2853 11d4 9D91      		ld r25,X+
 2854 11d6 0D90      		ld __tmp_reg__,X+
 2855 11d8 BC91      		ld r27,X
 2856 11da A02D      		mov r26,__tmp_reg__
 2857               	.LVL190:
 2858               	.LM356:
 2859 11dc 8217      		cp r24,r18
 2860 11de 9307      		cpc r25,r19
 2861 11e0 A407      		cpc r26,r20
 2862 11e2 B507      		cpc r27,r21
 2863 11e4 04F4      		brge .L155
 2864               	.LM357:
 2865 11e6 840D      		add r24,r4
 2866 11e8 951D      		adc r25,r5
 2867 11ea A61D      		adc r26,r6
 2868 11ec B71D      		adc r27,r7
 2869 11ee 8E15      		cp r24,r14
 2870 11f0 9F05      		cpc r25,r15
 2871 11f2 A007      		cpc r26,r16
 2872 11f4 B107      		cpc r27,r17
 2873 11f6 00F0      		brlo .L156
 2874               	.LM358:
 2875 11f8 8C81      		ldd r24,Y+4
 2876 11fa 9D81      		ldd r25,Y+5
 2877 11fc AE81      		ldd r26,Y+6
 2878 11fe BF81      		ldd r27,Y+7
 2879               	.LVL191:
 2880 1200 0097      		sbiw r24,0
 2881 1202 A105      		cpc r26,__zero_reg__
 2882 1204 B105      		cpc r27,__zero_reg__
 2883 1206 01F4      		brne .L157
 2884 1208 86E0      		ldi r24,lo8(6)
 2885 120a 90E0      		ldi r25,hi8(6)
 2886 120c A0E0      		ldi r26,hlo8(6)
 2887 120e B0E0      		ldi r27,hhi8(6)
 2888               	.LVL192:
 2889 1210 00C0      		rjmp .L158
 2890               	.LVL193:
 2891               	.L157:
 2892               	.LM359:
 2893 1212 8E85      		ldd r24,Y+14
 2894 1214 9F85      		ldd r25,Y+15
 2895 1216 A889      		ldd r26,Y+16
 2896 1218 B989      		ldd r27,Y+17
 2897               	.LVL194:
 2898               	.L158:
 2899               	.LM360:
 2900 121a E1E0      		ldi r30,lo8(1)
 2901 121c F0E0      		ldi r31,hi8(1)
 2902 121e 00C0      		rjmp 2f
 2903 1220 EE0F      	1:	lsl r30
 2904 1222 FF1F      		rol r31
 2905 1224 8A95      	2:	dec r24
 2906 1226 02F4      		brpl 1b
 2907 1228 CF01      		movw r24,r30
 2908               	.LVL195:
 2909 122a AA27      		clr r26
 2910 122c 97FD      		sbrc r25,7
 2911 122e A095      		com r26
 2912 1230 BA2F      		mov r27,r26
 2913 1232 EA89      		ldd r30,Y+18
 2914 1234 FB89      		ldd r31,Y+19
 2915 1236 2085      		ldd r18,Z+8
 2916 1238 3185      		ldd r19,Z+9
 2917 123a 4285      		ldd r20,Z+10
 2918 123c 5385      		ldd r21,Z+11
 2919               	.LVL196:
 2920 123e 8223      		and r24,r18
 2921 1240 9323      		and r25,r19
 2922 1242 A423      		and r26,r20
 2923 1244 B523      		and r27,r21
 2924 1246 00C0      		rjmp .L189
 2925               	.LVL197:
 2926               	.L156:
 2927               	.LM361:
 2928 1248 240D      		add r18,r4
 2929 124a 351D      		adc r19,r5
 2930 124c 461D      		adc r20,r6
 2931 124e 571D      		adc r21,r7
 2932 1250 E216      		cp r14,r18
 2933 1252 F306      		cpc r15,r19
 2934 1254 0407      		cpc r16,r20
 2935 1256 1507      		cpc r17,r21
 2936 1258 00F0      		brlo .L159
 2937 125a 00C0      		rjmp .L194
 2938               	.L155:
 2939               	.LM362:
 2940 125c 240D      		add r18,r4
 2941 125e 351D      		adc r19,r5
 2942 1260 461D      		adc r20,r6
 2943 1262 571D      		adc r21,r7
 2944 1264 E216      		cp r14,r18
 2945 1266 F306      		cpc r15,r19
 2946 1268 0407      		cpc r16,r20
 2947 126a 1507      		cpc r17,r21
 2948 126c 00F0      		brlo .L159
 2949 126e 840D      		add r24,r4
 2950 1270 951D      		adc r25,r5
 2951 1272 A61D      		adc r26,r6
 2952 1274 B71D      		adc r27,r7
 2953 1276 8E15      		cp r24,r14
 2954 1278 9F05      		cpc r25,r15
 2955 127a A007      		cpc r26,r16
 2956 127c B107      		cpc r27,r17
 2957 127e 00F0      		brlo .L159
 2958               	.L194:
 2959               	.LM363:
 2960 1280 EA89      		ldd r30,Y+18
 2961 1282 FB89      		ldd r31,Y+19
 2962 1284 8085      		ldd r24,Z+8
 2963 1286 9185      		ldd r25,Z+9
 2964 1288 A285      		ldd r26,Z+10
 2965 128a B385      		ldd r27,Z+11
 2966               	.LVL198:
 2967 128c 8821      		and r24,r8
 2968 128e 9921      		and r25,r9
 2969 1290 AA21      		and r26,r10
 2970 1292 BB21      		and r27,r11
 2971               	.L189:
 2972 1294 0097      		sbiw r24,0
 2973 1296 A105      		cpc r26,__zero_reg__
 2974 1298 B105      		cpc r27,__zero_reg__
 2975 129a 01F0      		breq .L159
 2976               	.LM364:
 2977 129c C601      		movw r24,r12
 2978 129e B101      		movw r22,r2
 2979 12a0 20E0      		ldi r18,lo8(0)
 2980 12a2 30E0      		ldi r19,hi8(0)
 2981 12a4 40E0      		ldi r20,hlo8(0)
 2982 12a6 50E0      		ldi r21,hhi8(0)
 2983               	.LVL199:
 2984 12a8 0E94 0000 		call startTheProgram
 2985               	.LVL200:
 2986               	.L159:
 2987 12ac 2A89      		ldd r18,Y+18
 2988 12ae 3B89      		ldd r19,Y+19
 2989               	.LVL201:
 2990 12b0 245F      		subi r18,lo8(-(12))
 2991 12b2 3F4F      		sbci r19,hi8(-(12))
 2992 12b4 3B8B      		std Y+19,r19
 2993 12b6 2A8B      		std Y+18,r18
 2994               	.LM365:
 2995 12b8 2050      		subi r18,lo8(timeLimits+48)
 2996 12ba 3040      		sbci r19,hi8(timeLimits+48)
 2997               	.LVL202:
 2998 12bc 01F0      		breq .+2
 2999 12be 00C0      		rjmp .L160
 3000 12c0 00C0      		rjmp .L179
 3001               	.LVL203:
 3002               	.L144:
 3003               	.LBB102:
 3004               	.LM366:
 3005 12c2 BA01      		movw r22,r20
 3006               	.LVL204:
 3007 12c4 80E0      		ldi r24,lo8(0)
 3008 12c6 90E0      		ldi r25,hi8(0)
 3009               	.LVL205:
 3010               	.LM367:
 3011 12c8 9B01      		movw r18,r22
 3012 12ca AC01      		movw r20,r24
 3013 12cc 2051      		subi r18,lo8(-(-16))
 3014 12ce 3040      		sbci r19,hi8(-(-16))
 3015 12d0 4040      		sbci r20,hlo8(-(-16))
 3016 12d2 5040      		sbci r21,hhi8(-(-16))
 3017 12d4 2031      		cpi r18,lo8(16)
 3018 12d6 3105      		cpc r19,__zero_reg__
 3019 12d8 4105      		cpc r20,__zero_reg__
 3020 12da 5105      		cpc r21,__zero_reg__
 3021 12dc 00F4      		brsh .L161
 3022               	.LM368:
 3023 12de CA01      		movw r24,r20
 3024 12e0 B901      		movw r22,r18
 3025               	.LVL206:
 3026 12e2 33E2      		ldi r19,lo8(35)
 3027 12e4 A32E      		mov r10,r19
 3028 12e6 B12C      		mov r11,__zero_reg__
 3029               	.LVL207:
 3030 12e8 00C0      		rjmp .L162
 3031               	.LVL208:
 3032               	.L161:
 3033               	.LM369:
 3034 12ea 6033      		cpi r22,lo8(48)
 3035 12ec 7105      		cpc r23,__zero_reg__
 3036 12ee 8105      		cpc r24,__zero_reg__
 3037 12f0 9105      		cpc r25,__zero_reg__
 3038 12f2 04F4      		brge .L163
 3039               	.LM370:
 3040 12f4 6052      		subi r22,lo8(-(-32))
 3041 12f6 7040      		sbci r23,hi8(-(-32))
 3042 12f8 8040      		sbci r24,hlo8(-(-32))
 3043 12fa 9040      		sbci r25,hhi8(-(-32))
 3044               	.LVL209:
 3045 12fc 26E2      		ldi r18,lo8(38)
 3046 12fe A22E      		mov r10,r18
 3047 1300 B12C      		mov r11,__zero_reg__
 3048               	.LVL210:
 3049 1302 00C0      		rjmp .L162
 3050               	.LVL211:
 3051               	.L163:
 3052               	.LM371:
 3053 1304 6034      		cpi r22,lo8(64)
 3054 1306 7105      		cpc r23,__zero_reg__
 3055 1308 8105      		cpc r24,__zero_reg__
 3056 130a 9105      		cpc r25,__zero_reg__
 3057 130c 04F0      		brlt .+2
 3058 130e 00C0      		rjmp .L179
 3059               	.LM372:
 3060 1310 6053      		subi r22,lo8(-(-48))
 3061 1312 7040      		sbci r23,hi8(-(-48))
 3062 1314 8040      		sbci r24,hlo8(-(-48))
 3063 1316 9040      		sbci r25,hhi8(-(-48))
 3064               	.LVL212:
 3065 1318 09E2      		ldi r16,lo8(41)
 3066 131a A02E      		mov r10,r16
 3067 131c B12C      		mov r11,__zero_reg__
 3068               	.LVL213:
 3069               	.L162:
 3070               	.LM373:
 3071 131e 22E0      		ldi r18,lo8(2)
 3072 1320 30E0      		ldi r19,hi8(2)
 3073 1322 40E0      		ldi r20,hlo8(2)
 3074 1324 50E0      		ldi r21,hhi8(2)
 3075 1326 0E94 0000 		call __divmodsi4
 3076               	.LVL214:
 3077 132a 7901      		movw r14,r18
 3078 132c 8A01      		movw r16,r20
 3079               	.LVL215:
 3080               	.LM374:
 3081 132e 98E0      		ldi r25,lo8(8)
 3082 1330 E916      		cp r14,r25
 3083 1332 F104      		cpc r15,__zero_reg__
 3084 1334 0105      		cpc r16,__zero_reg__
 3085 1336 1105      		cpc r17,__zero_reg__
 3086               	.LVL216:
 3087 1338 04F0      		brlt .+2
 3088 133a 00C0      		rjmp .L179
 3089               	.LM375:
 3090 133c D501      		movw r26,r10
 3091 133e 8C91      		ld r24,X
 3092               	.LVL217:
 3093               	.LM376:
 3094 1340 90E0      		ldi r25,lo8(0)
 3095 1342 022E      		mov r0,r18
 3096 1344 00C0      		rjmp 2f
 3097 1346 9595      	1:	asr r25
 3098 1348 8795      		ror r24
 3099 134a 0A94      	2:	dec r0
 3100 134c 02F4      		brpl 1b
 3101 134e 80FF      		sbrs r24,0
 3102 1350 00C0      		rjmp .L164
 3103               	.LVL218:
 3104               	.LM377:
 3105 1352 EA81      		ldd r30,Y+2
 3106 1354 FB81      		ldd r31,Y+3
 3107 1356 EF2B      		or r30,r31
 3108 1358 01F0      		breq .L165
 3109 135a 00C0      		rjmp .L179
 3110               	.L164:
 3111               	.LM378:
 3112 135c 2A81      		ldd r18,Y+2
 3113 135e 3B81      		ldd r19,Y+3
 3114               	.LVL219:
 3115 1360 2F3F      		cpi r18,255
 3116 1362 3105      		cpc r19,__zero_reg__
 3117 1364 01F0      		breq .+2
 3118 1366 00C0      		rjmp .L179
 3119               	.LVL220:
 3120               	.L165:
 3121               	.LM379:
 3122 1368 30E8      		ldi r19,lo8(128)
 3123 136a C316      		cp r12,r19
 3124 136c D104      		cpc r13,__zero_reg__
 3125 136e 00F4      		brsh .L166
 3126               	.LM380:
 3127 1370 F601      		movw r30,r12
 3128 1372 EE0F      		lsl r30
 3129 1374 FF1F      		rol r31
 3130 1376 EE0F      		lsl r30
 3131 1378 FF1F      		rol r31
 3132               	.LVL221:
 3133 137a E050      		subi r30,lo8(-(switchStatus))
 3134 137c F040      		sbci r31,hi8(-(switchStatus))
 3135 137e E080      		ld r14,Z
 3136 1380 F180      		ldd r15,Z+1
 3137 1382 0281      		ldd r16,Z+2
 3138 1384 1381      		ldd r17,Z+3
 3139               	.LVL222:
 3140 1386 E114      		cp r14,__zero_reg__
 3141 1388 F104      		cpc r15,__zero_reg__
 3142 138a 0105      		cpc r16,__zero_reg__
 3143 138c 1105      		cpc r17,__zero_reg__
 3144 138e 01F4      		brne .L167
 3145               	.LM381:
 3146 1390 81E0      		ldi r24,lo8(1)
 3147 1392 8093 0000 		sts switchChanged,r24
 3148               	.L167:
 3149               	.LM382:
 3150 1396 9101      		movw r18,r2
 3151               	.LVL223:
 3152 1398 40E0      		ldi r20,lo8(0)
 3153 139a 50E0      		ldi r21,hi8(0)
 3154 139c 8091 0000 		lds r24,weeklySeconds
 3155 13a0 9091 0000 		lds r25,(weeklySeconds)+1
 3156 13a4 A091 0000 		lds r26,(weeklySeconds)+2
 3157 13a8 B091 0000 		lds r27,(weeklySeconds)+3
 3158 13ac 280F      		add r18,r24
 3159 13ae 391F      		adc r19,r25
 3160 13b0 4A1F      		adc r20,r26
 3161 13b2 5B1F      		adc r21,r27
 3162 13b4 E216      		cp r14,r18
 3163 13b6 F306      		cpc r15,r19
 3164 13b8 0407      		cpc r16,r20
 3165 13ba 1507      		cpc r17,r21
 3166 13bc 00F0      		brlo .+2
 3167 13be 00C0      		rjmp .L179
 3168               	.LM383:
 3169 13c0 CC0C      		lsl r12
 3170 13c2 DD1C      		rol r13
 3171 13c4 CC0C      		lsl r12
 3172 13c6 DD1C      		rol r13
 3173               	.LVL224:
 3174 13c8 80E0      		ldi r24,lo8(switchStatus)
 3175 13ca 90E0      		ldi r25,hi8(switchStatus)
 3176 13cc C80E      		add r12,r24
 3177 13ce D91E      		adc r13,r25
 3178               	.LVL225:
 3179               	.L187:
 3180 13d0 D601      		movw r26,r12
 3181 13d2 2D93      		st X+,r18
 3182 13d4 3D93      		st X+,r19
 3183 13d6 4D93      		st X+,r20
 3184 13d8 5C93      		st X,r21
 3185 13da 1397      		sbiw r26,3
 3186 13dc 00C0      		rjmp .L179
 3187               	.LVL226:
 3188               	.L166:
 3189 13de E0E0      		ldi r30,lo8(timeLimits+8)
 3190 13e0 F0E0      		ldi r31,hi8(timeLimits+8)
 3191 13e2 20E0      		ldi r18,lo8(0)
 3192               	.LVL227:
 3193               	.L169:
 3194               	.LM384:
 3195 13e4 8081      		ld r24,Z
 3196 13e6 9181      		ldd r25,Z+1
 3197 13e8 A281      		ldd r26,Z+2
 3198 13ea B381      		ldd r27,Z+3
 3199 13ec 0097      		sbiw r24,0
 3200 13ee A105      		cpc r26,__zero_reg__
 3201 13f0 B105      		cpc r27,__zero_reg__
 3202 13f2 01F0      		breq .L168
 3203 13f4 21E0      		ldi r18,lo8(1)
 3204               	.L168:
 3205 13f6 3C96      		adiw r30,12
 3206               	.LM385:
 3207 13f8 B0E0      		ldi r27,hi8(timeLimits+56)
 3208 13fa E030      		cpi r30,lo8(timeLimits+56)
 3209 13fc FB07      		cpc r31,r27
 3210 13fe 01F4      		brne .L169
 3211               	.LM386:
 3212 1400 2223      		tst r18
 3213 1402 01F4      		brne .L170
 3214               	.LM387:
 3215 1404 C601      		movw r24,r12
 3216 1406 8058      		subi r24,lo8(-(-128))
 3217 1408 9040      		sbci r25,hi8(-(-128))
 3218 140a B101      		movw r22,r2
 3219 140c 20E0      		ldi r18,lo8(0)
 3220 140e 30E0      		ldi r19,hi8(0)
 3221 1410 40E0      		ldi r20,hlo8(0)
 3222 1412 50E0      		ldi r21,hhi8(0)
 3223               	.LVL228:
 3224 1414 0E94 0000 		call startTheProgram
 3225               	.LVL229:
 3226               	.L170:
 3227               	.LM388:
 3228 1418 E090 0000 		lds r14,weeklySeconds
 3229 141c F090 0000 		lds r15,(weeklySeconds)+1
 3230 1420 0091 0000 		lds r16,(weeklySeconds)+2
 3231 1424 1091 0000 		lds r17,(weeklySeconds)+3
 3232               	.LVL230:
 3233               	.LM389:
 3234 1428 81E0      		ldi r24,lo8(1)
 3235 142a 90E0      		ldi r25,hi8(1)
 3236 142c 0884      		ldd r0,Y+8
 3237 142e 00C0      		rjmp 2f
 3238 1430 880F      	1:	lsl r24
 3239 1432 991F      		rol r25
 3240 1434 0A94      	2:	dec r0
 3241 1436 02F4      		brpl 1b
 3242 1438 4C01      		movw r8,r24
 3243 143a AA24      		clr r10
 3244 143c 97FC      		sbrc r9,7
 3245 143e A094      		com r10
 3246 1440 BA2C      		mov r11,r10
 3247 1442 E0E0      		ldi r30,lo8(timeLimits)
 3248 1444 F0E0      		ldi r31,hi8(timeLimits)
 3249 1446 FB8B      		std Y+19,r31
 3250 1448 EA8B      		std Y+18,r30
 3251               	.LM390:
 3252 144a 20E8      		ldi r18,lo8(-128)
 3253 144c 3FEF      		ldi r19,hi8(-128)
 3254               	.LVL231:
 3255 144e C20E      		add r12,r18
 3256 1450 D31E      		adc r13,r19
 3257               	.LVL232:
 3258               	.LM391:
 3259 1452 8C81      		ldd r24,Y+4
 3260 1454 9D81      		ldd r25,Y+5
 3261 1456 AE81      		ldd r26,Y+6
 3262 1458 BF81      		ldd r27,Y+7
 3263 145a 0197      		sbiw r24,1
 3264 145c A109      		sbc r26,__zero_reg__
 3265 145e B109      		sbc r27,__zero_reg__
 3266 1460 8A87      		std Y+10,r24
 3267 1462 9B87      		std Y+11,r25
 3268 1464 AC87      		std Y+12,r26
 3269 1466 BD87      		std Y+13,r27
 3270               	.L176:
 3271               	.LM392:
 3272 1468 AA89      		ldd r26,Y+18
 3273 146a BB89      		ldd r27,Y+19
 3274 146c 2D91      		ld r18,X+
 3275 146e 3D91      		ld r19,X+
 3276 1470 4D91      		ld r20,X+
 3277 1472 5C91      		ld r21,X
 3278 1474 1397      		sbiw r26,3
 3279               	.LVL233:
 3280               	.LM393:
 3281 1476 1496      		adiw r26,4
 3282 1478 8D91      		ld r24,X+
 3283 147a 9D91      		ld r25,X+
 3284 147c 0D90      		ld __tmp_reg__,X+
 3285 147e BC91      		ld r27,X
 3286 1480 A02D      		mov r26,__tmp_reg__
 3287               	.LVL234:
 3288               	.LM394:
 3289 1482 8217      		cp r24,r18
 3290 1484 9307      		cpc r25,r19
 3291 1486 A407      		cpc r26,r20
 3292 1488 B507      		cpc r27,r21
 3293 148a 04F4      		brge .L171
 3294               	.LM395:
 3295 148c 840D      		add r24,r4
 3296 148e 951D      		adc r25,r5
 3297 1490 A61D      		adc r26,r6
 3298 1492 B71D      		adc r27,r7
 3299 1494 8E15      		cp r24,r14
 3300 1496 9F05      		cpc r25,r15
 3301 1498 A007      		cpc r26,r16
 3302 149a B107      		cpc r27,r17
 3303 149c 00F0      		brlo .L172
 3304               	.LM396:
 3305 149e 8C81      		ldd r24,Y+4
 3306 14a0 9D81      		ldd r25,Y+5
 3307 14a2 AE81      		ldd r26,Y+6
 3308 14a4 BF81      		ldd r27,Y+7
 3309               	.LVL235:
 3310 14a6 0097      		sbiw r24,0
 3311 14a8 A105      		cpc r26,__zero_reg__
 3312 14aa B105      		cpc r27,__zero_reg__
 3313 14ac 01F4      		brne .L173
 3314 14ae 86E0      		ldi r24,lo8(6)
 3315 14b0 90E0      		ldi r25,hi8(6)
 3316 14b2 A0E0      		ldi r26,hlo8(6)
 3317 14b4 B0E0      		ldi r27,hhi8(6)
 3318               	.LVL236:
 3319 14b6 00C0      		rjmp .L174
 3320               	.LVL237:
 3321               	.L173:
 3322               	.LM397:
 3323 14b8 8A85      		ldd r24,Y+10
 3324 14ba 9B85      		ldd r25,Y+11
 3325 14bc AC85      		ldd r26,Y+12
 3326 14be BD85      		ldd r27,Y+13
 3327               	.LVL238:
 3328               	.L174:
 3329               	.LM398:
 3330 14c0 E1E0      		ldi r30,lo8(1)
 3331 14c2 F0E0      		ldi r31,hi8(1)
 3332 14c4 00C0      		rjmp 2f
 3333 14c6 EE0F      	1:	lsl r30
 3334 14c8 FF1F      		rol r31
 3335 14ca 8A95      	2:	dec r24
 3336 14cc 02F4      		brpl 1b
 3337 14ce CF01      		movw r24,r30
 3338               	.LVL239:
 3339 14d0 AA27      		clr r26
 3340 14d2 97FD      		sbrc r25,7
 3341 14d4 A095      		com r26
 3342 14d6 BA2F      		mov r27,r26
 3343 14d8 EA89      		ldd r30,Y+18
 3344 14da FB89      		ldd r31,Y+19
 3345 14dc 2085      		ldd r18,Z+8
 3346 14de 3185      		ldd r19,Z+9
 3347 14e0 4285      		ldd r20,Z+10
 3348 14e2 5385      		ldd r21,Z+11
 3349               	.LVL240:
 3350 14e4 8223      		and r24,r18
 3351 14e6 9323      		and r25,r19
 3352 14e8 A423      		and r26,r20
 3353 14ea B523      		and r27,r21
 3354 14ec 00C0      		rjmp .L192
 3355               	.LVL241:
 3356               	.L172:
 3357               	.LM399:
 3358 14ee 240D      		add r18,r4
 3359 14f0 351D      		adc r19,r5
 3360 14f2 461D      		adc r20,r6
 3361 14f4 571D      		adc r21,r7
 3362 14f6 E216      		cp r14,r18
 3363 14f8 F306      		cpc r15,r19
 3364 14fa 0407      		cpc r16,r20
 3365 14fc 1507      		cpc r17,r21
 3366 14fe 00F0      		brlo .L175
 3367 1500 00C0      		rjmp .L195
 3368               	.L171:
 3369               	.LM400:
 3370 1502 240D      		add r18,r4
 3371 1504 351D      		adc r19,r5
 3372 1506 461D      		adc r20,r6
 3373 1508 571D      		adc r21,r7
 3374 150a E216      		cp r14,r18
 3375 150c F306      		cpc r15,r19
 3376 150e 0407      		cpc r16,r20
 3377 1510 1507      		cpc r17,r21
 3378 1512 00F0      		brlo .L175
 3379 1514 840D      		add r24,r4
 3380 1516 951D      		adc r25,r5
 3381 1518 A61D      		adc r26,r6
 3382 151a B71D      		adc r27,r7
 3383 151c 8E15      		cp r24,r14
 3384 151e 9F05      		cpc r25,r15
 3385 1520 A007      		cpc r26,r16
 3386 1522 B107      		cpc r27,r17
 3387 1524 00F0      		brlo .L175
 3388               	.L195:
 3389               	.LM401:
 3390 1526 EA89      		ldd r30,Y+18
 3391 1528 FB89      		ldd r31,Y+19
 3392 152a 8085      		ldd r24,Z+8
 3393 152c 9185      		ldd r25,Z+9
 3394 152e A285      		ldd r26,Z+10
 3395 1530 B385      		ldd r27,Z+11
 3396               	.LVL242:
 3397 1532 8821      		and r24,r8
 3398 1534 9921      		and r25,r9
 3399 1536 AA21      		and r26,r10
 3400 1538 BB21      		and r27,r11
 3401               	.L192:
 3402 153a 0097      		sbiw r24,0
 3403 153c A105      		cpc r26,__zero_reg__
 3404 153e B105      		cpc r27,__zero_reg__
 3405 1540 01F0      		breq .L175
 3406               	.LM402:
 3407 1542 C601      		movw r24,r12
 3408 1544 B101      		movw r22,r2
 3409 1546 20E0      		ldi r18,lo8(0)
 3410 1548 30E0      		ldi r19,hi8(0)
 3411 154a 40E0      		ldi r20,hlo8(0)
 3412 154c 50E0      		ldi r21,hhi8(0)
 3413               	.LVL243:
 3414 154e 0E94 0000 		call startTheProgram
 3415               	.LVL244:
 3416               	.L175:
 3417 1552 2A89      		ldd r18,Y+18
 3418 1554 3B89      		ldd r19,Y+19
 3419               	.LVL245:
 3420 1556 245F      		subi r18,lo8(-(12))
 3421 1558 3F4F      		sbci r19,hi8(-(12))
 3422 155a 3B8B      		std Y+19,r19
 3423 155c 2A8B      		std Y+18,r18
 3424               	.LM403:
 3425 155e 2050      		subi r18,lo8(timeLimits+48)
 3426 1560 3040      		sbci r19,hi8(timeLimits+48)
 3427               	.LVL246:
 3428 1562 01F0      		breq .+2
 3429 1564 00C0      		rjmp .L176
 3430 1566 00C0      		rjmp .L179
 3431               	.LVL247:
 3432               	.L148:
 3433               	.LBE102:
 3434               	.LM404:
 3435 1568 F601      		movw r30,r12
 3436 156a EE0F      		lsl r30
 3437 156c FF1F      		rol r31
 3438 156e EE0F      		lsl r30
 3439 1570 FF1F      		rol r31
 3440 1572 E050      		subi r30,lo8(-(switchStatus))
 3441 1574 F040      		sbci r31,hi8(-(switchStatus))
 3442 1576 E080      		ld r14,Z
 3443 1578 F180      		ldd r15,Z+1
 3444 157a 0281      		ldd r16,Z+2
 3445 157c 1381      		ldd r17,Z+3
 3446 157e E114      		cp r14,__zero_reg__
 3447 1580 F104      		cpc r15,__zero_reg__
 3448 1582 0105      		cpc r16,__zero_reg__
 3449 1584 1105      		cpc r17,__zero_reg__
 3450 1586 01F4      		brne .+2
 3451 1588 00C0      		rjmp .L177
 3452 158a 00C0      		rjmp .L178
 3453               	.LVL248:
 3454               	.L179:
 3455               	/* epilogue start */
 3456               	.LM405:
 3457 158c 6396      		adiw r28,19
 3458 158e 0FB6      		in __tmp_reg__,__SREG__
 3459 1590 F894      		cli
 3460 1592 DEBF      		out __SP_H__,r29
 3461 1594 0FBE      		out __SREG__,__tmp_reg__
 3462 1596 CDBF      		out __SP_L__,r28
 3463 1598 CF91      		pop r28
 3464 159a DF91      		pop r29
 3465 159c 1F91      		pop r17
 3466               	.LVL249:
 3467 159e 0F91      		pop r16
 3468               	.LVL250:
 3469 15a0 FF90      		pop r15
 3470 15a2 EF90      		pop r14
 3471               	.LVL251:
 3472 15a4 DF90      		pop r13
 3473               	.LVL252:
 3474 15a6 CF90      		pop r12
 3475               	.LVL253:
 3476 15a8 BF90      		pop r11
 3477 15aa AF90      		pop r10
 3478               	.LVL254:
 3479 15ac 9F90      		pop r9
 3480 15ae 8F90      		pop r8
 3481 15b0 7F90      		pop r7
 3482 15b2 6F90      		pop r6
 3483 15b4 5F90      		pop r5
 3484 15b6 4F90      		pop r4
 3485               	.LVL255:
 3486 15b8 3F90      		pop r3
 3487 15ba 2F90      		pop r2
 3488 15bc 0895      		ret
 3489               	.LFE83:
 3491               	.global	inputTenthCheck
 3493               	inputTenthCheck:
 3494               	.LFB82:
 3495               	.LM406:
 3496 15be 0F93      		push r16
 3497 15c0 1F93      		push r17
 3498 15c2 CF93      		push r28
 3499 15c4 DF93      		push r29
 3500               	/* prologue: function */
 3501               	/* frame size = 0 */
 3502               	.LM407:
 3503 15c6 00E0      		ldi r16,lo8(inputs)
 3504 15c8 10E0      		ldi r17,hi8(inputs)
 3505 15ca C0E0      		ldi r28,lo8(0)
 3506 15cc D0E0      		ldi r29,hi8(0)
 3507               	.LVL256:
 3508               	.L198:
 3509               	.LM408:
 3510 15ce F801      		movw r30,r16
 3511 15d0 8081      		ld r24,Z
 3512 15d2 8F3F      		cpi r24,lo8(-1)
 3513 15d4 01F0      		breq .L197
 3514 15d6 8681      		ldd r24,Z+6
 3515 15d8 8823      		tst r24
 3516 15da 01F4      		brne .L197
 3517               	.LM409:
 3518 15dc CE01      		movw r24,r28
 3519 15de 0E94 0000 		call getInput
 3520               	.L197:
 3521               	.LM410:
 3522 15e2 2196      		adiw r28,1
 3523 15e4 085F      		subi r16,lo8(-(8))
 3524 15e6 1F4F      		sbci r17,hi8(-(8))
 3525 15e8 C430      		cpi r28,4
 3526 15ea D105      		cpc r29,__zero_reg__
 3527 15ec 01F4      		brne .L198
 3528               	/* epilogue start */
 3529               	.LM411:
 3530 15ee DF91      		pop r29
 3531 15f0 CF91      		pop r28
 3532               	.LVL257:
 3533 15f2 1F91      		pop r17
 3534 15f4 0F91      		pop r16
 3535 15f6 0895      		ret
 3536               	.LFE82:
 3538               	.global	inputCheck
 3540               	inputCheck:
 3541               	.LFB81:
 3542               	.LM412:
 3543 15f8 CF92      		push r12
 3544 15fa DF92      		push r13
 3545 15fc EF92      		push r14
 3546 15fe FF92      		push r15
 3547 1600 0F93      		push r16
 3548 1602 1F93      		push r17
 3549 1604 CF93      		push r28
 3550 1606 DF93      		push r29
 3551               	/* prologue: function */
 3552               	/* frame size = 0 */
 3553               	.LM413:
 3554 1608 C090 0000 		lds r12,weeklySeconds
 3555 160c D090 0000 		lds r13,(weeklySeconds)+1
 3556 1610 E090 0000 		lds r14,(weeklySeconds)+2
 3557 1614 F090 0000 		lds r15,(weeklySeconds)+3
 3558 1618 00E0      		ldi r16,lo8(inputs)
 3559 161a 10E0      		ldi r17,hi8(inputs)
 3560 161c C0E0      		ldi r28,lo8(0)
 3561 161e D0E0      		ldi r29,hi8(0)
 3562               	.LVL258:
 3563               	.L204:
 3564               	.LM414:
 3565 1620 F801      		movw r30,r16
 3566 1622 8081      		ld r24,Z
 3567 1624 8F3F      		cpi r24,lo8(-1)
 3568 1626 01F0      		breq .L202
 3569               	.LM415:
 3570 1628 8681      		ldd r24,Z+6
 3571 162a 90E0      		ldi r25,lo8(0)
 3572               	.LM416:
 3573 162c 8230      		cpi r24,2
 3574 162e 9105      		cpc r25,__zero_reg__
 3575               	.LVL259:
 3576 1630 00F0      		brlo .L207
 3577               	.L203:
 3578               	.LM417:
 3579 1632 9C01      		movw r18,r24
 3580 1634 4427      		clr r20
 3581 1636 37FD      		sbrc r19,7
 3582 1638 4095      		com r20
 3583 163a 542F      		mov r21,r20
 3584               	.LVL260:
 3585 163c C701      		movw r24,r14
 3586 163e B601      		movw r22,r12
 3587 1640 0E94 0000 		call __udivmodsi4
 3588               	.LVL261:
 3589 1644 6115      		cp r22,__zero_reg__
 3590 1646 7105      		cpc r23,__zero_reg__
 3591 1648 8105      		cpc r24,__zero_reg__
 3592 164a 9105      		cpc r25,__zero_reg__
 3593 164c 01F4      		brne .L202
 3594               	.LVL262:
 3595               	.L207:
 3596               	.LM418:
 3597 164e CE01      		movw r24,r28
 3598               	.LVL263:
 3599 1650 0E94 0000 		call getInput
 3600               	.LVL264:
 3601               	.L202:
 3602               	.LM419:
 3603 1654 2196      		adiw r28,1
 3604 1656 085F      		subi r16,lo8(-(8))
 3605 1658 1F4F      		sbci r17,hi8(-(8))
 3606 165a C430      		cpi r28,4
 3607 165c D105      		cpc r29,__zero_reg__
 3608 165e 01F4      		brne .L204
 3609               	/* epilogue start */
 3610               	.LM420:
 3611 1660 DF91      		pop r29
 3612 1662 CF91      		pop r28
 3613               	.LVL265:
 3614 1664 1F91      		pop r17
 3615 1666 0F91      		pop r16
 3616 1668 FF90      		pop r15
 3617 166a EF90      		pop r14
 3618 166c DF90      		pop r13
 3619 166e CF90      		pop r12
 3620 1670 0895      		ret
 3621               	.LFE81:
 3623               	.global	flashFail
 3625               	flashFail:
 3626               	.LFB85:
 3627               	.LM421:
 3628               	/* prologue: function */
 3629               	/* frame size = 0 */
 3630               	.LM422:
 3631 1672 8091 0000 		lds r24,failTimer
 3632 1676 8F5F      		subi r24,lo8(-(1))
 3633 1678 8093 0000 		sts failTimer,r24
 3634               	.LM423:
 3635 167c 529A      		sbi 42-32,2
 3636               	.LM424:
 3637 167e 9091 0000 		lds r25,failCondition
 3638 1682 9130      		cpi r25,lo8(1)
 3639 1684 01F4      		brne .L209
 3640               	.LM425:
 3641 1686 8230      		cpi r24,lo8(2)
 3642 1688 01F0      		breq .L225
 3643               	.L210:
 3644               	.LM426:
 3645 168a 8430      		cpi r24,lo8(4)
 3646 168c 01F0      		breq .L226
 3647               	.L212:
 3648               	.LM427:
 3649 168e 8831      		cpi r24,lo8(24)
 3650 1690 01F4      		brne .L224
 3651 1692 00C0      		rjmp .L227
 3652               	.L209:
 3653               	.LM428:
 3654 1694 9230      		cpi r25,lo8(2)
 3655 1696 01F4      		brne .L213
 3656               	.LM429:
 3657 1698 8230      		cpi r24,lo8(2)
 3658 169a 01F0      		breq .L225
 3659               	.L214:
 3660               	.LM430:
 3661 169c 8430      		cpi r24,lo8(4)
 3662 169e 01F0      		breq .L226
 3663               	.L215:
 3664               	.LM431:
 3665 16a0 8830      		cpi r24,lo8(8)
 3666 16a2 01F0      		breq .L225
 3667               	.L216:
 3668               	.LM432:
 3669 16a4 8A30      		cpi r24,lo8(10)
 3670 16a6 01F0      		breq .L226
 3671               	.L217:
 3672               	.LM433:
 3673 16a8 8E31      		cpi r24,lo8(30)
 3674 16aa 01F4      		brne .L224
 3675               	.L227:
 3676               	.LM434:
 3677 16ac 1092 0000 		sts failTimer,__zero_reg__
 3678 16b0 0895      		ret
 3679               	.L213:
 3680               	.LM435:
 3681 16b2 9330      		cpi r25,lo8(3)
 3682 16b4 01F4      		brne .L224
 3683               	.LM436:
 3684 16b6 8230      		cpi r24,lo8(2)
 3685 16b8 01F0      		breq .L225
 3686               	.L218:
 3687               	.LM437:
 3688 16ba 8430      		cpi r24,lo8(4)
 3689 16bc 01F0      		breq .L226
 3690               	.L219:
 3691               	.LM438:
 3692 16be 8830      		cpi r24,lo8(8)
 3693 16c0 01F0      		breq .L225
 3694               	.L220:
 3695               	.LM439:
 3696 16c2 8A30      		cpi r24,lo8(10)
 3697 16c4 01F0      		breq .L226
 3698               	.L221:
 3699               	.LM440:
 3700 16c6 8E30      		cpi r24,lo8(14)
 3701 16c8 01F4      		brne .L222
 3702               	.L225:
 3703               	.LM441:
 3704 16ca 5A9A      		sbi 43-32,2
 3705 16cc 0895      		ret
 3706               	.L222:
 3707               	.LM442:
 3708 16ce 8031      		cpi r24,lo8(16)
 3709 16d0 01F4      		brne .L223
 3710               	.L226:
 3711               	.LM443:
 3712 16d2 5A98      		cbi 43-32,2
 3713 16d4 0895      		ret
 3714               	.L223:
 3715               	.LM444:
 3716 16d6 8432      		cpi r24,lo8(36)
 3717 16d8 01F4      		brne .L224
 3718               	.LM445:
 3719 16da 1092 0000 		sts failTimer,__zero_reg__
 3720               	.L224:
 3721 16de 0895      		ret
 3722               	.LFE85:
 3724               	.global	clearFail
 3726               	clearFail:
 3727               	.LFB86:
 3728               	.LM446:
 3729               	/* prologue: function */
 3730               	/* frame size = 0 */
 3731               	.LM447:
 3732 16e0 1092 0000 		sts failTimer,__zero_reg__
 3733               	.LM448:
 3734 16e4 5A9A      		sbi 43-32,2
 3735               	.LM449:
 3736 16e6 529A      		sbi 42-32,2
 3737               	/* epilogue start */
 3738               	.LM450:
 3739 16e8 0895      		ret
 3740               	.LFE86:
 3742               	.global	__vector_11
 3744               	__vector_11:
 3745               	.LFB87:
 3746               	.LM451:
 3747 16ea 1F92      		push __zero_reg__
 3748 16ec 0F92      		push r0
 3749 16ee 0FB6      		in r0,__SREG__
 3750 16f0 0F92      		push r0
 3751 16f2 1124      		clr __zero_reg__
 3752 16f4 2F93      		push r18
 3753 16f6 3F93      		push r19
 3754 16f8 4F93      		push r20
 3755 16fa 5F93      		push r21
 3756 16fc 6F93      		push r22
 3757 16fe 7F93      		push r23
 3758 1700 8F93      		push r24
 3759 1702 9F93      		push r25
 3760 1704 AF93      		push r26
 3761 1706 BF93      		push r27
 3762 1708 EF93      		push r30
 3763 170a FF93      		push r31
 3764               	/* prologue: Signal */
 3765               	/* frame size = 0 */
 3766               	.LM452:
 3767 170c 8091 0000 		lds r24,ticks
 3768 1710 9091 0000 		lds r25,(ticks)+1
 3769 1714 0196      		adiw r24,1
 3770 1716 9093 0000 		sts (ticks)+1,r25
 3771 171a 8093 0000 		sts ticks,r24
 3772               	.LM453:
 3773 171e A0E0      		ldi r26,lo8(0)
 3774 1720 B0E0      		ldi r27,hi8(0)
 3775 1722 2091 0000 		lds r18,tweakTimer
 3776 1726 3091 0000 		lds r19,(tweakTimer)+1
 3777 172a 4091 0000 		lds r20,(tweakTimer)+2
 3778 172e 5091 0000 		lds r21,(tweakTimer)+3
 3779 1732 8217      		cp r24,r18
 3780 1734 9307      		cpc r25,r19
 3781 1736 A407      		cpc r26,r20
 3782 1738 B507      		cpc r27,r21
 3783 173a 04F4      		brge .+2
 3784 173c 00C0      		rjmp .L231
 3785               	.LM454:
 3786 173e 1092 0000 		sts (ticks)+1,__zero_reg__
 3787 1742 1092 0000 		sts ticks,__zero_reg__
 3788               	.LM455:
 3789 1746 2091 0000 		lds r18,globalSecond
 3790 174a 3091 0000 		lds r19,(globalSecond)+1
 3791 174e 2F5F      		subi r18,lo8(-(1))
 3792 1750 3F4F      		sbci r19,hi8(-(1))
 3793 1752 3093 0000 		sts (globalSecond)+1,r19
 3794 1756 2093 0000 		sts globalSecond,r18
 3795               	.LM456:
 3796 175a 8091 0000 		lds r24,weeklySeconds
 3797 175e 9091 0000 		lds r25,(weeklySeconds)+1
 3798 1762 A091 0000 		lds r26,(weeklySeconds)+2
 3799 1766 B091 0000 		lds r27,(weeklySeconds)+3
 3800 176a 0196      		adiw r24,1
 3801 176c A11D      		adc r26,__zero_reg__
 3802 176e B11D      		adc r27,__zero_reg__
 3803 1770 8093 0000 		sts weeklySeconds,r24
 3804 1774 9093 0000 		sts (weeklySeconds)+1,r25
 3805 1778 A093 0000 		sts (weeklySeconds)+2,r26
 3806 177c B093 0000 		sts (weeklySeconds)+3,r27
 3807               	.LM457:
 3808 1780 41E0      		ldi r20,lo8(1)
 3809 1782 4093 0000 		sts newSecond,r20
 3810               	.LM458:
 3811 1786 2C33      		cpi r18,60
 3812 1788 3105      		cpc r19,__zero_reg__
 3813 178a 01F4      		brne .L231
 3814               	.LM459:
 3815 178c 8091 0000 		lds r24,globalMinute
 3816 1790 9091 0000 		lds r25,(globalMinute)+1
 3817 1794 0196      		adiw r24,1
 3818 1796 9093 0000 		sts (globalMinute)+1,r25
 3819 179a 8093 0000 		sts globalMinute,r24
 3820               	.LM460:
 3821 179e 1092 0000 		sts (globalSecond)+1,__zero_reg__
 3822 17a2 1092 0000 		sts globalSecond,__zero_reg__
 3823               	.LM461:
 3824 17a6 4093 0000 		sts newMinute,r20
 3825               	.LM462:
 3826 17aa CC97      		sbiw r24,60
 3827 17ac 01F4      		brne .L231
 3828               	.LM463:
 3829 17ae 8091 0000 		lds r24,globalHour
 3830 17b2 9091 0000 		lds r25,(globalHour)+1
 3831 17b6 0196      		adiw r24,1
 3832 17b8 9093 0000 		sts (globalHour)+1,r25
 3833 17bc 8093 0000 		sts globalHour,r24
 3834               	.LM464:
 3835 17c0 1092 0000 		sts (globalMinute)+1,__zero_reg__
 3836 17c4 1092 0000 		sts globalMinute,__zero_reg__
 3837               	.LM465:
 3838 17c8 0397      		sbiw r24,3
 3839 17ca 01F4      		brne .L232
 3840               	.LM466:
 3841 17cc 0E94 0000 		call checkDaylightSavings
 3842               	.L232:
 3843               	.LM467:
 3844 17d0 8091 0000 		lds r24,globalHour
 3845 17d4 9091 0000 		lds r25,(globalHour)+1
 3846 17d8 4897      		sbiw r24,24
 3847 17da 01F4      		brne .L231
 3848               	.LM468:
 3849 17dc 1092 0000 		sts (globalHour)+1,__zero_reg__
 3850 17e0 1092 0000 		sts globalHour,__zero_reg__
 3851               	.LM469:
 3852 17e4 0E94 0000 		call advanceDay
 3853               	.L231:
 3854               	.LM470:
 3855 17e8 8091 0000 		lds r24,ticks
 3856 17ec 9091 0000 		lds r25,(ticks)+1
 3857 17f0 68E1      		ldi r22,lo8(1560)
 3858 17f2 76E0      		ldi r23,hi8(1560)
 3859 17f4 0E94 0000 		call __udivmodhi4
 3860 17f8 892B      		or r24,r25
 3861 17fa 01F4      		brne .L234
 3862               	.LM471:
 3863 17fc 81E0      		ldi r24,lo8(1)
 3864 17fe 8093 0000 		sts tenthFlag,r24
 3865               	.L234:
 3866               	/* epilogue start */
 3867               	.LM472:
 3868 1802 FF91      		pop r31
 3869 1804 EF91      		pop r30
 3870 1806 BF91      		pop r27
 3871 1808 AF91      		pop r26
 3872 180a 9F91      		pop r25
 3873 180c 8F91      		pop r24
 3874 180e 7F91      		pop r23
 3875 1810 6F91      		pop r22
 3876 1812 5F91      		pop r21
 3877 1814 4F91      		pop r20
 3878 1816 3F91      		pop r19
 3879 1818 2F91      		pop r18
 3880 181a 0F90      		pop r0
 3881 181c 0FBE      		out __SREG__,r0
 3882 181e 0F90      		pop r0
 3883 1820 1F90      		pop __zero_reg__
 3884 1822 1895      		reti
 3885               	.LFE87:
 3887               	.global	getSwitchNumber
 3889               	getSwitchNumber:
 3890               	.LFB10:
 3891               	.LM473:
 3892               	.LVL266:
 3893               	/* prologue: function */
 3894               	/* frame size = 0 */
 3895 1824 FC01      		movw r30,r24
 3896               	.LM474:
 3897 1826 8381      		ldd r24,Z+3
 3898               	.LVL267:
 3899 1828 8093 0000 		sts tempIntString,r24
 3900               	.LM475:
 3901 182c 8481      		ldd r24,Z+4
 3902 182e 8093 0000 		sts tempIntString+1,r24
 3903               	.LM476:
 3904 1832 80E0      		ldi r24,lo8(tempIntString)
 3905 1834 90E0      		ldi r25,hi8(tempIntString)
 3906 1836 0E94 0000 		call atoi
 3907               	.LVL268:
 3908               	/* epilogue start */
 3909               	.LM477:
 3910 183a 0895      		ret
 3911               	.LFE10:
 3913               	.global	sendMessage
 3915               	sendMessage:
 3916               	.LFB78:
 3917               	.LM478:
 3918               	.LVL269:
 3919 183c 0F93      		push r16
 3920 183e 1F93      		push r17
 3921               	/* prologue: function */
 3922               	/* frame size = 0 */
 3923 1840 182F      		mov r17,r24
 3924 1842 092F      		mov r16,r25
 3925               	.LVL270:
 3926               	.LM479:
 3927 1844 0E94 0000 		call stopRx
 3928               	.LVL271:
 3929               	.LBB103:
 3930               	.LBB104:
 3931               	.LBB105:
 3932               	.LBB106:
 3933               	.LBB107:
 3934               	.LBB108:
 3935               	.LM480:
 3936 1848 80E9      		ldi r24,lo8(400)
 3937 184a 91E0      		ldi r25,hi8(400)
 3938               	.LVL272:
 3939               	/* #APP */
 3940               	 ;  105 "c:/winavr-20100110/lib/gcc/../../avr/include/util/delay_basic.h" 1
 3941 184c 0197      		1: sbiw r24,1
 3942 184e 01F4      		brne 1b
 3943               	 ;  0 "" 2
 3944               	/* #NOAPP */
 3945               	.LBE108:
 3946               	.LBE107:
 3947               	.LBE106:
 3948               	.LBE105:
 3949               	.LBE104:
 3950               	.LBE103:
 3951               	.LM481:
 3952 1850 E12F      		mov r30,r17
 3953 1852 F02F      		mov r31,r16
 3954 1854 DF01      		movw r26,r30
 3955 1856 0D90      		ld __tmp_reg__,X+
 3956 1858 0020      		tst __tmp_reg__
 3957 185a 01F4      		brne .-6
 3958 185c 1197      		sbiw r26,1
 3959 185e AE1B      		sub r26,r30
 3960 1860 BF0B      		sbc r27,r31
 3961               	.LM482:
 3962 1862 812F      		mov r24,r17
 3963               	.LVL273:
 3964 1864 902F      		mov r25,r16
 3965 1866 6A2F      		mov r22,r26
 3966 1868 0E94 0000 		call transmit
 3967 186c 8823      		tst r24
 3968 186e 01F4      		brne .L238
 3969               	.LM483:
 3970 1870 82E0      		ldi r24,lo8(2)
 3971 1872 8093 0000 		sts failCondition,r24
 3972 1876 00C0      		rjmp .L239
 3973               	.L238:
 3974               	.LM484:
 3975 1878 1092 0000 		sts failCondition,__zero_reg__
 3976               	.LBB109:
 3977               	.LBB110:
 3978               	.LM485:
 3979 187c 1092 0000 		sts failTimer,__zero_reg__
 3980               	.LM486:
 3981 1880 5A9A      		sbi 43-32,2
 3982               	.LM487:
 3983 1882 529A      		sbi 42-32,2
 3984               	.L239:
 3985               	.LBE110:
 3986               	.LBE109:
 3987               	.LM488:
 3988 1884 0E94 0000 		call startRx
 3989               	/* epilogue start */
 3990               	.LM489:
 3991 1888 1F91      		pop r17
 3992               	.LVL274:
 3993 188a 0F91      		pop r16
 3994               	.LVL275:
 3995 188c 0895      		ret
 3996               	.LFE78:
 3998               		.data
 3999               	.LC0:
 4000 0000 6F6B 00   		.string	"ok"
 4001               		.text
 4002               	.global	ok
 4004               	ok:
 4005               	.LFB9:
 4006               	.LM490:
 4007               	/* prologue: function */
 4008               	/* frame size = 0 */
 4009               	.LM491:
 4010 188e 80E0      		ldi r24,lo8(.LC0)
 4011 1890 90E0      		ldi r25,hi8(.LC0)
 4012 1892 0E94 0000 		call sendMessage
 4013               	/* epilogue start */
 4014               	.LM492:
 4015 1896 0895      		ret
 4016               	.LFE9:
 4018               	.global	clearInput
 4020               	clearInput:
 4021               	.LFB84:
 4022               	.LM493:
 4023               	.LVL276:
 4024               	/* prologue: function */
 4025               	/* frame size = 0 */
 4026 1898 FC01      		movw r30,r24
 4027               	.LM494:
 4028 189a 8381      		ldd r24,Z+3
 4029               	.LVL277:
 4030 189c 8093 0000 		sts tempIntString,r24
 4031               	.LM495:
 4032 18a0 8481      		ldd r24,Z+4
 4033 18a2 8093 0000 		sts tempIntString+1,r24
 4034               	.LM496:
 4035 18a6 80E0      		ldi r24,lo8(tempIntString)
 4036 18a8 90E0      		ldi r25,hi8(tempIntString)
 4037 18aa 0E94 0000 		call atoi
 4038               	.LVL278:
 4039 18ae DC01      		movw r26,r24
 4040               	.LVL279:
 4041               	.LM497:
 4042 18b0 FC01      		movw r30,r24
 4043 18b2 23E0      		ldi r18,3
 4044 18b4 EE0F      	1:	lsl r30
 4045 18b6 FF1F      		rol r31
 4046 18b8 2A95      		dec r18
 4047 18ba 01F4      		brne 1b
 4048 18bc E050      		subi r30,lo8(-(inputs))
 4049 18be F040      		sbci r31,hi8(-(inputs))
 4050 18c0 8081      		ld r24,Z
 4051 18c2 90E0      		ldi r25,lo8(0)
 4052               	.LVL280:
 4053               	.LM498:
 4054 18c4 9C01      		movw r18,r24
 4055               	.LVL281:
 4056 18c6 2051      		subi r18,lo8(-(-16))
 4057 18c8 3040      		sbci r19,hi8(-(-16))
 4058 18ca 2031      		cpi r18,16
 4059 18cc 3105      		cpc r19,__zero_reg__
 4060 18ce 00F4      		brsh .L244
 4061               	.LM499:
 4062 18d0 A901      		movw r20,r18
 4063               	.LVL282:
 4064 18d2 E3E2      		ldi r30,lo8(35)
 4065 18d4 F0E0      		ldi r31,hi8(35)
 4066               	.LVL283:
 4067 18d6 00C0      		rjmp .L245
 4068               	.LVL284:
 4069               	.L244:
 4070               	.LM500:
 4071 18d8 8033      		cpi r24,48
 4072 18da 9105      		cpc r25,__zero_reg__
 4073 18dc 04F4      		brge .L246
 4074               	.LM501:
 4075 18de AC01      		movw r20,r24
 4076 18e0 4052      		subi r20,lo8(-(-32))
 4077 18e2 5040      		sbci r21,hi8(-(-32))
 4078               	.LVL285:
 4079 18e4 E6E2      		ldi r30,lo8(38)
 4080 18e6 F0E0      		ldi r31,hi8(38)
 4081               	.LVL286:
 4082 18e8 00C0      		rjmp .L245
 4083               	.LVL287:
 4084               	.L246:
 4085               	.LM502:
 4086 18ea 8034      		cpi r24,64
 4087 18ec 9105      		cpc r25,__zero_reg__
 4088 18ee 04F4      		brge .L250
 4089               	.LM503:
 4090 18f0 AC01      		movw r20,r24
 4091 18f2 4053      		subi r20,lo8(-(-48))
 4092 18f4 5040      		sbci r21,hi8(-(-48))
 4093               	.LVL288:
 4094 18f6 E9E2      		ldi r30,lo8(41)
 4095 18f8 F0E0      		ldi r31,hi8(41)
 4096               	.LVL289:
 4097               	.L245:
 4098               	.LM504:
 4099 18fa 8081      		ld r24,Z
 4100 18fc 21E0      		ldi r18,lo8(1)
 4101 18fe 30E0      		ldi r19,hi8(1)
 4102 1900 00C0      		rjmp 2f
 4103 1902 220F      	1:	lsl r18
 4104 1904 331F      		rol r19
 4105 1906 4A95      	2:	dec r20
 4106 1908 02F4      		brpl 1b
 4107 190a 2095      		com r18
 4108 190c 2823      		and r18,r24
 4109 190e 2083      		st Z,r18
 4110               	.LM505:
 4111 1910 93E0      		ldi r25,3
 4112 1912 AA0F      	1:	lsl r26
 4113 1914 BB1F      		rol r27
 4114 1916 9A95      		dec r25
 4115 1918 01F4      		brne 1b
 4116               	.LVL290:
 4117 191a A050      		subi r26,lo8(-(inputs))
 4118 191c B040      		sbci r27,hi8(-(inputs))
 4119 191e 8FEF      		ldi r24,lo8(-1)
 4120 1920 8C93      		st X,r24
 4121               	.LVL291:
 4122               	.L250:
 4123               	.LM506:
 4124 1922 0E94 0000 		call ok
 4125               	.LVL292:
 4126 1926 0895      		ret
 4127               	.LFE84:
 4129               	.global	setDaylightSavings
 4131               	setDaylightSavings:
 4132               	.LFB56:
 4133               	.LM507:
 4134               	.LVL293:
 4135 1928 EF92      		push r14
 4136 192a FF92      		push r15
 4137 192c 0F93      		push r16
 4138 192e 1F93      		push r17
 4139               	/* prologue: function */
 4140               	/* frame size = 0 */
 4141 1930 8C01      		movw r16,r24
 4142               	.LM508:
 4143 1932 30E0      		ldi r19,lo8(tempIntString)
 4144 1934 E32E      		mov r14,r19
 4145 1936 30E0      		ldi r19,hi8(tempIntString)
 4146 1938 F32E      		mov r15,r19
 4147 193a FC01      		movw r30,r24
 4148 193c 8381      		ldd r24,Z+3
 4149               	.LVL294:
 4150 193e 8093 0000 		sts tempIntString,r24
 4151               	.LM509:
 4152 1942 8481      		ldd r24,Z+4
 4153 1944 8093 0000 		sts tempIntString+1,r24
 4154               	.LM510:
 4155 1948 C701      		movw r24,r14
 4156 194a 0E94 0000 		call atoi
 4157               	.LM511:
 4158 194e 9093 0000 		sts (daylightSavings)+1,r25
 4159 1952 8093 0000 		sts daylightSavings,r24
 4160               	.LM512:
 4161 1956 F801      		movw r30,r16
 4162 1958 8581      		ldd r24,Z+5
 4163 195a 8093 0000 		sts tempIntString,r24
 4164               	.LM513:
 4165 195e 8681      		ldd r24,Z+6
 4166 1960 8093 0000 		sts tempIntString+1,r24
 4167               	.LM514:
 4168 1964 C701      		movw r24,r14
 4169 1966 0E94 0000 		call atoi
 4170               	.LM515:
 4171 196a 9093 0000 		sts (daylightSavings+2)+1,r25
 4172 196e 8093 0000 		sts daylightSavings+2,r24
 4173               	.LM516:
 4174 1972 F801      		movw r30,r16
 4175 1974 8085      		ldd r24,Z+8
 4176 1976 8093 0000 		sts tempIntString,r24
 4177               	.LM517:
 4178 197a 8185      		ldd r24,Z+9
 4179 197c 8093 0000 		sts tempIntString+1,r24
 4180               	.LM518:
 4181 1980 C701      		movw r24,r14
 4182 1982 0E94 0000 		call atoi
 4183               	.LM519:
 4184 1986 9093 0000 		sts (daylightSavings+4)+1,r25
 4185 198a 8093 0000 		sts daylightSavings+4,r24
 4186               	.LM520:
 4187 198e F801      		movw r30,r16
 4188 1990 8285      		ldd r24,Z+10
 4189 1992 8093 0000 		sts tempIntString,r24
 4190               	.LM521:
 4191 1996 8385      		ldd r24,Z+11
 4192 1998 8093 0000 		sts tempIntString+1,r24
 4193               	.LM522:
 4194 199c C701      		movw r24,r14
 4195 199e 0E94 0000 		call atoi
 4196               	.LM523:
 4197 19a2 9093 0000 		sts (daylightSavings+6)+1,r25
 4198 19a6 8093 0000 		sts daylightSavings+6,r24
 4199               	.LM524:
 4200 19aa 0E94 0000 		call ok
 4201               	/* epilogue start */
 4202               	.LM525:
 4203 19ae 1F91      		pop r17
 4204 19b0 0F91      		pop r16
 4205               	.LVL295:
 4206 19b2 FF90      		pop r15
 4207 19b4 EF90      		pop r14
 4208 19b6 0895      		ret
 4209               	.LFE56:
 4211               	.global	pwmValueSet
 4213               	pwmValueSet:
 4214               	.LFB22:
 4215               	.LM526:
 4216               	.LVL296:
 4217 19b8 AF92      		push r10
 4218 19ba BF92      		push r11
 4219 19bc CF92      		push r12
 4220 19be DF92      		push r13
 4221 19c0 EF92      		push r14
 4222 19c2 FF92      		push r15
 4223 19c4 0F93      		push r16
 4224 19c6 1F93      		push r17
 4225               	/* prologue: function */
 4226               	/* frame size = 0 */
 4227 19c8 8C01      		movw r16,r24
 4228               	.LM527:
 4229 19ca 60E0      		ldi r22,lo8(tempLongString+3)
 4230 19cc E62E      		mov r14,r22
 4231 19ce 60E0      		ldi r22,hi8(tempLongString+3)
 4232 19d0 F62E      		mov r15,r22
 4233 19d2 1092 0000 		sts tempLongString+3,__zero_reg__
 4234               	.LM528:
 4235 19d6 5DEF      		ldi r21,lo8(-3)
 4236 19d8 C52E      		mov r12,r21
 4237 19da 5FEF      		ldi r21,hi8(-3)
 4238 19dc D52E      		mov r13,r21
 4239 19de CE0C      		add r12,r14
 4240 19e0 DF1C      		adc r13,r15
 4241 19e2 FC01      		movw r30,r24
 4242 19e4 8681      		ldd r24,Z+6
 4243               	.LVL297:
 4244 19e6 F601      		movw r30,r12
 4245 19e8 8083      		st Z,r24
 4246               	.LM529:
 4247 19ea 4EEF      		ldi r20,lo8(-2)
 4248 19ec A42E      		mov r10,r20
 4249 19ee 4FEF      		ldi r20,hi8(-2)
 4250 19f0 B42E      		mov r11,r20
 4251 19f2 AE0C      		add r10,r14
 4252 19f4 BF1C      		adc r11,r15
 4253 19f6 F801      		movw r30,r16
 4254 19f8 8781      		ldd r24,Z+7
 4255 19fa F501      		movw r30,r10
 4256 19fc 8083      		st Z,r24
 4257               	.LM530:
 4258 19fe F801      		movw r30,r16
 4259 1a00 8085      		ldd r24,Z+8
 4260 1a02 F701      		movw r30,r14
 4261 1a04 8293      		st -Z,r24
 4262 1a06 7F01      		movw r14,r30
 4263               	.LM531:
 4264 1a08 C601      		movw r24,r12
 4265 1a0a 0E94 0000 		call atoi
 4266 1a0e 8093 0000 		sts pwmValues,r24
 4267               	.LM532:
 4268 1a12 F801      		movw r30,r16
 4269 1a14 8285      		ldd r24,Z+10
 4270 1a16 F601      		movw r30,r12
 4271 1a18 8083      		st Z,r24
 4272               	.LM533:
 4273 1a1a F801      		movw r30,r16
 4274 1a1c 8385      		ldd r24,Z+11
 4275 1a1e F501      		movw r30,r10
 4276 1a20 8083      		st Z,r24
 4277               	.LM534:
 4278 1a22 F801      		movw r30,r16
 4279 1a24 8485      		ldd r24,Z+12
 4280 1a26 F701      		movw r30,r14
 4281 1a28 8083      		st Z,r24
 4282               	.LM535:
 4283 1a2a C601      		movw r24,r12
 4284 1a2c 0E94 0000 		call atoi
 4285 1a30 8093 0000 		sts pwmValues+1,r24
 4286               	.LM536:
 4287 1a34 F801      		movw r30,r16
 4288 1a36 8685      		ldd r24,Z+14
 4289 1a38 F601      		movw r30,r12
 4290 1a3a 8083      		st Z,r24
 4291               	.LM537:
 4292 1a3c F801      		movw r30,r16
 4293 1a3e 8785      		ldd r24,Z+15
 4294 1a40 F501      		movw r30,r10
 4295 1a42 8083      		st Z,r24
 4296               	.LM538:
 4297 1a44 F801      		movw r30,r16
 4298 1a46 8089      		ldd r24,Z+16
 4299 1a48 F701      		movw r30,r14
 4300 1a4a 8083      		st Z,r24
 4301               	.LM539:
 4302 1a4c C601      		movw r24,r12
 4303 1a4e 0E94 0000 		call atoi
 4304 1a52 8093 0000 		sts pwmValues+2,r24
 4305               	.LM540:
 4306 1a56 1092 0000 		sts statusMsg,__zero_reg__
 4307               	.LM541:
 4308 1a5a 0E94 0000 		call ok
 4309               	/* epilogue start */
 4310               	.LM542:
 4311 1a5e 1F91      		pop r17
 4312 1a60 0F91      		pop r16
 4313               	.LVL298:
 4314 1a62 FF90      		pop r15
 4315 1a64 EF90      		pop r14
 4316 1a66 DF90      		pop r13
 4317 1a68 CF90      		pop r12
 4318 1a6a BF90      		pop r11
 4319 1a6c AF90      		pop r10
 4320 1a6e 0895      		ret
 4321               	.LFE22:
 4323               	.global	setHueSpeed
 4325               	setHueSpeed:
 4326               	.LFB21:
 4327               	.LM543:
 4328               	.LVL299:
 4329               	/* prologue: function */
 4330               	/* frame size = 0 */
 4331 1a70 FC01      		movw r30,r24
 4332               	.LM544:
 4333 1a72 8381      		ldd r24,Z+3
 4334               	.LVL300:
 4335 1a74 8093 0000 		sts tempIntString,r24
 4336               	.LM545:
 4337 1a78 8481      		ldd r24,Z+4
 4338 1a7a 8093 0000 		sts tempIntString+1,r24
 4339               	.LM546:
 4340 1a7e 80E0      		ldi r24,lo8(tempIntString)
 4341 1a80 90E0      		ldi r25,hi8(tempIntString)
 4342 1a82 0E94 0000 		call atoi
 4343               	.LVL301:
 4344               	.LM547:
 4345 1a86 1816      		cp __zero_reg__,r24
 4346 1a88 1906      		cpc __zero_reg__,r25
 4347               	.LVL302:
 4348 1a8a 04F4      		brge .L256
 4349               	.LM548:
 4350 1a8c 9093 0000 		sts (hueSpeed)+1,r25
 4351 1a90 8093 0000 		sts hueSpeed,r24
 4352               	.L256:
 4353               	.LM549:
 4354 1a94 0E94 0000 		call ok
 4355               	.LVL303:
 4356               	/* epilogue start */
 4357               	.LM550:
 4358 1a98 0895      		ret
 4359               	.LFE21:
 4361               	.global	cycleHue
 4363               	cycleHue:
 4364               	.LFB20:
 4365               	.LM551:
 4366               	.LVL304:
 4367               	/* prologue: function */
 4368               	/* frame size = 0 */
 4369 1a9a FC01      		movw r30,r24
 4370               	.LM552:
 4371 1a9c 8581      		ldd r24,Z+5
 4372               	.LVL305:
 4373 1a9e 8093 0000 		sts tempLongString,r24
 4374               	.LM553:
 4375 1aa2 8681      		ldd r24,Z+6
 4376 1aa4 8093 0000 		sts tempLongString+1,r24
 4377               	.LM554:
 4378 1aa8 8781      		ldd r24,Z+7
 4379 1aaa 8093 0000 		sts tempLongString+2,r24
 4380               	.LM555:
 4381 1aae 8085      		ldd r24,Z+8
 4382 1ab0 8093 0000 		sts tempLongString+3,r24
 4383               	.LM556:
 4384 1ab4 80E0      		ldi r24,lo8(tempLongString)
 4385 1ab6 90E0      		ldi r25,hi8(tempLongString)
 4386 1ab8 0E94 0000 		call atoi
 4387               	.LVL306:
 4388               	.LM557:
 4389 1abc 1816      		cp __zero_reg__,r24
 4390 1abe 1906      		cpc __zero_reg__,r25
 4391               	.LVL307:
 4392 1ac0 04F4      		brge .L259
 4393               	.LM558:
 4394 1ac2 9093 0000 		sts (colorChangeSpeed)+1,r25
 4395 1ac6 8093 0000 		sts colorChangeSpeed,r24
 4396               	.L259:
 4397               	.LM559:
 4398 1aca 0E94 0000 		call ok
 4399               	.LVL308:
 4400               	/* epilogue start */
 4401               	.LM560:
 4402 1ace 0895      		ret
 4403               	.LFE20:
 4405               	.global	switchClear
 4407               	switchClear:
 4408               	.LFB12:
 4409               	.LM561:
 4410               	.LVL309:
 4411               	/* prologue: function */
 4412               	/* frame size = 0 */
 4413               	.LM562:
 4414 1ad0 0E94 0000 		call getSwitchNumber
 4415               	.LVL310:
 4416               	.LM563:
 4417 1ad4 0E94 0000 		call clearTheSwitch
 4418               	.LM564:
 4419 1ad8 0E94 0000 		call ok
 4420               	/* epilogue start */
 4421               	.LM565:
 4422 1adc 0895      		ret
 4423               	.LFE12:
 4425               		.data
 4426               	.LC1:
 4427 0003 5377 4F6E 		.string	"SwOn:"
 4427      3A00 
 4428               	.LC2:
 4429 0009 7900      		.string	"y"
 4430               	.LC3:
 4431 000b 6E00      		.string	"n"
 4432               		.text
 4433               	.global	switchesOn
 4435               	switchesOn:
 4436               	.LFB68:
 4437               	.LM566:
 4438 1ade 0F93      		push r16
 4439 1ae0 1F93      		push r17
 4440 1ae2 CF93      		push r28
 4441 1ae4 DF93      		push r29
 4442               	/* prologue: function */
 4443               	/* frame size = 0 */
 4444               	.LM567:
 4445 1ae6 1092 0000 		sts statusMsg,__zero_reg__
 4446               	.LM568:
 4447 1aea 80E0      		ldi r24,lo8(statusMsg)
 4448 1aec 90E0      		ldi r25,hi8(statusMsg)
 4449 1aee 60E0      		ldi r22,lo8(.LC1)
 4450 1af0 70E0      		ldi r23,hi8(.LC1)
 4451 1af2 0E94 0000 		call strcat
 4452 1af6 C0E0      		ldi r28,lo8(switchStatus)
 4453 1af8 D0E0      		ldi r29,hi8(switchStatus)
 4454               	.LM569:
 4455 1afa 00E0      		ldi r16,lo8(statusMsg)
 4456 1afc 10E0      		ldi r17,hi8(statusMsg)
 4457               	.L267:
 4458               	.LM570:
 4459 1afe 8881      		ld r24,Y
 4460 1b00 9981      		ldd r25,Y+1
 4461 1b02 AA81      		ldd r26,Y+2
 4462 1b04 BB81      		ldd r27,Y+3
 4463 1b06 0097      		sbiw r24,0
 4464 1b08 A105      		cpc r26,__zero_reg__
 4465 1b0a B105      		cpc r27,__zero_reg__
 4466 1b0c 01F0      		breq .L264
 4467               	.LM571:
 4468 1b0e 80E0      		ldi r24,lo8(statusMsg)
 4469 1b10 90E0      		ldi r25,hi8(statusMsg)
 4470 1b12 60E0      		ldi r22,lo8(.LC2)
 4471 1b14 70E0      		ldi r23,hi8(.LC2)
 4472 1b16 00C0      		rjmp .L270
 4473               	.L264:
 4474               	.LM572:
 4475 1b18 80E0      		ldi r24,lo8(statusMsg)
 4476 1b1a 90E0      		ldi r25,hi8(statusMsg)
 4477 1b1c 60E0      		ldi r22,lo8(.LC3)
 4478 1b1e 70E0      		ldi r23,hi8(.LC3)
 4479               	.L270:
 4480 1b20 0E94 0000 		call strcat
 4481               	.LM573:
 4482 1b24 F801      		movw r30,r16
 4483 1b26 0190      		ld __tmp_reg__,Z+
 4484 1b28 0020      		tst __tmp_reg__
 4485 1b2a 01F4      		brne .-6
 4486 1b2c 3197      		sbiw r30,1
 4487 1b2e E050      		subi r30,lo8(statusMsg)
 4488 1b30 F040      		sbci r31,hi8(statusMsg)
 4489 1b32 7F97      		sbiw r30,31
 4490 1b34 00F0      		brlo .L266
 4491               	.LM574:
 4492 1b36 80E0      		ldi r24,lo8(statusMsg)
 4493 1b38 90E0      		ldi r25,hi8(statusMsg)
 4494 1b3a 0E94 0000 		call sendMessage
 4495               	.LM575:
 4496 1b3e 1092 0000 		sts statusMsg+5,__zero_reg__
 4497               	.L266:
 4498 1b42 2496      		adiw r28,4
 4499               	.LM576:
 4500 1b44 80E0      		ldi r24,hi8(switchStatus+64)
 4501 1b46 C030      		cpi r28,lo8(switchStatus+64)
 4502 1b48 D807      		cpc r29,r24
 4503 1b4a 01F4      		brne .L267
 4504               	.LM577:
 4505 1b4c 80E0      		ldi r24,lo8(statusMsg)
 4506 1b4e 90E0      		ldi r25,hi8(statusMsg)
 4507 1b50 0E94 0000 		call sendMessage
 4508               	/* epilogue start */
 4509               	.LM578:
 4510 1b54 DF91      		pop r29
 4511 1b56 CF91      		pop r28
 4512 1b58 1F91      		pop r17
 4513 1b5a 0F91      		pop r16
 4514 1b5c 0895      		ret
 4515               	.LFE68:
 4517               		.data
 4518               	.LC4:
 4519 000d 496E 703A 		.string	"Inp:"
 4519      00
 4520               		.text
 4521               	.global	inputsProgrammed
 4523               	inputsProgrammed:
 4524               	.LFB67:
 4525               	.LM579:
 4526 1b5e 0F93      		push r16
 4527 1b60 1F93      		push r17
 4528 1b62 CF93      		push r28
 4529 1b64 DF93      		push r29
 4530               	/* prologue: function */
 4531               	/* frame size = 0 */
 4532               	.LM580:
 4533 1b66 1092 0000 		sts statusMsg,__zero_reg__
 4534               	.LM581:
 4535 1b6a 80E0      		ldi r24,lo8(statusMsg)
 4536 1b6c 90E0      		ldi r25,hi8(statusMsg)
 4537 1b6e 60E0      		ldi r22,lo8(.LC4)
 4538 1b70 70E0      		ldi r23,hi8(.LC4)
 4539 1b72 0E94 0000 		call strcat
 4540 1b76 C0E0      		ldi r28,lo8(inputs)
 4541 1b78 D0E0      		ldi r29,hi8(inputs)
 4542               	.LM582:
 4543 1b7a 00E0      		ldi r16,lo8(statusMsg)
 4544 1b7c 10E0      		ldi r17,hi8(statusMsg)
 4545               	.L275:
 4546               	.LM583:
 4547 1b7e 8881      		ld r24,Y
 4548 1b80 8F3F      		cpi r24,lo8(-1)
 4549 1b82 01F4      		brne .L272
 4550               	.LM584:
 4551 1b84 80E0      		ldi r24,lo8(statusMsg)
 4552 1b86 90E0      		ldi r25,hi8(statusMsg)
 4553 1b88 60E0      		ldi r22,lo8(.LC3)
 4554 1b8a 70E0      		ldi r23,hi8(.LC3)
 4555 1b8c 00C0      		rjmp .L278
 4556               	.L272:
 4557               	.LM585:
 4558 1b8e 80E0      		ldi r24,lo8(statusMsg)
 4559 1b90 90E0      		ldi r25,hi8(statusMsg)
 4560 1b92 60E0      		ldi r22,lo8(.LC2)
 4561 1b94 70E0      		ldi r23,hi8(.LC2)
 4562               	.L278:
 4563 1b96 0E94 0000 		call strcat
 4564               	.LM586:
 4565 1b9a F801      		movw r30,r16
 4566 1b9c 0190      		ld __tmp_reg__,Z+
 4567 1b9e 0020      		tst __tmp_reg__
 4568 1ba0 01F4      		brne .-6
 4569 1ba2 3197      		sbiw r30,1
 4570 1ba4 E050      		subi r30,lo8(statusMsg)
 4571 1ba6 F040      		sbci r31,hi8(statusMsg)
 4572 1ba8 7F97      		sbiw r30,31
 4573 1baa 00F0      		brlo .L274
 4574               	.LM587:
 4575 1bac 80E0      		ldi r24,lo8(statusMsg)
 4576 1bae 90E0      		ldi r25,hi8(statusMsg)
 4577 1bb0 0E94 0000 		call sendMessage
 4578               	.LM588:
 4579 1bb4 1092 0000 		sts statusMsg+4,__zero_reg__
 4580               	.L274:
 4581 1bb8 2896      		adiw r28,8
 4582               	.LM589:
 4583 1bba 80E0      		ldi r24,hi8(inputs+32)
 4584 1bbc C030      		cpi r28,lo8(inputs+32)
 4585 1bbe D807      		cpc r29,r24
 4586 1bc0 01F4      		brne .L275
 4587               	.LM590:
 4588 1bc2 80E0      		ldi r24,lo8(statusMsg)
 4589 1bc4 90E0      		ldi r25,hi8(statusMsg)
 4590 1bc6 0E94 0000 		call sendMessage
 4591               	/* epilogue start */
 4592               	.LM591:
 4593 1bca DF91      		pop r29
 4594 1bcc CF91      		pop r28
 4595 1bce 1F91      		pop r17
 4596 1bd0 0F91      		pop r16
 4597 1bd2 0895      		ret
 4598               	.LFE67:
 4600               		.data
 4601               	.LC5:
 4602 0012 5377 693A 		.string	"Swi:"
 4602      00
 4603               		.text
 4604               	.global	switchesProgrammed
 4606               	switchesProgrammed:
 4607               	.LFB66:
 4608               	.LM592:
 4609 1bd4 0F93      		push r16
 4610 1bd6 1F93      		push r17
 4611 1bd8 CF93      		push r28
 4612 1bda DF93      		push r29
 4613               	/* prologue: function */
 4614               	/* frame size = 0 */
 4615               	.LM593:
 4616 1bdc 1092 0000 		sts statusMsg,__zero_reg__
 4617               	.LM594:
 4618 1be0 80E0      		ldi r24,lo8(statusMsg)
 4619 1be2 90E0      		ldi r25,hi8(statusMsg)
 4620 1be4 60E0      		ldi r22,lo8(.LC5)
 4621 1be6 70E0      		ldi r23,hi8(.LC5)
 4622 1be8 0E94 0000 		call strcat
 4623 1bec C0E0      		ldi r28,lo8(switchStuff)
 4624 1bee D0E0      		ldi r29,hi8(switchStuff)
 4625               	.LM595:
 4626 1bf0 00E0      		ldi r16,lo8(statusMsg)
 4627 1bf2 10E0      		ldi r17,hi8(statusMsg)
 4628               	.L283:
 4629               	.LM596:
 4630 1bf4 8881      		ld r24,Y
 4631 1bf6 8F3F      		cpi r24,lo8(-1)
 4632 1bf8 01F4      		brne .L280
 4633               	.LM597:
 4634 1bfa 80E0      		ldi r24,lo8(statusMsg)
 4635 1bfc 90E0      		ldi r25,hi8(statusMsg)
 4636 1bfe 60E0      		ldi r22,lo8(.LC3)
 4637 1c00 70E0      		ldi r23,hi8(.LC3)
 4638 1c02 00C0      		rjmp .L286
 4639               	.L280:
 4640               	.LM598:
 4641 1c04 80E0      		ldi r24,lo8(statusMsg)
 4642 1c06 90E0      		ldi r25,hi8(statusMsg)
 4643 1c08 60E0      		ldi r22,lo8(.LC2)
 4644 1c0a 70E0      		ldi r23,hi8(.LC2)
 4645               	.L286:
 4646 1c0c 0E94 0000 		call strcat
 4647               	.LM599:
 4648 1c10 F801      		movw r30,r16
 4649 1c12 0190      		ld __tmp_reg__,Z+
 4650 1c14 0020      		tst __tmp_reg__
 4651 1c16 01F4      		brne .-6
 4652 1c18 3197      		sbiw r30,1
 4653 1c1a E050      		subi r30,lo8(statusMsg)
 4654 1c1c F040      		sbci r31,hi8(statusMsg)
 4655 1c1e 7F97      		sbiw r30,31
 4656 1c20 00F0      		brlo .L282
 4657               	.LM600:
 4658 1c22 80E0      		ldi r24,lo8(statusMsg)
 4659 1c24 90E0      		ldi r25,hi8(statusMsg)
 4660 1c26 0E94 0000 		call sendMessage
 4661               	.LM601:
 4662 1c2a 1092 0000 		sts statusMsg+4,__zero_reg__
 4663               	.L282:
 4664 1c2e 2196      		adiw r28,1
 4665               	.LM602:
 4666 1c30 80E0      		ldi r24,hi8(switchStuff+16)
 4667 1c32 C030      		cpi r28,lo8(switchStuff+16)
 4668 1c34 D807      		cpc r29,r24
 4669 1c36 01F4      		brne .L283
 4670               	.LM603:
 4671 1c38 80E0      		ldi r24,lo8(statusMsg)
 4672 1c3a 90E0      		ldi r25,hi8(statusMsg)
 4673 1c3c 0E94 0000 		call sendMessage
 4674               	/* epilogue start */
 4675               	.LM604:
 4676 1c40 DF91      		pop r29
 4677 1c42 CF91      		pop r28
 4678 1c44 1F91      		pop r17
 4679 1c46 0F91      		pop r16
 4680 1c48 0895      		ret
 4681               	.LFE66:
 4683               		.data
 4684               	.LC6:
 4685 0017 5072 6F67 		.string	"Progs:"
 4685      733A 00
 4686               		.text
 4687               	.global	programsProgrammed
 4689               	programsProgrammed:
 4690               	.LFB65:
 4691               	.LM605:
 4692 1c4a 0F93      		push r16
 4693 1c4c 1F93      		push r17
 4694 1c4e CF93      		push r28
 4695 1c50 DF93      		push r29
 4696               	/* prologue: function */
 4697               	/* frame size = 0 */
 4698               	.LM606:
 4699 1c52 1092 0000 		sts statusMsg,__zero_reg__
 4700               	.LM607:
 4701 1c56 80E0      		ldi r24,lo8(statusMsg)
 4702 1c58 90E0      		ldi r25,hi8(statusMsg)
 4703 1c5a 60E0      		ldi r22,lo8(.LC6)
 4704 1c5c 70E0      		ldi r23,hi8(.LC6)
 4705 1c5e 0E94 0000 		call strcat
 4706 1c62 C0E0      		ldi r28,lo8(weeklyProgram)
 4707 1c64 D0E0      		ldi r29,hi8(weeklyProgram)
 4708               	.LM608:
 4709 1c66 00E0      		ldi r16,lo8(statusMsg)
 4710 1c68 10E0      		ldi r17,hi8(statusMsg)
 4711               	.L291:
 4712               	.LM609:
 4713 1c6a 8881      		ld r24,Y
 4714 1c6c 8F3F      		cpi r24,lo8(-1)
 4715 1c6e 01F4      		brne .L288
 4716 1c70 8981      		ldd r24,Y+1
 4717 1c72 8F3F      		cpi r24,lo8(-1)
 4718 1c74 01F4      		brne .L288
 4719               	.LM610:
 4720 1c76 80E0      		ldi r24,lo8(statusMsg)
 4721 1c78 90E0      		ldi r25,hi8(statusMsg)
 4722 1c7a 60E0      		ldi r22,lo8(.LC3)
 4723 1c7c 70E0      		ldi r23,hi8(.LC3)
 4724 1c7e 00C0      		rjmp .L294
 4725               	.L288:
 4726               	.LM611:
 4727 1c80 80E0      		ldi r24,lo8(statusMsg)
 4728 1c82 90E0      		ldi r25,hi8(statusMsg)
 4729 1c84 60E0      		ldi r22,lo8(.LC2)
 4730 1c86 70E0      		ldi r23,hi8(.LC2)
 4731               	.L294:
 4732 1c88 0E94 0000 		call strcat
 4733               	.LM612:
 4734 1c8c F801      		movw r30,r16
 4735 1c8e 0190      		ld __tmp_reg__,Z+
 4736 1c90 0020      		tst __tmp_reg__
 4737 1c92 01F4      		brne .-6
 4738 1c94 3197      		sbiw r30,1
 4739 1c96 E050      		subi r30,lo8(statusMsg)
 4740 1c98 F040      		sbci r31,hi8(statusMsg)
 4741 1c9a 7F97      		sbiw r30,31
 4742 1c9c 00F0      		brlo .L290
 4743               	.LM613:
 4744 1c9e 80E0      		ldi r24,lo8(statusMsg)
 4745 1ca0 90E0      		ldi r25,hi8(statusMsg)
 4746 1ca2 0E94 0000 		call sendMessage
 4747               	.LM614:
 4748 1ca6 1092 0000 		sts statusMsg+6,__zero_reg__
 4749               	.L290:
 4750 1caa 2A96      		adiw r28,10
 4751               	.LM615:
 4752 1cac 80E0      		ldi r24,hi8(weeklyProgram+200)
 4753 1cae C030      		cpi r28,lo8(weeklyProgram+200)
 4754 1cb0 D807      		cpc r29,r24
 4755 1cb2 01F4      		brne .L291
 4756               	.LM616:
 4757 1cb4 80E0      		ldi r24,lo8(statusMsg)
 4758 1cb6 90E0      		ldi r25,hi8(statusMsg)
 4759 1cb8 0E94 0000 		call sendMessage
 4760               	/* epilogue start */
 4761               	.LM617:
 4762 1cbc DF91      		pop r29
 4763 1cbe CF91      		pop r28
 4764 1cc0 1F91      		pop r17
 4765 1cc2 0F91      		pop r16
 4766 1cc4 0895      		ret
 4767               	.LFE65:
 4769               	.global	radioTest
 4771               	radioTest:
 4772               	.LFB73:
 4773               	.LM618:
 4774               	/* prologue: function */
 4775               	/* frame size = 0 */
 4776               	.LM619:
 4777 1cc6 8AE0      		ldi r24,lo8(10)
 4778 1cc8 0E94 0000 		call readAddr
 4779 1ccc E82F      		mov r30,r24
 4780               	.LVL311:
 4781               	.LM620:
 4782 1cce 8091 0000 		lds r24,rx_addr_p0
 4783 1cd2 8217      		cp r24,r18
 4784               	.LVL312:
 4785 1cd4 01F4      		brne .L301
 4786 1cd6 8091 0000 		lds r24,rx_addr_p0+1
 4787 1cda 8317      		cp r24,r19
 4788               	.LVL313:
 4789 1cdc 01F4      		brne .L301
 4790 1cde 8091 0000 		lds r24,rx_addr_p0+2
 4791 1ce2 8417      		cp r24,r20
 4792               	.LVL314:
 4793 1ce4 01F4      		brne .L301
 4794 1ce6 8091 0000 		lds r24,rx_addr_p0+3
 4795 1cea 8517      		cp r24,r21
 4796               	.LVL315:
 4797 1cec 01F4      		brne .L301
 4798 1cee 8091 0000 		lds r24,rx_addr_p0+4
 4799 1cf2 8617      		cp r24,r22
 4800               	.LVL316:
 4801 1cf4 01F4      		brne .L301
 4802 1cf6 8091 0000 		lds r24,rx_addr_p0+5
 4803 1cfa 8717      		cp r24,r23
 4804               	.LVL317:
 4805 1cfc 01F4      		brne .L301
 4806 1cfe 8091 0000 		lds r24,rx_addr_p0+6
 4807 1d02 8E17      		cp r24,r30
 4808 1d04 01F4      		brne .L301
 4809 1d06 8091 0000 		lds r24,rx_addr_p0+7
 4810 1d0a 8917      		cp r24,r25
 4811               	.LVL318:
 4812 1d0c 01F0      		breq .L302
 4813               	.L301:
 4814               	.LM621:
 4815 1d0e 81E0      		ldi r24,lo8(1)
 4816 1d10 8093 0000 		sts failCondition,r24
 4817 1d14 2FEF      		ldi r18,lo8(-1)
 4818 1d16 3FEF      		ldi r19,hi8(-1)
 4819               	.LVL319:
 4820 1d18 00C0      		rjmp .L298
 4821               	.LVL320:
 4822               	.L302:
 4823               	.LM622:
 4824 1d1a 8091 0000 		lds r24,failCondition
 4825 1d1e 8150      		subi r24,lo8(-(-1))
 4826 1d20 8230      		cpi r24,lo8(2)
 4827 1d22 00F4      		brsh .L303
 4828               	.L299:
 4829               	.LBB111:
 4830               	.LBB112:
 4831               	.LM623:
 4832 1d24 1092 0000 		sts failTimer,__zero_reg__
 4833               	.LM624:
 4834 1d28 5A9A      		sbi 43-32,2
 4835               	.LM625:
 4836 1d2a 529A      		sbi 42-32,2
 4837               	.L303:
 4838 1d2c 21E0      		ldi r18,lo8(1)
 4839 1d2e 30E0      		ldi r19,hi8(1)
 4840               	.LVL321:
 4841               	.L298:
 4842               	.LBE112:
 4843               	.LBE111:
 4844               	.LM626:
 4845 1d30 C901      		movw r24,r18
 4846               	/* epilogue start */
 4847 1d32 0895      		ret
 4848               	.LFE73:
 4850               	.global	radioInit
 4852               	radioInit:
 4853               	.LFB72:
 4854               	.LM627:
 4855 1d34 0F93      		push r16
 4856 1d36 1F93      		push r17
 4857               	/* prologue: function */
 4858               	/* frame size = 0 */
 4859               	.LM628:
 4860 1d38 0E94 0000 		call nrfInit
 4861               	.LM629:
 4862 1d3c 91E0      		ldi r25,lo8(1)
 4863 1d3e 9093 0000 		sts rx_addr_p0,r25
 4864 1d42 80EF      		ldi r24,lo8(-16)
 4865 1d44 8093 0000 		sts rx_addr_p0+1,r24
 4866 1d48 8093 0000 		sts rx_addr_p0+2,r24
 4867 1d4c 8093 0000 		sts rx_addr_p0+3,r24
 4868 1d50 8093 0000 		sts rx_addr_p0+4,r24
 4869 1d54 1092 0000 		sts rx_addr_p0+5,__zero_reg__
 4870 1d58 1092 0000 		sts rx_addr_p0+6,__zero_reg__
 4871 1d5c 1092 0000 		sts rx_addr_p0+7,__zero_reg__
 4872               	.LM630:
 4873 1d60 9093 0000 		sts tx_addr,r25
 4874 1d64 8093 0000 		sts tx_addr+1,r24
 4875 1d68 8093 0000 		sts tx_addr+2,r24
 4876 1d6c 8093 0000 		sts tx_addr+3,r24
 4877 1d70 8093 0000 		sts tx_addr+4,r24
 4878 1d74 1092 0000 		sts tx_addr+5,__zero_reg__
 4879 1d78 1092 0000 		sts tx_addr+6,__zero_reg__
 4880 1d7c 1092 0000 		sts tx_addr+7,__zero_reg__
 4881               	.LM631:
 4882 1d80 8BE0      		ldi r24,lo8(11)
 4883 1d82 0E94 0000 		call readAddr
 4884 1d86 2093 0000 		sts rx_addr_p1,r18
 4885 1d8a 3093 0000 		sts rx_addr_p1+1,r19
 4886 1d8e 4093 0000 		sts rx_addr_p1+2,r20
 4887 1d92 5093 0000 		sts rx_addr_p1+3,r21
 4888 1d96 6093 0000 		sts rx_addr_p1+4,r22
 4889 1d9a 7093 0000 		sts rx_addr_p1+5,r23
 4890 1d9e 8093 0000 		sts rx_addr_p1+6,r24
 4891 1da2 9093 0000 		sts rx_addr_p1+7,r25
 4892               	.LM632:
 4893 1da6 8CE0      		ldi r24,lo8(12)
 4894 1da8 0E94 0000 		call readAddr
 4895 1dac 2093 0000 		sts rx_addr_p2,r18
 4896 1db0 3093 0000 		sts rx_addr_p2+1,r19
 4897 1db4 4093 0000 		sts rx_addr_p2+2,r20
 4898 1db8 5093 0000 		sts rx_addr_p2+3,r21
 4899 1dbc 6093 0000 		sts rx_addr_p2+4,r22
 4900 1dc0 7093 0000 		sts rx_addr_p2+5,r23
 4901 1dc4 8093 0000 		sts rx_addr_p2+6,r24
 4902 1dc8 9093 0000 		sts rx_addr_p2+7,r25
 4903               	.LM633:
 4904 1dcc 8DE0      		ldi r24,lo8(13)
 4905 1dce 0E94 0000 		call readAddr
 4906 1dd2 2093 0000 		sts rx_addr_p3,r18
 4907 1dd6 3093 0000 		sts rx_addr_p3+1,r19
 4908 1dda 4093 0000 		sts rx_addr_p3+2,r20
 4909 1dde 5093 0000 		sts rx_addr_p3+3,r21
 4910 1de2 6093 0000 		sts rx_addr_p3+4,r22
 4911 1de6 7093 0000 		sts rx_addr_p3+5,r23
 4912 1dea 8093 0000 		sts rx_addr_p3+6,r24
 4913 1dee 9093 0000 		sts rx_addr_p3+7,r25
 4914               	.LM634:
 4915 1df2 8EE0      		ldi r24,lo8(14)
 4916 1df4 0E94 0000 		call readAddr
 4917 1df8 2093 0000 		sts rx_addr_p4,r18
 4918 1dfc 3093 0000 		sts rx_addr_p4+1,r19
 4919 1e00 4093 0000 		sts rx_addr_p4+2,r20
 4920 1e04 5093 0000 		sts rx_addr_p4+3,r21
 4921 1e08 6093 0000 		sts rx_addr_p4+4,r22
 4922 1e0c 7093 0000 		sts rx_addr_p4+5,r23
 4923 1e10 8093 0000 		sts rx_addr_p4+6,r24
 4924 1e14 9093 0000 		sts rx_addr_p4+7,r25
 4925               	.LM635:
 4926 1e18 8FE0      		ldi r24,lo8(15)
 4927 1e1a 0E94 0000 		call readAddr
 4928 1e1e 2093 0000 		sts rx_addr_p5,r18
 4929 1e22 3093 0000 		sts rx_addr_p5+1,r19
 4930 1e26 4093 0000 		sts rx_addr_p5+2,r20
 4931 1e2a 5093 0000 		sts rx_addr_p5+3,r21
 4932 1e2e 6093 0000 		sts rx_addr_p5+4,r22
 4933 1e32 7093 0000 		sts rx_addr_p5+5,r23
 4934 1e36 8093 0000 		sts rx_addr_p5+6,r24
 4935 1e3a 9093 0000 		sts rx_addr_p5+7,r25
 4936               	.LM636:
 4937 1e3e 86E0      		ldi r24,lo8(6)
 4938 1e40 66E0      		ldi r22,lo8(6)
 4939 1e42 0E94 0000 		call writeReg
 4940               	.LM637:
 4941 1e46 0091 0000 		lds r16,rx_addr_p0
 4942 1e4a 1091 0000 		lds r17,rx_addr_p0+1
 4943 1e4e 2091 0000 		lds r18,rx_addr_p0+2
 4944 1e52 3091 0000 		lds r19,rx_addr_p0+3
 4945 1e56 4091 0000 		lds r20,rx_addr_p0+4
 4946 1e5a 5091 0000 		lds r21,rx_addr_p0+5
 4947 1e5e 6091 0000 		lds r22,rx_addr_p0+6
 4948 1e62 7091 0000 		lds r23,rx_addr_p0+7
 4949 1e66 8AE0      		ldi r24,lo8(10)
 4950 1e68 0E94 0000 		call writeAddr
 4951               	.LM638:
 4952 1e6c 0091 0000 		lds r16,tx_addr
 4953 1e70 1091 0000 		lds r17,tx_addr+1
 4954 1e74 2091 0000 		lds r18,tx_addr+2
 4955 1e78 3091 0000 		lds r19,tx_addr+3
 4956 1e7c 4091 0000 		lds r20,tx_addr+4
 4957 1e80 5091 0000 		lds r21,tx_addr+5
 4958 1e84 6091 0000 		lds r22,tx_addr+6
 4959 1e88 7091 0000 		lds r23,tx_addr+7
 4960 1e8c 80E1      		ldi r24,lo8(16)
 4961 1e8e 0E94 0000 		call writeAddr
 4962               	.LM639:
 4963 1e92 8CE1      		ldi r24,lo8(28)
 4964 1e94 6FE3      		ldi r22,lo8(63)
 4965 1e96 0E94 0000 		call writeReg
 4966               	.LM640:
 4967 1e9a 8DE1      		ldi r24,lo8(29)
 4968 1e9c 64E0      		ldi r22,lo8(4)
 4969 1e9e 0E94 0000 		call writeReg
 4970               	.LM641:
 4971 1ea2 85E0      		ldi r24,lo8(5)
 4972 1ea4 6AE2      		ldi r22,lo8(42)
 4973 1ea6 0E94 0000 		call writeReg
 4974               	.LM642:
 4975 1eaa 80E0      		ldi r24,lo8(0)
 4976 1eac 68E0      		ldi r22,lo8(8)
 4977 1eae 0E94 0000 		call writeReg
 4978               	.LM643:
 4979 1eb2 84E0      		ldi r24,lo8(4)
 4980 1eb4 6FE0      		ldi r22,lo8(15)
 4981 1eb6 0E94 0000 		call writeReg
 4982               	.LM644:
 4983 1eba 0E94 0000 		call radioTest
 4984               	.LM645:
 4985 1ebe 0E94 0000 		call startRadio
 4986               	/* epilogue start */
 4987               	.LM646:
 4988 1ec2 1F91      		pop r17
 4989 1ec4 0F91      		pop r16
 4990 1ec6 0895      		ret
 4991               	.LFE72:
 4993               		.data
 4994               	.LC7:
 4995 001e 3000      		.string	"0"
 4996               		.text
 4997               	.global	returnHexWithout
 4999               	returnHexWithout:
 5000               	.LFB71:
 5001               	.LM647:
 5002               	.LVL322:
 5003 1ec8 0F93      		push r16
 5004 1eca 1F93      		push r17
 5005 1ecc CF93      		push r28
 5006 1ece DF93      		push r29
 5007               	/* prologue: function */
 5008               	/* frame size = 0 */
 5009 1ed0 EB01      		movw r28,r22
 5010               	.LM648:
 5011 1ed2 1882      		st Y,__zero_reg__
 5012               	.LM649:
 5013 1ed4 00E0      		ldi r16,lo8(tempHugeString)
 5014 1ed6 10E0      		ldi r17,hi8(tempHugeString)
 5015 1ed8 B801      		movw r22,r16
 5016               	.LVL323:
 5017 1eda 40E1      		ldi r20,lo8(16)
 5018 1edc 50E0      		ldi r21,hi8(16)
 5019 1ede 0E94 0000 		call itoa
 5020               	.LVL324:
 5021               	.LM650:
 5022 1ee2 F801      		movw r30,r16
 5023 1ee4 0190      		ld __tmp_reg__,Z+
 5024 1ee6 0020      		tst __tmp_reg__
 5025 1ee8 01F4      		brne .-6
 5026 1eea 3197      		sbiw r30,1
 5027 1eec E01B      		sub r30,r16
 5028 1eee F10B      		sbc r31,r17
 5029 1ef0 E130      		cpi r30,1
 5030 1ef2 F105      		cpc r31,__zero_reg__
 5031 1ef4 01F0      		breq .L307
 5032 1ef6 3397      		sbiw r30,3
 5033 1ef8 01F4      		brne .L308
 5034               	.L307:
 5035               	.LM651:
 5036 1efa CE01      		movw r24,r28
 5037 1efc 60E0      		ldi r22,lo8(.LC7)
 5038 1efe 70E0      		ldi r23,hi8(.LC7)
 5039 1f00 0E94 0000 		call strcat
 5040               	.L308:
 5041               	.LM652:
 5042 1f04 CE01      		movw r24,r28
 5043 1f06 60E0      		ldi r22,lo8(tempHugeString)
 5044 1f08 70E0      		ldi r23,hi8(tempHugeString)
 5045 1f0a 0E94 0000 		call strcat
 5046               	/* epilogue start */
 5047               	.LM653:
 5048 1f0e DF91      		pop r29
 5049 1f10 CF91      		pop r28
 5050               	.LVL325:
 5051 1f12 1F91      		pop r17
 5052 1f14 0F91      		pop r16
 5053 1f16 0895      		ret
 5054               	.LFE71:
 5056               		.data
 5057               	.LC10:
 5058 0020 7230 2030 		.string	"r0 0x"
 5058      7800 
 5059               	.LC11:
 5060 0026 7231 2030 		.string	"r1 0x"
 5060      7800 
 5061               	.LC12:
 5062 002c 7232 2030 		.string	"r2 0x"
 5062      7800 
 5063               	.LC13:
 5064 0032 7233 2030 		.string	"r3 0x"
 5064      7800 
 5065               	.LC14:
 5066 0038 7234 2030 		.string	"r4 0x"
 5066      7800 
 5067               	.LC15:
 5068 003e 7235 2030 		.string	"r5 0x"
 5068      7800 
 5069               	.LC16:
 5070 0044 7420 3078 		.string	"t 0x"
 5070      00
 5071               	.LC8:
 5072 0049 3078 3030 		.string	"0x00"
 5072      00
 5073               	.LC9:
 5074 004e 3030 3030 		.string	"00000"
 5074      3000 
 5075               		.text
 5076               	.global	radioChangeAddress
 5078               	radioChangeAddress:
 5079               	.LFB76:
 5080               	.LM654:
 5081               	.LVL326:
 5082 1f18 2F92      		push r2
 5083 1f1a 3F92      		push r3
 5084 1f1c 4F92      		push r4
 5085 1f1e 5F92      		push r5
 5086 1f20 6F92      		push r6
 5087 1f22 7F92      		push r7
 5088 1f24 8F92      		push r8
 5089 1f26 9F92      		push r9
 5090 1f28 AF92      		push r10
 5091 1f2a BF92      		push r11
 5092 1f2c CF92      		push r12
 5093 1f2e DF92      		push r13
 5094 1f30 EF92      		push r14
 5095 1f32 FF92      		push r15
 5096 1f34 0F93      		push r16
 5097 1f36 1F93      		push r17
 5098 1f38 DF93      		push r29
 5099 1f3a CF93      		push r28
 5100 1f3c CDB7      		in r28,__SP_L__
 5101 1f3e DEB7      		in r29,__SP_H__
 5102 1f40 2B97      		sbiw r28,11
 5103 1f42 0FB6      		in __tmp_reg__,__SREG__
 5104 1f44 F894      		cli
 5105 1f46 DEBF      		out __SP_H__,r29
 5106 1f48 0FBE      		out __SREG__,__tmp_reg__
 5107 1f4a CDBF      		out __SP_L__,r28
 5108               	/* prologue: function */
 5109               	/* frame size = 11 */
 5110 1f4c 1C01      		movw r2,r24
 5111               	.LM655:
 5112 1f4e 1092 0000 		sts statusMsg,__zero_reg__
 5113               	.LM656:
 5114 1f52 DE01      		movw r26,r28
 5115 1f54 1196      		adiw r26,1
 5116 1f56 E0E0      		ldi r30,lo8(.LC8)
 5117 1f58 F0E0      		ldi r31,hi8(.LC8)
 5118 1f5a 85E0      		ldi r24,lo8(5)
 5119               	.LVL327:
 5120               	.L311:
 5121 1f5c 0190      		ld r0,Z+
 5122 1f5e 0D92      		st X+,r0
 5123 1f60 8150      		subi r24,lo8(-(-1))
 5124 1f62 01F4      		brne .L311
 5125               	.LM657:
 5126 1f64 DE01      		movw r26,r28
 5127 1f66 1696      		adiw r26,6
 5128 1f68 E0E0      		ldi r30,lo8(.LC9)
 5129 1f6a F0E0      		ldi r31,hi8(.LC9)
 5130 1f6c 86E0      		ldi r24,lo8(6)
 5131               	.L312:
 5132 1f6e 0190      		ld r0,Z+
 5133 1f70 0D92      		st X+,r0
 5134 1f72 8150      		subi r24,lo8(-(-1))
 5135 1f74 01F4      		brne .L312
 5136 1f76 2101      		movw r4,r2
 5137 1f78 EE24      		clr r14
 5138 1f7a FF24      		clr r15
 5139               	.LVL328:
 5140 1f7c DD24      		clr r13
 5141               	.LVL329:
 5142 1f7e CC24      		clr r12
 5143               	.LVL330:
 5144 1f80 BB24      		clr r11
 5145               	.LVL331:
 5146 1f82 AA24      		clr r10
 5147               	.LVL332:
 5148 1f84 9924      		clr r9
 5149               	.LVL333:
 5150 1f86 8824      		clr r8
 5151               	.LVL334:
 5152 1f88 7724      		clr r7
 5153               	.LVL335:
 5154 1f8a 6624      		clr r6
 5155               	.LVL336:
 5156               	.L314:
 5157               	.LM658:
 5158 1f8c F201      		movw r30,r4
 5159 1f8e 8781      		ldd r24,Z+7
 5160 1f90 8B83      		std Y+3,r24
 5161               	.LM659:
 5162 1f92 8085      		ldd r24,Z+8
 5163 1f94 8C83      		std Y+4,r24
 5164               	.LM660:
 5165 1f96 CE01      		movw r24,r28
 5166 1f98 0196      		adiw r24,1
 5167 1f9a 60E0      		ldi r22,lo8(0)
 5168 1f9c 70E0      		ldi r23,hi8(0)
 5169 1f9e 40E0      		ldi r20,lo8(0)
 5170 1fa0 50E0      		ldi r21,hi8(0)
 5171 1fa2 0E94 0000 		call strtol
 5172               	.LM661:
 5173 1fa6 9B01      		movw r18,r22
 5174 1fa8 330F      		lsl r19
 5175 1faa 220B      		sbc r18,r18
 5176 1fac 322F      		mov r19,r18
 5177 1fae 462F      		mov r20,r22
 5178 1fb0 D42A      		or r13,r20
 5179 1fb2 C72A      		or r12,r23
 5180 1fb4 B22A      		or r11,r18
 5181 1fb6 A22A      		or r10,r18
 5182 1fb8 922A      		or r9,r18
 5183 1fba 822A      		or r8,r18
 5184 1fbc 722A      		or r7,r18
 5185 1fbe 622A      		or r6,r18
 5186               	.LM662:
 5187 1fc0 F4E0      		ldi r31,lo8(4)
 5188 1fc2 EF16      		cp r14,r31
 5189 1fc4 F104      		cpc r15,__zero_reg__
 5190 1fc6 01F0      		breq .L313
 5191               	.LM663:
 5192 1fc8 2D2D      		mov r18,r13
 5193 1fca 3C2D      		mov r19,r12
 5194 1fcc 4B2D      		mov r20,r11
 5195 1fce 5A2D      		mov r21,r10
 5196 1fd0 692D      		mov r22,r9
 5197 1fd2 782D      		mov r23,r8
 5198 1fd4 872D      		mov r24,r7
 5199 1fd6 962D      		mov r25,r6
 5200 1fd8 08E0      		ldi r16,lo8(8)
 5201 1fda 0E94 0000 		call __ashldi3
 5202 1fde D22E      		mov r13,r18
 5203 1fe0 C32E      		mov r12,r19
 5204 1fe2 B42E      		mov r11,r20
 5205 1fe4 A52E      		mov r10,r21
 5206 1fe6 962E      		mov r9,r22
 5207 1fe8 872E      		mov r8,r23
 5208 1fea 782E      		mov r7,r24
 5209 1fec 692E      		mov r6,r25
 5210               	.L313:
 5211               	.LM664:
 5212 1fee 0894      		sec
 5213 1ff0 E11C      		adc r14,__zero_reg__
 5214 1ff2 F11C      		adc r15,__zero_reg__
 5215 1ff4 82E0      		ldi r24,lo8(2)
 5216 1ff6 90E0      		ldi r25,hi8(2)
 5217 1ff8 480E      		add r4,r24
 5218 1ffa 591E      		adc r5,r25
 5219 1ffc 95E0      		ldi r25,lo8(5)
 5220 1ffe E916      		cp r14,r25
 5221 2000 F104      		cpc r15,__zero_reg__
 5222 2002 01F4      		brne .L314
 5223               	.LM665:
 5224 2004 F101      		movw r30,r2
 5225 2006 8381      		ldd r24,Z+3
 5226 2008 8333      		cpi r24,lo8(51)
 5227 200a 01F4      		brne .+2
 5228 200c 00C0      		rjmp .L319
 5229 200e 8433      		cpi r24,lo8(52)
 5230 2010 00F4      		brsh .L323
 5231 2012 8133      		cpi r24,lo8(49)
 5232 2014 01F0      		breq .L317
 5233 2016 8233      		cpi r24,lo8(50)
 5234 2018 00F4      		brsh .L318
 5235 201a 8033      		cpi r24,lo8(48)
 5236 201c 01F0      		breq .+2
 5237 201e 00C0      		rjmp .L315
 5238 2020 00C0      		rjmp .L331
 5239               	.L323:
 5240 2022 8533      		cpi r24,lo8(53)
 5241 2024 01F4      		brne .+2
 5242 2026 00C0      		rjmp .L321
 5243 2028 8533      		cpi r24,lo8(53)
 5244 202a 00F4      		brsh .+2
 5245 202c 00C0      		rjmp .L320
 5246 202e 8435      		cpi r24,lo8(84)
 5247 2030 01F0      		breq .+2
 5248 2032 00C0      		rjmp .L315
 5249 2034 00C0      		rjmp .L332
 5250               	.L331:
 5251               	.LM666:
 5252 2036 D092 0000 		sts rx_addr_p0,r13
 5253 203a C092 0000 		sts rx_addr_p0+1,r12
 5254 203e B092 0000 		sts rx_addr_p0+2,r11
 5255 2042 A092 0000 		sts rx_addr_p0+3,r10
 5256 2046 9092 0000 		sts rx_addr_p0+4,r9
 5257 204a 8092 0000 		sts rx_addr_p0+5,r8
 5258 204e 7092 0000 		sts rx_addr_p0+6,r7
 5259 2052 6092 0000 		sts rx_addr_p0+7,r6
 5260               	.LM667:
 5261 2056 80E0      		ldi r24,lo8(statusMsg)
 5262 2058 90E0      		ldi r25,hi8(statusMsg)
 5263 205a 60E0      		ldi r22,lo8(.LC10)
 5264 205c 70E0      		ldi r23,hi8(.LC10)
 5265 205e 0E94 0000 		call strcat
 5266               	.LM668:
 5267 2062 8AE0      		ldi r24,lo8(10)
 5268 2064 00C0      		rjmp .L330
 5269               	.L317:
 5270               	.LM669:
 5271 2066 D092 0000 		sts rx_addr_p1,r13
 5272 206a C092 0000 		sts rx_addr_p1+1,r12
 5273 206e B092 0000 		sts rx_addr_p1+2,r11
 5274 2072 A092 0000 		sts rx_addr_p1+3,r10
 5275 2076 9092 0000 		sts rx_addr_p1+4,r9
 5276 207a 8092 0000 		sts rx_addr_p1+5,r8
 5277 207e 7092 0000 		sts rx_addr_p1+6,r7
 5278 2082 6092 0000 		sts rx_addr_p1+7,r6
 5279               	.LM670:
 5280 2086 80E0      		ldi r24,lo8(statusMsg)
 5281 2088 90E0      		ldi r25,hi8(statusMsg)
 5282 208a 60E0      		ldi r22,lo8(.LC11)
 5283 208c 70E0      		ldi r23,hi8(.LC11)
 5284 208e 0E94 0000 		call strcat
 5285               	.LM671:
 5286 2092 8BE0      		ldi r24,lo8(11)
 5287 2094 00C0      		rjmp .L330
 5288               	.L318:
 5289               	.LM672:
 5290 2096 D092 0000 		sts rx_addr_p2,r13
 5291 209a C092 0000 		sts rx_addr_p2+1,r12
 5292 209e B092 0000 		sts rx_addr_p2+2,r11
 5293 20a2 A092 0000 		sts rx_addr_p2+3,r10
 5294 20a6 9092 0000 		sts rx_addr_p2+4,r9
 5295 20aa 8092 0000 		sts rx_addr_p2+5,r8
 5296 20ae 7092 0000 		sts rx_addr_p2+6,r7
 5297 20b2 6092 0000 		sts rx_addr_p2+7,r6
 5298               	.LM673:
 5299 20b6 80E0      		ldi r24,lo8(statusMsg)
 5300 20b8 90E0      		ldi r25,hi8(statusMsg)
 5301 20ba 60E0      		ldi r22,lo8(.LC12)
 5302 20bc 70E0      		ldi r23,hi8(.LC12)
 5303 20be 0E94 0000 		call strcat
 5304               	.LM674:
 5305 20c2 8CE0      		ldi r24,lo8(12)
 5306 20c4 00C0      		rjmp .L330
 5307               	.L319:
 5308               	.LM675:
 5309 20c6 D092 0000 		sts rx_addr_p3,r13
 5310 20ca C092 0000 		sts rx_addr_p3+1,r12
 5311 20ce B092 0000 		sts rx_addr_p3+2,r11
 5312 20d2 A092 0000 		sts rx_addr_p3+3,r10
 5313 20d6 9092 0000 		sts rx_addr_p3+4,r9
 5314 20da 8092 0000 		sts rx_addr_p3+5,r8
 5315 20de 7092 0000 		sts rx_addr_p3+6,r7
 5316 20e2 6092 0000 		sts rx_addr_p3+7,r6
 5317               	.LM676:
 5318 20e6 80E0      		ldi r24,lo8(statusMsg)
 5319 20e8 90E0      		ldi r25,hi8(statusMsg)
 5320 20ea 60E0      		ldi r22,lo8(.LC13)
 5321 20ec 70E0      		ldi r23,hi8(.LC13)
 5322 20ee 0E94 0000 		call strcat
 5323               	.LM677:
 5324 20f2 8DE0      		ldi r24,lo8(13)
 5325 20f4 00C0      		rjmp .L330
 5326               	.L320:
 5327               	.LM678:
 5328 20f6 D092 0000 		sts rx_addr_p4,r13
 5329 20fa C092 0000 		sts rx_addr_p4+1,r12
 5330 20fe B092 0000 		sts rx_addr_p4+2,r11
 5331 2102 A092 0000 		sts rx_addr_p4+3,r10
 5332 2106 9092 0000 		sts rx_addr_p4+4,r9
 5333 210a 8092 0000 		sts rx_addr_p4+5,r8
 5334 210e 7092 0000 		sts rx_addr_p4+6,r7
 5335 2112 6092 0000 		sts rx_addr_p4+7,r6
 5336               	.LM679:
 5337 2116 80E0      		ldi r24,lo8(statusMsg)
 5338 2118 90E0      		ldi r25,hi8(statusMsg)
 5339 211a 60E0      		ldi r22,lo8(.LC14)
 5340 211c 70E0      		ldi r23,hi8(.LC14)
 5341 211e 0E94 0000 		call strcat
 5342               	.LM680:
 5343 2122 8EE0      		ldi r24,lo8(14)
 5344 2124 00C0      		rjmp .L330
 5345               	.L321:
 5346               	.LM681:
 5347 2126 D092 0000 		sts rx_addr_p5,r13
 5348 212a C092 0000 		sts rx_addr_p5+1,r12
 5349 212e B092 0000 		sts rx_addr_p5+2,r11
 5350 2132 A092 0000 		sts rx_addr_p5+3,r10
 5351 2136 9092 0000 		sts rx_addr_p5+4,r9
 5352 213a 8092 0000 		sts rx_addr_p5+5,r8
 5353 213e 7092 0000 		sts rx_addr_p5+6,r7
 5354 2142 6092 0000 		sts rx_addr_p5+7,r6
 5355               	.LM682:
 5356 2146 80E0      		ldi r24,lo8(statusMsg)
 5357 2148 90E0      		ldi r25,hi8(statusMsg)
 5358 214a 60E0      		ldi r22,lo8(.LC15)
 5359 214c 70E0      		ldi r23,hi8(.LC15)
 5360 214e 0E94 0000 		call strcat
 5361               	.LM683:
 5362 2152 8FE0      		ldi r24,lo8(15)
 5363 2154 00C0      		rjmp .L330
 5364               	.L332:
 5365               	.LM684:
 5366 2156 D092 0000 		sts tx_addr,r13
 5367 215a C092 0000 		sts tx_addr+1,r12
 5368 215e B092 0000 		sts tx_addr+2,r11
 5369 2162 A092 0000 		sts tx_addr+3,r10
 5370 2166 9092 0000 		sts tx_addr+4,r9
 5371 216a 8092 0000 		sts tx_addr+5,r8
 5372 216e 7092 0000 		sts tx_addr+6,r7
 5373 2172 6092 0000 		sts tx_addr+7,r6
 5374               	.LM685:
 5375 2176 80E0      		ldi r24,lo8(statusMsg)
 5376 2178 90E0      		ldi r25,hi8(statusMsg)
 5377 217a 60E0      		ldi r22,lo8(.LC16)
 5378 217c 70E0      		ldi r23,hi8(.LC16)
 5379 217e 0E94 0000 		call strcat
 5380               	.LM686:
 5381 2182 80E1      		ldi r24,lo8(16)
 5382               	.L330:
 5383 2184 0D2D      		mov r16,r13
 5384 2186 1C2D      		mov r17,r12
 5385 2188 2B2D      		mov r18,r11
 5386 218a 3A2D      		mov r19,r10
 5387 218c 492D      		mov r20,r9
 5388 218e 582D      		mov r21,r8
 5389 2190 672D      		mov r22,r7
 5390 2192 762D      		mov r23,r6
 5391 2194 0E94 0000 		call writeAddr
 5392               	.L315:
 5393               	.LM687:
 5394 2198 E6E0      		ldi r30,lo8(6)
 5395 219a EE2E      		mov r14,r30
 5396 219c F12C      		mov r15,__zero_reg__
 5397               	.LVL337:
 5398 219e EC0E      		add r14,r28
 5399 21a0 FD1E      		adc r15,r29
 5400 21a2 2D2D      		mov r18,r13
 5401 21a4 3C2D      		mov r19,r12
 5402 21a6 4B2D      		mov r20,r11
 5403 21a8 5A2D      		mov r21,r10
 5404 21aa 692D      		mov r22,r9
 5405 21ac 782D      		mov r23,r8
 5406 21ae 872D      		mov r24,r7
 5407 21b0 962D      		mov r25,r6
 5408 21b2 8701      		movw r16,r14
 5409 21b4 0E94 0000 		call unformatAddress
 5410               	.LM688:
 5411 21b8 7BE0      		ldi r23,lo8(11)
 5412 21ba E72E      		mov r14,r23
 5413 21bc F12C      		mov r15,__zero_reg__
 5414 21be EC0E      		add r14,r28
 5415 21c0 FD1E      		adc r15,r29
 5416               	.L324:
 5417               	.LM689:
 5418 21c2 F801      		movw r30,r16
 5419 21c4 8191      		ld r24,Z+
 5420 21c6 8F01      		movw r16,r30
 5421 21c8 90E0      		ldi r25,lo8(0)
 5422 21ca 60E0      		ldi r22,lo8(tempLongString)
 5423 21cc 70E0      		ldi r23,hi8(tempLongString)
 5424 21ce 0E94 0000 		call returnHexWithout
 5425               	.LM690:
 5426 21d2 80E0      		ldi r24,lo8(statusMsg)
 5427 21d4 90E0      		ldi r25,hi8(statusMsg)
 5428 21d6 60E0      		ldi r22,lo8(tempLongString)
 5429 21d8 70E0      		ldi r23,hi8(tempLongString)
 5430 21da 0E94 0000 		call strcat
 5431               	.LM691:
 5432 21de 0E15      		cp r16,r14
 5433 21e0 1F05      		cpc r17,r15
 5434 21e2 01F4      		brne .L324
 5435               	.LM692:
 5436 21e4 80E0      		ldi r24,lo8(statusMsg)
 5437 21e6 90E0      		ldi r25,hi8(statusMsg)
 5438 21e8 0E94 0000 		call sendMessage
 5439               	/* epilogue start */
 5440               	.LM693:
 5441 21ec 2B96      		adiw r28,11
 5442 21ee 0FB6      		in __tmp_reg__,__SREG__
 5443 21f0 F894      		cli
 5444 21f2 DEBF      		out __SP_H__,r29
 5445 21f4 0FBE      		out __SREG__,__tmp_reg__
 5446 21f6 CDBF      		out __SP_L__,r28
 5447 21f8 CF91      		pop r28
 5448 21fa DF91      		pop r29
 5449 21fc 1F91      		pop r17
 5450 21fe 0F91      		pop r16
 5451 2200 FF90      		pop r15
 5452 2202 EF90      		pop r14
 5453 2204 DF90      		pop r13
 5454               	.LVL338:
 5455 2206 CF90      		pop r12
 5456               	.LVL339:
 5457 2208 BF90      		pop r11
 5458               	.LVL340:
 5459 220a AF90      		pop r10
 5460               	.LVL341:
 5461 220c 9F90      		pop r9
 5462               	.LVL342:
 5463 220e 8F90      		pop r8
 5464               	.LVL343:
 5465 2210 7F90      		pop r7
 5466               	.LVL344:
 5467 2212 6F90      		pop r6
 5468               	.LVL345:
 5469 2214 5F90      		pop r5
 5470 2216 4F90      		pop r4
 5471 2218 3F90      		pop r3
 5472 221a 2F90      		pop r2
 5473               	.LVL346:
 5474 221c 0895      		ret
 5475               	.LFE76:
 5477               		.data
 5478               	.LC17:
 5479 0054 7231 2D30 		.string	"r1-0x"
 5479      7800 
 5480               	.LC18:
 5481 005a 7232 2D30 		.string	"r2-0x"
 5481      7800 
 5482               	.LC19:
 5483 0060 7233 2D30 		.string	"r3-0x"
 5483      7800 
 5484               	.LC20:
 5485 0066 7234 2D30 		.string	"r4-0x"
 5485      7800 
 5486               	.LC21:
 5487 006c 7235 2D30 		.string	"r5-0x"
 5487      7800 
 5488               	.LC22:
 5489 0072 742D 3078 		.string	"t-0x"
 5489      00
 5490               	.LC23:
 5491 0077 7230 2D30 		.string	"r0-0x"
 5491      7800 
 5492               		.text
 5493               	.global	radioDisplayAddress
 5495               	radioDisplayAddress:
 5496               	.LFB75:
 5497               	.LM694:
 5498               	.LVL347:
 5499 221e EF92      		push r14
 5500 2220 FF92      		push r15
 5501 2222 0F93      		push r16
 5502 2224 1F93      		push r17
 5503 2226 DF93      		push r29
 5504 2228 CF93      		push r28
 5505 222a 00D0      		rcall .
 5506 222c 00D0      		rcall .
 5507 222e 00D0      		rcall .
 5508 2230 CDB7      		in r28,__SP_L__
 5509 2232 DEB7      		in r29,__SP_H__
 5510               	/* prologue: function */
 5511               	/* frame size = 6 */
 5512               	.LM695:
 5513 2234 1092 0000 		sts statusMsg,__zero_reg__
 5514               	.LM696:
 5515 2238 FC01      		movw r30,r24
 5516 223a 8381      		ldd r24,Z+3
 5517               	.LVL348:
 5518 223c 8133      		cpi r24,lo8(49)
 5519 223e 01F4      		brne .L334
 5520               	.LM697:
 5521 2240 2091 0000 		lds r18,rx_addr_p1
 5522 2244 3091 0000 		lds r19,rx_addr_p1+1
 5523 2248 4091 0000 		lds r20,rx_addr_p1+2
 5524 224c 5091 0000 		lds r21,rx_addr_p1+3
 5525 2250 6091 0000 		lds r22,rx_addr_p1+4
 5526 2254 7091 0000 		lds r23,rx_addr_p1+5
 5527 2258 8091 0000 		lds r24,rx_addr_p1+6
 5528 225c 9091 0000 		lds r25,rx_addr_p1+7
 5529 2260 8E01      		movw r16,r28
 5530 2262 0F5F      		subi r16,lo8(-(1))
 5531 2264 1F4F      		sbci r17,hi8(-(1))
 5532 2266 0E94 0000 		call unformatAddress
 5533               	.LM698:
 5534 226a 80E0      		ldi r24,lo8(statusMsg)
 5535 226c 90E0      		ldi r25,hi8(statusMsg)
 5536 226e 60E0      		ldi r22,lo8(.LC17)
 5537 2270 70E0      		ldi r23,hi8(.LC17)
 5538               	.L344:
 5539 2272 0E94 0000 		call strcat
 5540 2276 8E01      		movw r16,r28
 5541 2278 0F5F      		subi r16,lo8(-(1))
 5542 227a 1F4F      		sbci r17,hi8(-(1))
 5543               	.LM699:
 5544 227c A6E0      		ldi r26,lo8(6)
 5545 227e EA2E      		mov r14,r26
 5546 2280 F12C      		mov r15,__zero_reg__
 5547 2282 EC0E      		add r14,r28
 5548 2284 FD1E      		adc r15,r29
 5549 2286 00C0      		rjmp .L335
 5550               	.L334:
 5551               	.LM700:
 5552 2288 8233      		cpi r24,lo8(50)
 5553 228a 01F4      		brne .L336
 5554               	.LM701:
 5555 228c 2091 0000 		lds r18,rx_addr_p2
 5556 2290 3091 0000 		lds r19,rx_addr_p2+1
 5557 2294 4091 0000 		lds r20,rx_addr_p2+2
 5558 2298 5091 0000 		lds r21,rx_addr_p2+3
 5559 229c 6091 0000 		lds r22,rx_addr_p2+4
 5560 22a0 7091 0000 		lds r23,rx_addr_p2+5
 5561 22a4 8091 0000 		lds r24,rx_addr_p2+6
 5562 22a8 9091 0000 		lds r25,rx_addr_p2+7
 5563 22ac 8E01      		movw r16,r28
 5564 22ae 0F5F      		subi r16,lo8(-(1))
 5565 22b0 1F4F      		sbci r17,hi8(-(1))
 5566 22b2 0E94 0000 		call unformatAddress
 5567               	.LM702:
 5568 22b6 80E0      		ldi r24,lo8(statusMsg)
 5569 22b8 90E0      		ldi r25,hi8(statusMsg)
 5570 22ba 60E0      		ldi r22,lo8(.LC18)
 5571 22bc 70E0      		ldi r23,hi8(.LC18)
 5572 22be 00C0      		rjmp .L344
 5573               	.L336:
 5574               	.LM703:
 5575 22c0 8333      		cpi r24,lo8(51)
 5576 22c2 01F4      		brne .L338
 5577               	.LM704:
 5578 22c4 2091 0000 		lds r18,rx_addr_p3
 5579 22c8 3091 0000 		lds r19,rx_addr_p3+1
 5580 22cc 4091 0000 		lds r20,rx_addr_p3+2
 5581 22d0 5091 0000 		lds r21,rx_addr_p3+3
 5582 22d4 6091 0000 		lds r22,rx_addr_p3+4
 5583 22d8 7091 0000 		lds r23,rx_addr_p3+5
 5584 22dc 8091 0000 		lds r24,rx_addr_p3+6
 5585 22e0 9091 0000 		lds r25,rx_addr_p3+7
 5586 22e4 8E01      		movw r16,r28
 5587 22e6 0F5F      		subi r16,lo8(-(1))
 5588 22e8 1F4F      		sbci r17,hi8(-(1))
 5589 22ea 0E94 0000 		call unformatAddress
 5590               	.LM705:
 5591 22ee 80E0      		ldi r24,lo8(statusMsg)
 5592 22f0 90E0      		ldi r25,hi8(statusMsg)
 5593 22f2 60E0      		ldi r22,lo8(.LC19)
 5594 22f4 70E0      		ldi r23,hi8(.LC19)
 5595 22f6 00C0      		rjmp .L344
 5596               	.L338:
 5597               	.LM706:
 5598 22f8 8433      		cpi r24,lo8(52)
 5599 22fa 01F4      		brne .L339
 5600               	.LM707:
 5601 22fc 2091 0000 		lds r18,rx_addr_p4
 5602 2300 3091 0000 		lds r19,rx_addr_p4+1
 5603 2304 4091 0000 		lds r20,rx_addr_p4+2
 5604 2308 5091 0000 		lds r21,rx_addr_p4+3
 5605 230c 6091 0000 		lds r22,rx_addr_p4+4
 5606 2310 7091 0000 		lds r23,rx_addr_p4+5
 5607 2314 8091 0000 		lds r24,rx_addr_p4+6
 5608 2318 9091 0000 		lds r25,rx_addr_p4+7
 5609 231c 8E01      		movw r16,r28
 5610 231e 0F5F      		subi r16,lo8(-(1))
 5611 2320 1F4F      		sbci r17,hi8(-(1))
 5612 2322 0E94 0000 		call unformatAddress
 5613               	.LM708:
 5614 2326 80E0      		ldi r24,lo8(statusMsg)
 5615 2328 90E0      		ldi r25,hi8(statusMsg)
 5616 232a 60E0      		ldi r22,lo8(.LC20)
 5617 232c 70E0      		ldi r23,hi8(.LC20)
 5618 232e 00C0      		rjmp .L344
 5619               	.L339:
 5620               	.LM709:
 5621 2330 8533      		cpi r24,lo8(53)
 5622 2332 01F4      		brne .L340
 5623               	.LM710:
 5624 2334 2091 0000 		lds r18,rx_addr_p5
 5625 2338 3091 0000 		lds r19,rx_addr_p5+1
 5626 233c 4091 0000 		lds r20,rx_addr_p5+2
 5627 2340 5091 0000 		lds r21,rx_addr_p5+3
 5628 2344 6091 0000 		lds r22,rx_addr_p5+4
 5629 2348 7091 0000 		lds r23,rx_addr_p5+5
 5630 234c 8091 0000 		lds r24,rx_addr_p5+6
 5631 2350 9091 0000 		lds r25,rx_addr_p5+7
 5632 2354 8E01      		movw r16,r28
 5633 2356 0F5F      		subi r16,lo8(-(1))
 5634 2358 1F4F      		sbci r17,hi8(-(1))
 5635 235a 0E94 0000 		call unformatAddress
 5636               	.LM711:
 5637 235e 80E0      		ldi r24,lo8(statusMsg)
 5638 2360 90E0      		ldi r25,hi8(statusMsg)
 5639 2362 60E0      		ldi r22,lo8(.LC21)
 5640 2364 70E0      		ldi r23,hi8(.LC21)
 5641 2366 00C0      		rjmp .L344
 5642               	.L340:
 5643 2368 8E01      		movw r16,r28
 5644 236a 0F5F      		subi r16,lo8(-(1))
 5645 236c 1F4F      		sbci r17,hi8(-(1))
 5646               	.LM712:
 5647 236e 8435      		cpi r24,lo8(84)
 5648 2370 01F4      		brne .L341
 5649               	.LM713:
 5650 2372 2091 0000 		lds r18,tx_addr
 5651 2376 3091 0000 		lds r19,tx_addr+1
 5652 237a 4091 0000 		lds r20,tx_addr+2
 5653 237e 5091 0000 		lds r21,tx_addr+3
 5654 2382 6091 0000 		lds r22,tx_addr+4
 5655 2386 7091 0000 		lds r23,tx_addr+5
 5656 238a 8091 0000 		lds r24,tx_addr+6
 5657 238e 9091 0000 		lds r25,tx_addr+7
 5658 2392 0E94 0000 		call unformatAddress
 5659               	.LM714:
 5660 2396 80E0      		ldi r24,lo8(statusMsg)
 5661 2398 90E0      		ldi r25,hi8(statusMsg)
 5662 239a 60E0      		ldi r22,lo8(.LC22)
 5663 239c 70E0      		ldi r23,hi8(.LC22)
 5664 239e 00C0      		rjmp .L344
 5665               	.L341:
 5666               	.LM715:
 5667 23a0 2091 0000 		lds r18,rx_addr_p0
 5668 23a4 3091 0000 		lds r19,rx_addr_p0+1
 5669 23a8 4091 0000 		lds r20,rx_addr_p0+2
 5670 23ac 5091 0000 		lds r21,rx_addr_p0+3
 5671 23b0 6091 0000 		lds r22,rx_addr_p0+4
 5672 23b4 7091 0000 		lds r23,rx_addr_p0+5
 5673 23b8 8091 0000 		lds r24,rx_addr_p0+6
 5674 23bc 9091 0000 		lds r25,rx_addr_p0+7
 5675 23c0 0E94 0000 		call unformatAddress
 5676               	.LM716:
 5677 23c4 80E0      		ldi r24,lo8(statusMsg)
 5678 23c6 90E0      		ldi r25,hi8(statusMsg)
 5679 23c8 60E0      		ldi r22,lo8(.LC23)
 5680 23ca 70E0      		ldi r23,hi8(.LC23)
 5681 23cc 00C0      		rjmp .L344
 5682               	.L335:
 5683               	.LM717:
 5684 23ce F801      		movw r30,r16
 5685 23d0 8191      		ld r24,Z+
 5686 23d2 8F01      		movw r16,r30
 5687 23d4 90E0      		ldi r25,lo8(0)
 5688 23d6 60E0      		ldi r22,lo8(tempLongString)
 5689 23d8 70E0      		ldi r23,hi8(tempLongString)
 5690 23da 0E94 0000 		call returnHexWithout
 5691               	.LM718:
 5692 23de 80E0      		ldi r24,lo8(statusMsg)
 5693 23e0 90E0      		ldi r25,hi8(statusMsg)
 5694 23e2 60E0      		ldi r22,lo8(tempLongString)
 5695 23e4 70E0      		ldi r23,hi8(tempLongString)
 5696 23e6 0E94 0000 		call strcat
 5697               	.LM719:
 5698 23ea 0E15      		cp r16,r14
 5699 23ec 1F05      		cpc r17,r15
 5700 23ee 01F4      		brne .L335
 5701               	.LM720:
 5702 23f0 80E0      		ldi r24,lo8(statusMsg)
 5703 23f2 90E0      		ldi r25,hi8(statusMsg)
 5704 23f4 0E94 0000 		call sendMessage
 5705               	/* epilogue start */
 5706               	.LM721:
 5707 23f8 2696      		adiw r28,6
 5708 23fa 0FB6      		in __tmp_reg__,__SREG__
 5709 23fc F894      		cli
 5710 23fe DEBF      		out __SP_H__,r29
 5711 2400 0FBE      		out __SREG__,__tmp_reg__
 5712 2402 CDBF      		out __SP_L__,r28
 5713 2404 CF91      		pop r28
 5714 2406 DF91      		pop r29
 5715 2408 1F91      		pop r17
 5716 240a 0F91      		pop r16
 5717 240c FF90      		pop r15
 5718 240e EF90      		pop r14
 5719 2410 0895      		ret
 5720               	.LFE75:
 5722               		.data
 5723               	.LC24:
 5724 007d 2D00      		.string	"-"
 5725               		.text
 5726               	.global	interjectLineNumber
 5728               	interjectLineNumber:
 5729               	.LFB47:
 5730               	.LM722:
 5731               	.LVL349:
 5732 2412 EF92      		push r14
 5733 2414 FF92      		push r15
 5734 2416 0F93      		push r16
 5735 2418 1F93      		push r17
 5736               	/* prologue: function */
 5737               	/* frame size = 0 */
 5738               	.LM723:
 5739 241a B0E0      		ldi r27,lo8(tempLongString)
 5740 241c EB2E      		mov r14,r27
 5741 241e B0E0      		ldi r27,hi8(tempLongString)
 5742 2420 FB2E      		mov r15,r27
 5743 2422 B701      		movw r22,r14
 5744 2424 0E94 0000 		call returnHexWithout
 5745               	.LVL350:
 5746               	.LM724:
 5747 2428 00E0      		ldi r16,lo8(statusMsg)
 5748 242a 10E0      		ldi r17,hi8(statusMsg)
 5749 242c C801      		movw r24,r16
 5750 242e B701      		movw r22,r14
 5751 2430 0E94 0000 		call strcat
 5752               	.LM725:
 5753 2434 C801      		movw r24,r16
 5754 2436 60E0      		ldi r22,lo8(.LC24)
 5755 2438 70E0      		ldi r23,hi8(.LC24)
 5756 243a 0E94 0000 		call strcat
 5757               	/* epilogue start */
 5758               	.LM726:
 5759 243e 1F91      		pop r17
 5760 2440 0F91      		pop r16
 5761 2442 FF90      		pop r15
 5762 2444 EF90      		pop r14
 5763 2446 0895      		ret
 5764               	.LFE47:
 5766               		.data
 5767               	.LC25:
 5768 007f 4D30 302D 		.string	"M00-"
 5768      00
 5769               	.LC26:
 5770 0084 5300      		.string	"S"
 5771               	.LC27:
 5772 0086 5000      		.string	"P"
 5773               	.LC28:
 5774 0088 4900      		.string	"I"
 5775               	.LC29:
 5776 008a 5400      		.string	"T"
 5777               	.LC30:
 5778 008c 4300      		.string	"C"
 5779               	.LC31:
 5780 008e 454E 443A 		.string	"END:lines:"
 5780      6C69 6E65 
 5780      733A 00
 5781               		.text
 5782               	.global	memoryDump
 5784               	memoryDump:
 5785               	.LFB46:
 5786               	.LM727:
 5787 2448 AF92      		push r10
 5788 244a BF92      		push r11
 5789 244c CF92      		push r12
 5790 244e DF92      		push r13
 5791 2450 EF92      		push r14
 5792 2452 FF92      		push r15
 5793 2454 0F93      		push r16
 5794 2456 1F93      		push r17
 5795 2458 CF93      		push r28
 5796 245a DF93      		push r29
 5797               	/* prologue: function */
 5798               	/* frame size = 0 */
 5799               	.LM728:
 5800 245c 1092 0000 		sts statusMsg,__zero_reg__
 5801               	.LM729:
 5802 2460 80E0      		ldi r24,lo8(statusMsg)
 5803 2462 90E0      		ldi r25,hi8(statusMsg)
 5804 2464 60E0      		ldi r22,lo8(.LC25)
 5805 2466 70E0      		ldi r23,hi8(.LC25)
 5806 2468 0E94 0000 		call strcat
 5807               	.LM730:
 5808 246c 8091 0000 		lds r24,tweakTimer
 5809 2470 9091 0000 		lds r25,(tweakTimer)+1
 5810 2474 60E0      		ldi r22,lo8(tempLongString)
 5811 2476 70E0      		ldi r23,hi8(tempLongString)
 5812 2478 0E94 0000 		call returnHexWithout
 5813               	.LM731:
 5814 247c 80E0      		ldi r24,lo8(statusMsg)
 5815 247e 90E0      		ldi r25,hi8(statusMsg)
 5816 2480 60E0      		ldi r22,lo8(tempLongString)
 5817 2482 70E0      		ldi r23,hi8(tempLongString)
 5818 2484 0E94 0000 		call strcat
 5819               	.LM732:
 5820 2488 8091 0000 		lds r24,daylightSavings
 5821 248c 9091 0000 		lds r25,(daylightSavings)+1
 5822 2490 60E0      		ldi r22,lo8(tempLongString)
 5823 2492 70E0      		ldi r23,hi8(tempLongString)
 5824 2494 0E94 0000 		call returnHexWithout
 5825               	.LM733:
 5826 2498 80E0      		ldi r24,lo8(statusMsg)
 5827 249a 90E0      		ldi r25,hi8(statusMsg)
 5828 249c 60E0      		ldi r22,lo8(tempLongString)
 5829 249e 70E0      		ldi r23,hi8(tempLongString)
 5830 24a0 0E94 0000 		call strcat
 5831               	.LM734:
 5832 24a4 8091 0000 		lds r24,daylightSavings+2
 5833 24a8 9091 0000 		lds r25,(daylightSavings+2)+1
 5834 24ac 60E0      		ldi r22,lo8(tempLongString)
 5835 24ae 70E0      		ldi r23,hi8(tempLongString)
 5836 24b0 0E94 0000 		call returnHexWithout
 5837               	.LM735:
 5838 24b4 80E0      		ldi r24,lo8(statusMsg)
 5839 24b6 90E0      		ldi r25,hi8(statusMsg)
 5840 24b8 60E0      		ldi r22,lo8(tempLongString)
 5841 24ba 70E0      		ldi r23,hi8(tempLongString)
 5842 24bc 0E94 0000 		call strcat
 5843               	.LM736:
 5844 24c0 8091 0000 		lds r24,daylightSavings+4
 5845 24c4 9091 0000 		lds r25,(daylightSavings+4)+1
 5846 24c8 60E0      		ldi r22,lo8(tempLongString)
 5847 24ca 70E0      		ldi r23,hi8(tempLongString)
 5848 24cc 0E94 0000 		call returnHexWithout
 5849               	.LM737:
 5850 24d0 80E0      		ldi r24,lo8(statusMsg)
 5851 24d2 90E0      		ldi r25,hi8(statusMsg)
 5852 24d4 60E0      		ldi r22,lo8(tempLongString)
 5853 24d6 70E0      		ldi r23,hi8(tempLongString)
 5854 24d8 0E94 0000 		call strcat
 5855               	.LM738:
 5856 24dc 8091 0000 		lds r24,daylightSavings+2
 5857 24e0 9091 0000 		lds r25,(daylightSavings+2)+1
 5858 24e4 60E0      		ldi r22,lo8(tempLongString)
 5859 24e6 70E0      		ldi r23,hi8(tempLongString)
 5860 24e8 0E94 0000 		call returnHexWithout
 5861               	.LM739:
 5862 24ec 80E0      		ldi r24,lo8(statusMsg)
 5863 24ee 90E0      		ldi r25,hi8(statusMsg)
 5864 24f0 60E0      		ldi r22,lo8(tempLongString)
 5865 24f2 70E0      		ldi r23,hi8(tempLongString)
 5866 24f4 0E94 0000 		call strcat
 5867               	.LM740:
 5868 24f8 8091 0000 		lds r24,pwmdir
 5869 24fc 90E0      		ldi r25,lo8(0)
 5870 24fe 60E0      		ldi r22,lo8(tempLongString)
 5871 2500 70E0      		ldi r23,hi8(tempLongString)
 5872 2502 0E94 0000 		call returnHexWithout
 5873               	.LM741:
 5874 2506 80E0      		ldi r24,lo8(statusMsg)
 5875 2508 90E0      		ldi r25,hi8(statusMsg)
 5876 250a 60E0      		ldi r22,lo8(tempLongString)
 5877 250c 70E0      		ldi r23,hi8(tempLongString)
 5878 250e 0E94 0000 		call strcat
 5879               	.LM742:
 5880 2512 80E0      		ldi r24,lo8(statusMsg)
 5881 2514 90E0      		ldi r25,hi8(statusMsg)
 5882 2516 0E94 0000 		call sendMessage
 5883               	.LM743:
 5884 251a 1092 0000 		sts statusMsg,__zero_reg__
 5885               	.LM744:
 5886 251e 80E0      		ldi r24,lo8(statusMsg)
 5887 2520 90E0      		ldi r25,hi8(statusMsg)
 5888 2522 60E0      		ldi r22,lo8(.LC26)
 5889 2524 70E0      		ldi r23,hi8(.LC26)
 5890 2526 0E94 0000 		call strcat
 5891               	.LM745:
 5892 252a 81E0      		ldi r24,lo8(1)
 5893 252c 90E0      		ldi r25,hi8(1)
 5894 252e 0E94 0000 		call interjectLineNumber
 5895 2532 C0E0      		ldi r28,lo8(0)
 5896 2534 D0E0      		ldi r29,hi8(0)
 5897               	.LVL351:
 5898 2536 01E0      		ldi r16,lo8(1)
 5899 2538 10E0      		ldi r17,hi8(1)
 5900               	.LVL352:
 5901               	.LM746:
 5902 253a A0E0      		ldi r26,lo8(statusMsg)
 5903 253c EA2E      		mov r14,r26
 5904 253e A0E0      		ldi r26,hi8(statusMsg)
 5905 2540 FA2E      		mov r15,r26
 5906               	.L349:
 5907               	.LM747:
 5908 2542 FE01      		movw r30,r28
 5909 2544 E050      		subi r30,lo8(-(switchStuff))
 5910 2546 F040      		sbci r31,hi8(-(switchStuff))
 5911 2548 8081      		ld r24,Z
 5912 254a 90E0      		ldi r25,lo8(0)
 5913 254c 60E0      		ldi r22,lo8(tempLongString)
 5914 254e 70E0      		ldi r23,hi8(tempLongString)
 5915 2550 0E94 0000 		call returnHexWithout
 5916               	.LM748:
 5917 2554 80E0      		ldi r24,lo8(statusMsg)
 5918 2556 90E0      		ldi r25,hi8(statusMsg)
 5919 2558 60E0      		ldi r22,lo8(tempLongString)
 5920 255a 70E0      		ldi r23,hi8(tempLongString)
 5921 255c 0E94 0000 		call strcat
 5922               	.LM749:
 5923 2560 FE01      		movw r30,r28
 5924 2562 E050      		subi r30,lo8(-(switchBright))
 5925 2564 F040      		sbci r31,hi8(-(switchBright))
 5926 2566 8081      		ld r24,Z
 5927 2568 90E0      		ldi r25,lo8(0)
 5928 256a 60E0      		ldi r22,lo8(tempLongString)
 5929 256c 70E0      		ldi r23,hi8(tempLongString)
 5930 256e 0E94 0000 		call returnHexWithout
 5931               	.LM750:
 5932 2572 80E0      		ldi r24,lo8(statusMsg)
 5933 2574 90E0      		ldi r25,hi8(statusMsg)
 5934 2576 60E0      		ldi r22,lo8(tempLongString)
 5935 2578 70E0      		ldi r23,hi8(tempLongString)
 5936 257a 0E94 0000 		call strcat
 5937               	.LM751:
 5938 257e F701      		movw r30,r14
 5939 2580 0190      		ld __tmp_reg__,Z+
 5940 2582 0020      		tst __tmp_reg__
 5941 2584 01F4      		brne .-6
 5942 2586 3197      		sbiw r30,1
 5943 2588 E050      		subi r30,lo8(statusMsg)
 5944 258a F040      		sbci r31,hi8(statusMsg)
 5945 258c 3897      		sbiw r30,8
 5946 258e 00F0      		brlo .L348
 5947 2590 CF30      		cpi r28,15
 5948 2592 D105      		cpc r29,__zero_reg__
 5949 2594 01F0      		breq .L348
 5950               	.LM752:
 5951 2596 80E0      		ldi r24,lo8(statusMsg)
 5952 2598 90E0      		ldi r25,hi8(statusMsg)
 5953 259a 0E94 0000 		call sendMessage
 5954               	.LM753:
 5955 259e 0F5F      		subi r16,lo8(-(1))
 5956 25a0 1F4F      		sbci r17,hi8(-(1))
 5957               	.LM754:
 5958 25a2 1092 0000 		sts statusMsg+1,__zero_reg__
 5959               	.LM755:
 5960 25a6 C801      		movw r24,r16
 5961 25a8 0E94 0000 		call interjectLineNumber
 5962               	.L348:
 5963               	.LM756:
 5964 25ac 2196      		adiw r28,1
 5965 25ae C031      		cpi r28,16
 5966 25b0 D105      		cpc r29,__zero_reg__
 5967 25b2 01F4      		brne .L349
 5968               	.LM757:
 5969 25b4 80E0      		ldi r24,lo8(statusMsg)
 5970 25b6 90E0      		ldi r25,hi8(statusMsg)
 5971 25b8 0E94 0000 		call sendMessage
 5972               	.LM758:
 5973 25bc 1092 0000 		sts statusMsg,__zero_reg__
 5974               	.LM759:
 5975 25c0 6801      		movw r12,r16
 5976 25c2 0894      		sec
 5977 25c4 C11C      		adc r12,__zero_reg__
 5978 25c6 D11C      		adc r13,__zero_reg__
 5979               	.LVL353:
 5980               	.LM760:
 5981 25c8 80E0      		ldi r24,lo8(statusMsg)
 5982 25ca 90E0      		ldi r25,hi8(statusMsg)
 5983 25cc 60E0      		ldi r22,lo8(.LC27)
 5984 25ce 70E0      		ldi r23,hi8(.LC27)
 5985 25d0 0E94 0000 		call strcat
 5986               	.LM761:
 5987 25d4 C601      		movw r24,r12
 5988 25d6 0E94 0000 		call interjectLineNumber
 5989 25da 00E0      		ldi r16,lo8(0)
 5990 25dc 10E0      		ldi r17,hi8(0)
 5991               	.LVL354:
 5992               	.LM762:
 5993 25de F0E0      		ldi r31,lo8(statusMsg)
 5994 25e0 AF2E      		mov r10,r31
 5995 25e2 F0E0      		ldi r31,hi8(statusMsg)
 5996 25e4 BF2E      		mov r11,r31
 5997 25e6 00C0      		rjmp .L350
 5998               	.LVL355:
 5999               	.L352:
 6000               	.LM763:
 6001 25e8 8881      		ld r24,Y
 6002 25ea 90E0      		ldi r25,lo8(0)
 6003 25ec 60E0      		ldi r22,lo8(tempLongString)
 6004 25ee 70E0      		ldi r23,hi8(tempLongString)
 6005 25f0 0E94 0000 		call returnHexWithout
 6006               	.LM764:
 6007 25f4 80E0      		ldi r24,lo8(statusMsg)
 6008 25f6 90E0      		ldi r25,hi8(statusMsg)
 6009 25f8 60E0      		ldi r22,lo8(tempLongString)
 6010 25fa 70E0      		ldi r23,hi8(tempLongString)
 6011 25fc 0E94 0000 		call strcat
 6012               	.LM765:
 6013 2600 F501      		movw r30,r10
 6014 2602 0190      		ld __tmp_reg__,Z+
 6015 2604 0020      		tst __tmp_reg__
 6016 2606 01F4      		brne .-6
 6017 2608 3197      		sbiw r30,1
 6018 260a E050      		subi r30,lo8(statusMsg)
 6019 260c F040      		sbci r31,hi8(statusMsg)
 6020 260e 7E97      		sbiw r30,30
 6021 2610 00F0      		brlo .L351
 6022               	.LM766:
 6023 2612 80E0      		ldi r24,lo8(statusMsg)
 6024 2614 90E0      		ldi r25,hi8(statusMsg)
 6025 2616 0E94 0000 		call sendMessage
 6026               	.LM767:
 6027 261a 0894      		sec
 6028 261c C11C      		adc r12,__zero_reg__
 6029 261e D11C      		adc r13,__zero_reg__
 6030               	.LM768:
 6031 2620 1092 0000 		sts statusMsg+1,__zero_reg__
 6032               	.LM769:
 6033 2624 C601      		movw r24,r12
 6034 2626 0E94 0000 		call interjectLineNumber
 6035               	.L351:
 6036               	.LM770:
 6037 262a 0894      		sec
 6038 262c E11C      		adc r14,__zero_reg__
 6039 262e F11C      		adc r15,__zero_reg__
 6040 2630 2196      		adiw r28,1
 6041 2632 8AE0      		ldi r24,lo8(10)
 6042 2634 E816      		cp r14,r24
 6043 2636 F104      		cpc r15,__zero_reg__
 6044 2638 01F4      		brne .L352
 6045               	.LM771:
 6046 263a 0F5F      		subi r16,lo8(-(1))
 6047 263c 1F4F      		sbci r17,hi8(-(1))
 6048 263e 0431      		cpi r16,20
 6049 2640 1105      		cpc r17,__zero_reg__
 6050 2642 01F0      		breq .L353
 6051               	.L350:
 6052 2644 E801      		movw r28,r16
 6053 2646 CC0F      		lsl r28
 6054 2648 DD1F      		rol r29
 6055 264a C801      		movw r24,r16
 6056 264c 73E0      		ldi r23,3
 6057 264e 880F      	1:	lsl r24
 6058 2650 991F      		rol r25
 6059 2652 7A95      		dec r23
 6060 2654 01F4      		brne 1b
 6061 2656 C80F      		add r28,r24
 6062 2658 D91F      		adc r29,r25
 6063 265a C050      		subi r28,lo8(-(weeklyProgram))
 6064 265c D040      		sbci r29,hi8(-(weeklyProgram))
 6065 265e EE24      		clr r14
 6066 2660 FF24      		clr r15
 6067 2662 00C0      		rjmp .L352
 6068               	.L353:
 6069               	.LM772:
 6070 2664 80E0      		ldi r24,lo8(statusMsg)
 6071 2666 90E0      		ldi r25,hi8(statusMsg)
 6072 2668 0E94 0000 		call sendMessage
 6073               	.LM773:
 6074 266c 1092 0000 		sts statusMsg,__zero_reg__
 6075               	.LM774:
 6076 2670 0894      		sec
 6077 2672 C11C      		adc r12,__zero_reg__
 6078 2674 D11C      		adc r13,__zero_reg__
 6079               	.LVL356:
 6080               	.LM775:
 6081 2676 80E0      		ldi r24,lo8(statusMsg)
 6082 2678 90E0      		ldi r25,hi8(statusMsg)
 6083 267a 60E0      		ldi r22,lo8(.LC28)
 6084 267c 70E0      		ldi r23,hi8(.LC28)
 6085 267e 0E94 0000 		call strcat
 6086               	.LM776:
 6087 2682 C601      		movw r24,r12
 6088 2684 0E94 0000 		call interjectLineNumber
 6089 2688 EE24      		clr r14
 6090 268a FF24      		clr r15
 6091               	.LVL357:
 6092               	.LM777:
 6093 268c 60E0      		ldi r22,lo8(statusMsg)
 6094 268e A62E      		mov r10,r22
 6095 2690 60E0      		ldi r22,hi8(statusMsg)
 6096 2692 B62E      		mov r11,r22
 6097 2694 00C0      		rjmp .L354
 6098               	.LVL358:
 6099               	.L356:
 6100               	.LM778:
 6101 2696 8881      		ld r24,Y
 6102 2698 90E0      		ldi r25,lo8(0)
 6103 269a 60E0      		ldi r22,lo8(tempLongString)
 6104 269c 70E0      		ldi r23,hi8(tempLongString)
 6105 269e 0E94 0000 		call returnHexWithout
 6106               	.LM779:
 6107 26a2 80E0      		ldi r24,lo8(statusMsg)
 6108 26a4 90E0      		ldi r25,hi8(statusMsg)
 6109 26a6 60E0      		ldi r22,lo8(tempLongString)
 6110 26a8 70E0      		ldi r23,hi8(tempLongString)
 6111 26aa 0E94 0000 		call strcat
 6112               	.LM780:
 6113 26ae F501      		movw r30,r10
 6114 26b0 0190      		ld __tmp_reg__,Z+
 6115 26b2 0020      		tst __tmp_reg__
 6116 26b4 01F4      		brne .-6
 6117 26b6 3197      		sbiw r30,1
 6118 26b8 E050      		subi r30,lo8(statusMsg)
 6119 26ba F040      		sbci r31,hi8(statusMsg)
 6120 26bc 7E97      		sbiw r30,30
 6121 26be 00F0      		brlo .L355
 6122               	.LM781:
 6123 26c0 80E0      		ldi r24,lo8(statusMsg)
 6124 26c2 90E0      		ldi r25,hi8(statusMsg)
 6125 26c4 0E94 0000 		call sendMessage
 6126               	.LM782:
 6127 26c8 0894      		sec
 6128 26ca C11C      		adc r12,__zero_reg__
 6129 26cc D11C      		adc r13,__zero_reg__
 6130               	.LM783:
 6131 26ce 1092 0000 		sts statusMsg+1,__zero_reg__
 6132               	.LM784:
 6133 26d2 C601      		movw r24,r12
 6134 26d4 0E94 0000 		call interjectLineNumber
 6135               	.L355:
 6136               	.LM785:
 6137 26d8 0F5F      		subi r16,lo8(-(1))
 6138 26da 1F4F      		sbci r17,hi8(-(1))
 6139 26dc 2196      		adiw r28,1
 6140 26de 0830      		cpi r16,8
 6141 26e0 1105      		cpc r17,__zero_reg__
 6142 26e2 01F4      		brne .L356
 6143               	.LM786:
 6144 26e4 0894      		sec
 6145 26e6 E11C      		adc r14,__zero_reg__
 6146 26e8 F11C      		adc r15,__zero_reg__
 6147 26ea 84E0      		ldi r24,lo8(4)
 6148 26ec E816      		cp r14,r24
 6149 26ee F104      		cpc r15,__zero_reg__
 6150 26f0 01F0      		breq .L357
 6151               	.L354:
 6152 26f2 E701      		movw r28,r14
 6153 26f4 53E0      		ldi r21,3
 6154 26f6 CC0F      	1:	lsl r28
 6155 26f8 DD1F      		rol r29
 6156 26fa 5A95      		dec r21
 6157 26fc 01F4      		brne 1b
 6158 26fe C050      		subi r28,lo8(-(inputs))
 6159 2700 D040      		sbci r29,hi8(-(inputs))
 6160 2702 00E0      		ldi r16,lo8(0)
 6161 2704 10E0      		ldi r17,hi8(0)
 6162 2706 00C0      		rjmp .L356
 6163               	.L357:
 6164               	.LM787:
 6165 2708 80E0      		ldi r24,lo8(statusMsg)
 6166 270a 90E0      		ldi r25,hi8(statusMsg)
 6167 270c 0E94 0000 		call sendMessage
 6168               	.LM788:
 6169 2710 1092 0000 		sts statusMsg,__zero_reg__
 6170               	.LM789:
 6171 2714 0894      		sec
 6172 2716 C11C      		adc r12,__zero_reg__
 6173 2718 D11C      		adc r13,__zero_reg__
 6174               	.LVL359:
 6175               	.LM790:
 6176 271a 80E0      		ldi r24,lo8(statusMsg)
 6177 271c 90E0      		ldi r25,hi8(statusMsg)
 6178 271e 60E0      		ldi r22,lo8(.LC29)
 6179 2720 70E0      		ldi r23,hi8(.LC29)
 6180 2722 0E94 0000 		call strcat
 6181               	.LM791:
 6182 2726 C601      		movw r24,r12
 6183 2728 0E94 0000 		call interjectLineNumber
 6184 272c 00E0      		ldi r16,lo8(0)
 6185 272e 10E0      		ldi r17,hi8(0)
 6186               	.LVL360:
 6187               	.LM792:
 6188 2730 40E0      		ldi r20,lo8(statusMsg)
 6189 2732 A42E      		mov r10,r20
 6190 2734 40E0      		ldi r20,hi8(statusMsg)
 6191 2736 B42E      		mov r11,r20
 6192 2738 00C0      		rjmp .L358
 6193               	.LVL361:
 6194               	.L360:
 6195               	.LM793:
 6196 273a 8881      		ld r24,Y
 6197 273c 9981      		ldd r25,Y+1
 6198 273e 60E0      		ldi r22,lo8(tempLongString)
 6199 2740 70E0      		ldi r23,hi8(tempLongString)
 6200 2742 0E94 0000 		call returnHexWithout
 6201               	.LM794:
 6202 2746 80E0      		ldi r24,lo8(statusMsg)
 6203 2748 90E0      		ldi r25,hi8(statusMsg)
 6204 274a 60E0      		ldi r22,lo8(tempLongString)
 6205 274c 70E0      		ldi r23,hi8(tempLongString)
 6206 274e 0E94 0000 		call strcat
 6207               	.LM795:
 6208 2752 F501      		movw r30,r10
 6209 2754 0190      		ld __tmp_reg__,Z+
 6210 2756 0020      		tst __tmp_reg__
 6211 2758 01F4      		brne .-6
 6212 275a 3197      		sbiw r30,1
 6213 275c E050      		subi r30,lo8(statusMsg)
 6214 275e F040      		sbci r31,hi8(statusMsg)
 6215 2760 7E97      		sbiw r30,30
 6216 2762 00F0      		brlo .L359
 6217               	.LM796:
 6218 2764 80E0      		ldi r24,lo8(statusMsg)
 6219 2766 90E0      		ldi r25,hi8(statusMsg)
 6220 2768 0E94 0000 		call sendMessage
 6221               	.LM797:
 6222 276c 0894      		sec
 6223 276e C11C      		adc r12,__zero_reg__
 6224 2770 D11C      		adc r13,__zero_reg__
 6225               	.LM798:
 6226 2772 1092 0000 		sts statusMsg+1,__zero_reg__
 6227               	.LM799:
 6228 2776 C601      		movw r24,r12
 6229 2778 0E94 0000 		call interjectLineNumber
 6230               	.L359:
 6231               	.LM800:
 6232 277c 0894      		sec
 6233 277e E11C      		adc r14,__zero_reg__
 6234 2780 F11C      		adc r15,__zero_reg__
 6235 2782 2496      		adiw r28,4
 6236 2784 83E0      		ldi r24,lo8(3)
 6237 2786 E816      		cp r14,r24
 6238 2788 F104      		cpc r15,__zero_reg__
 6239 278a 01F4      		brne .L360
 6240               	.LM801:
 6241 278c 0F5F      		subi r16,lo8(-(1))
 6242 278e 1F4F      		sbci r17,hi8(-(1))
 6243 2790 0430      		cpi r16,4
 6244 2792 1105      		cpc r17,__zero_reg__
 6245 2794 01F0      		breq .L361
 6246               	.L358:
 6247 2796 E801      		movw r28,r16
 6248 2798 CC0F      		lsl r28
 6249 279a DD1F      		rol r29
 6250 279c C00F      		add r28,r16
 6251 279e D11F      		adc r29,r17
 6252 27a0 CC0F      		lsl r28
 6253 27a2 DD1F      		rol r29
 6254 27a4 CC0F      		lsl r28
 6255 27a6 DD1F      		rol r29
 6256 27a8 C050      		subi r28,lo8(-(timeLimits))
 6257 27aa D040      		sbci r29,hi8(-(timeLimits))
 6258 27ac EE24      		clr r14
 6259 27ae FF24      		clr r15
 6260 27b0 00C0      		rjmp .L360
 6261               	.L361:
 6262               	.LM802:
 6263 27b2 80E0      		ldi r24,lo8(statusMsg)
 6264 27b4 90E0      		ldi r25,hi8(statusMsg)
 6265 27b6 0E94 0000 		call sendMessage
 6266               	.LM803:
 6267 27ba 1092 0000 		sts statusMsg,__zero_reg__
 6268               	.LM804:
 6269 27be 0894      		sec
 6270 27c0 C11C      		adc r12,__zero_reg__
 6271 27c2 D11C      		adc r13,__zero_reg__
 6272               	.LVL362:
 6273               	.LM805:
 6274 27c4 80E0      		ldi r24,lo8(statusMsg)
 6275 27c6 90E0      		ldi r25,hi8(statusMsg)
 6276 27c8 60E0      		ldi r22,lo8(.LC30)
 6277 27ca 70E0      		ldi r23,hi8(.LC30)
 6278 27cc 0E94 0000 		call strcat
 6279               	.LM806:
 6280 27d0 C601      		movw r24,r12
 6281 27d2 0E94 0000 		call interjectLineNumber
 6282               	.LM807:
 6283 27d6 8091 0000 		lds r24,pwmValues
 6284 27da 90E0      		ldi r25,lo8(0)
 6285 27dc 60E0      		ldi r22,lo8(tempLongString)
 6286 27de 70E0      		ldi r23,hi8(tempLongString)
 6287 27e0 0E94 0000 		call returnHexWithout
 6288               	.LM808:
 6289 27e4 80E0      		ldi r24,lo8(statusMsg)
 6290 27e6 90E0      		ldi r25,hi8(statusMsg)
 6291 27e8 60E0      		ldi r22,lo8(tempLongString)
 6292 27ea 70E0      		ldi r23,hi8(tempLongString)
 6293 27ec 0E94 0000 		call strcat
 6294               	.LM809:
 6295 27f0 8091 0000 		lds r24,pwmValues+1
 6296 27f4 90E0      		ldi r25,lo8(0)
 6297 27f6 60E0      		ldi r22,lo8(tempLongString)
 6298 27f8 70E0      		ldi r23,hi8(tempLongString)
 6299 27fa 0E94 0000 		call returnHexWithout
 6300               	.LM810:
 6301 27fe 80E0      		ldi r24,lo8(statusMsg)
 6302 2800 90E0      		ldi r25,hi8(statusMsg)
 6303 2802 60E0      		ldi r22,lo8(tempLongString)
 6304 2804 70E0      		ldi r23,hi8(tempLongString)
 6305 2806 0E94 0000 		call strcat
 6306               	.LM811:
 6307 280a 8091 0000 		lds r24,pwmValues+2
 6308 280e 90E0      		ldi r25,lo8(0)
 6309 2810 60E0      		ldi r22,lo8(tempLongString)
 6310 2812 70E0      		ldi r23,hi8(tempLongString)
 6311 2814 0E94 0000 		call returnHexWithout
 6312               	.LM812:
 6313 2818 80E0      		ldi r24,lo8(statusMsg)
 6314 281a 90E0      		ldi r25,hi8(statusMsg)
 6315 281c 60E0      		ldi r22,lo8(tempLongString)
 6316 281e 70E0      		ldi r23,hi8(tempLongString)
 6317 2820 0E94 0000 		call strcat
 6318 2824 00E0      		ldi r16,lo8(0)
 6319 2826 10E0      		ldi r17,hi8(0)
 6320               	.LVL363:
 6321               	.LM813:
 6322 2828 90E0      		ldi r25,lo8(statusMsg)
 6323 282a A92E      		mov r10,r25
 6324 282c 90E0      		ldi r25,hi8(statusMsg)
 6325 282e B92E      		mov r11,r25
 6326 2830 00C0      		rjmp .L362
 6327               	.L364:
 6328               	.LM814:
 6329 2832 8881      		ld r24,Y
 6330 2834 90E0      		ldi r25,lo8(0)
 6331 2836 60E0      		ldi r22,lo8(tempLongString)
 6332 2838 70E0      		ldi r23,hi8(tempLongString)
 6333 283a 0E94 0000 		call returnHexWithout
 6334               	.LM815:
 6335 283e 80E0      		ldi r24,lo8(statusMsg)
 6336 2840 90E0      		ldi r25,hi8(statusMsg)
 6337 2842 60E0      		ldi r22,lo8(tempLongString)
 6338 2844 70E0      		ldi r23,hi8(tempLongString)
 6339 2846 0E94 0000 		call strcat
 6340               	.LM816:
 6341 284a F501      		movw r30,r10
 6342 284c 0190      		ld __tmp_reg__,Z+
 6343 284e 0020      		tst __tmp_reg__
 6344 2850 01F4      		brne .-6
 6345 2852 3197      		sbiw r30,1
 6346 2854 E050      		subi r30,lo8(statusMsg)
 6347 2856 F040      		sbci r31,hi8(statusMsg)
 6348 2858 7E97      		sbiw r30,30
 6349 285a 00F0      		brlo .L363
 6350               	.LM817:
 6351 285c 80E0      		ldi r24,lo8(statusMsg)
 6352 285e 90E0      		ldi r25,hi8(statusMsg)
 6353 2860 0E94 0000 		call sendMessage
 6354               	.LM818:
 6355 2864 0894      		sec
 6356 2866 C11C      		adc r12,__zero_reg__
 6357 2868 D11C      		adc r13,__zero_reg__
 6358               	.LM819:
 6359 286a 1092 0000 		sts statusMsg+1,__zero_reg__
 6360               	.LM820:
 6361 286e C601      		movw r24,r12
 6362 2870 0E94 0000 		call interjectLineNumber
 6363               	.L363:
 6364               	.LM821:
 6365 2874 0894      		sec
 6366 2876 E11C      		adc r14,__zero_reg__
 6367 2878 F11C      		adc r15,__zero_reg__
 6368 287a 2196      		adiw r28,1
 6369 287c 83E0      		ldi r24,lo8(3)
 6370 287e E816      		cp r14,r24
 6371 2880 F104      		cpc r15,__zero_reg__
 6372 2882 01F4      		brne .L364
 6373               	.LM822:
 6374 2884 0F5F      		subi r16,lo8(-(1))
 6375 2886 1F4F      		sbci r17,hi8(-(1))
 6376 2888 0630      		cpi r16,6
 6377 288a 1105      		cpc r17,__zero_reg__
 6378 288c 01F0      		breq .L365
 6379               	.L362:
 6380 288e E801      		movw r28,r16
 6381 2890 CC0F      		lsl r28
 6382 2892 DD1F      		rol r29
 6383 2894 C00F      		add r28,r16
 6384 2896 D11F      		adc r29,r17
 6385 2898 C050      		subi r28,lo8(-(colorChanges))
 6386 289a D040      		sbci r29,hi8(-(colorChanges))
 6387 289c EE24      		clr r14
 6388 289e FF24      		clr r15
 6389 28a0 00C0      		rjmp .L364
 6390               	.L365:
 6391               	.LM823:
 6392 28a2 80E0      		ldi r24,lo8(statusMsg)
 6393 28a4 90E0      		ldi r25,hi8(statusMsg)
 6394 28a6 0E94 0000 		call sendMessage
 6395               	.LM824:
 6396 28aa 1092 0000 		sts statusMsg,__zero_reg__
 6397               	.LM825:
 6398 28ae 80E0      		ldi r24,lo8(statusMsg)
 6399 28b0 90E0      		ldi r25,hi8(statusMsg)
 6400 28b2 60E0      		ldi r22,lo8(.LC31)
 6401 28b4 70E0      		ldi r23,hi8(.LC31)
 6402 28b6 0E94 0000 		call strcat
 6403               	.LM826:
 6404 28ba C601      		movw r24,r12
 6405 28bc 0196      		adiw r24,1
 6406 28be 0E94 0000 		call interjectLineNumber
 6407               	.LM827:
 6408 28c2 80E0      		ldi r24,lo8(statusMsg)
 6409 28c4 90E0      		ldi r25,hi8(statusMsg)
 6410 28c6 0E94 0000 		call sendMessage
 6411               	/* epilogue start */
 6412               	.LM828:
 6413 28ca DF91      		pop r29
 6414 28cc CF91      		pop r28
 6415 28ce 1F91      		pop r17
 6416 28d0 0F91      		pop r16
 6417               	.LVL364:
 6418 28d2 FF90      		pop r15
 6419 28d4 EF90      		pop r14
 6420               	.LVL365:
 6421 28d6 DF90      		pop r13
 6422 28d8 CF90      		pop r12
 6423               	.LVL366:
 6424 28da BF90      		pop r11
 6425 28dc AF90      		pop r10
 6426 28de 0895      		ret
 6427               	.LFE46:
 6429               		.data
 6430               	.LC32:
 6431 0099 3078 00   		.string	"0x"
 6432               		.text
 6433               	.global	returnHex
 6435               	returnHex:
 6436               	.LFB70:
 6437               	.LM829:
 6438               	.LVL367:
 6439 28e0 EF92      		push r14
 6440 28e2 FF92      		push r15
 6441 28e4 0F93      		push r16
 6442 28e6 1F93      		push r17
 6443 28e8 CF93      		push r28
 6444 28ea DF93      		push r29
 6445               	/* prologue: function */
 6446               	/* frame size = 0 */
 6447 28ec 7C01      		movw r14,r24
 6448 28ee EB01      		movw r28,r22
 6449               	.LM830:
 6450 28f0 1882      		st Y,__zero_reg__
 6451               	.LM831:
 6452 28f2 CB01      		movw r24,r22
 6453               	.LVL368:
 6454 28f4 60E0      		ldi r22,lo8(.LC32)
 6455 28f6 70E0      		ldi r23,hi8(.LC32)
 6456               	.LVL369:
 6457 28f8 0E94 0000 		call strcat
 6458               	.LM832:
 6459 28fc 00E0      		ldi r16,lo8(tempHugeString)
 6460 28fe 10E0      		ldi r17,hi8(tempHugeString)
 6461 2900 C701      		movw r24,r14
 6462 2902 B801      		movw r22,r16
 6463 2904 40E1      		ldi r20,lo8(16)
 6464 2906 50E0      		ldi r21,hi8(16)
 6465 2908 0E94 0000 		call itoa
 6466               	.LM833:
 6467 290c F801      		movw r30,r16
 6468 290e 0190      		ld __tmp_reg__,Z+
 6469 2910 0020      		tst __tmp_reg__
 6470 2912 01F4      		brne .-6
 6471 2914 3197      		sbiw r30,1
 6472 2916 E01B      		sub r30,r16
 6473 2918 F10B      		sbc r31,r17
 6474 291a E130      		cpi r30,1
 6475 291c F105      		cpc r31,__zero_reg__
 6476 291e 01F0      		breq .L373
 6477 2920 3397      		sbiw r30,3
 6478 2922 01F4      		brne .L374
 6479               	.L373:
 6480               	.LM834:
 6481 2924 CE01      		movw r24,r28
 6482 2926 60E0      		ldi r22,lo8(.LC7)
 6483 2928 70E0      		ldi r23,hi8(.LC7)
 6484 292a 0E94 0000 		call strcat
 6485               	.L374:
 6486               	.LM835:
 6487 292e CE01      		movw r24,r28
 6488 2930 60E0      		ldi r22,lo8(tempHugeString)
 6489 2932 70E0      		ldi r23,hi8(tempHugeString)
 6490 2934 0E94 0000 		call strcat
 6491               	/* epilogue start */
 6492               	.LM836:
 6493 2938 DF91      		pop r29
 6494 293a CF91      		pop r28
 6495               	.LVL370:
 6496 293c 1F91      		pop r17
 6497 293e 0F91      		pop r16
 6498 2940 FF90      		pop r15
 6499 2942 EF90      		pop r14
 6500               	.LVL371:
 6501 2944 0895      		ret
 6502               	.LFE70:
 6504               		.data
 6505               	.LC33:
 6506 009c 6661 696C 		.string	"fail:"
 6506      3A00 
 6507               		.text
 6508               	.global	fail
 6510               	fail:
 6511               	.LFB8:
 6512               	.LM837:
 6513               	.LVL372:
 6514 2946 CF92      		push r12
 6515 2948 DF92      		push r13
 6516 294a EF92      		push r14
 6517 294c FF92      		push r15
 6518 294e 0F93      		push r16
 6519 2950 1F93      		push r17
 6520               	/* prologue: function */
 6521               	/* frame size = 0 */
 6522 2952 8C01      		movw r16,r24
 6523               	.LM838:
 6524 2954 80E0      		ldi r24,lo8(statusMsg)
 6525 2956 E82E      		mov r14,r24
 6526 2958 80E0      		ldi r24,hi8(statusMsg)
 6527 295a F82E      		mov r15,r24
 6528               	.LVL373:
 6529 295c 1092 0000 		sts statusMsg,__zero_reg__
 6530               	.LM839:
 6531 2960 C701      		movw r24,r14
 6532 2962 60E0      		ldi r22,lo8(.LC33)
 6533 2964 70E0      		ldi r23,hi8(.LC33)
 6534 2966 0E94 0000 		call strcat
 6535               	.LM840:
 6536 296a B0E0      		ldi r27,lo8(tempLongString)
 6537 296c CB2E      		mov r12,r27
 6538 296e B0E0      		ldi r27,hi8(tempLongString)
 6539 2970 DB2E      		mov r13,r27
 6540 2972 C801      		movw r24,r16
 6541 2974 B601      		movw r22,r12
 6542 2976 0E94 0000 		call returnHex
 6543               	.LM841:
 6544 297a C701      		movw r24,r14
 6545 297c B601      		movw r22,r12
 6546 297e 0E94 0000 		call strcat
 6547               	.LM842:
 6548 2982 C701      		movw r24,r14
 6549 2984 0E94 0000 		call sendMessage
 6550               	/* epilogue start */
 6551               	.LM843:
 6552 2988 1F91      		pop r17
 6553 298a 0F91      		pop r16
 6554               	.LVL374:
 6555 298c FF90      		pop r15
 6556 298e EF90      		pop r14
 6557 2990 DF90      		pop r13
 6558 2992 CF90      		pop r12
 6559 2994 0895      		ret
 6560               	.LFE8:
 6562               	.global	setDigitalInput
 6564               	setDigitalInput:
 6565               	.LFB80:
 6566               	.LM844:
 6567               	.LVL375:
 6568 2996 8F92      		push r8
 6569 2998 9F92      		push r9
 6570 299a AF92      		push r10
 6571 299c BF92      		push r11
 6572 299e CF92      		push r12
 6573 29a0 DF92      		push r13
 6574 29a2 EF92      		push r14
 6575 29a4 FF92      		push r15
 6576 29a6 0F93      		push r16
 6577 29a8 1F93      		push r17
 6578 29aa CF93      		push r28
 6579 29ac DF93      		push r29
 6580               	/* prologue: function */
 6581               	/* frame size = 0 */
 6582 29ae EC01      		movw r28,r24
 6583               	.LM845:
 6584 29b0 8B81      		ldd r24,Y+3
 6585               	.LVL376:
 6586 29b2 8093 0000 		sts tempIntString,r24
 6587               	.LM846:
 6588 29b6 8C81      		ldd r24,Y+4
 6589 29b8 8093 0000 		sts tempIntString+1,r24
 6590               	.LM847:
 6591 29bc 80E0      		ldi r24,lo8(tempIntString)
 6592 29be 90E0      		ldi r25,hi8(tempIntString)
 6593 29c0 0E94 0000 		call atoi
 6594 29c4 8C01      		movw r16,r24
 6595               	.LVL377:
 6596               	.LM848:
 6597 29c6 8430      		cpi r24,4
 6598 29c8 9105      		cpc r25,__zero_reg__
 6599 29ca 04F0      		brlt .L379
 6600               	.LVL378:
 6601               	.LM849:
 6602 29cc 81E1      		ldi r24,lo8(17)
 6603 29ce 90E0      		ldi r25,hi8(17)
 6604               	.LVL379:
 6605 29d0 00C0      		rjmp .L399
 6606               	.LVL380:
 6607               	.L379:
 6608               	.LM850:
 6609 29d2 80E3      		ldi r24,lo8(48)
 6610               	.LVL381:
 6611 29d4 8093 0000 		sts tempIntString,r24
 6612               	.LM851:
 6613 29d8 8E81      		ldd r24,Y+6
 6614 29da 8093 0000 		sts tempIntString+1,r24
 6615               	.LM852:
 6616 29de 80E0      		ldi r24,lo8(tempIntString)
 6617 29e0 90E0      		ldi r25,hi8(tempIntString)
 6618 29e2 0E94 0000 		call atoi
 6619 29e6 D82E      		mov r13,r24
 6620               	.LVL382:
 6621               	.LM853:
 6622 29e8 87E0      		ldi r24,lo8(7)
 6623 29ea 8D15      		cp r24,r13
 6624 29ec 00F4      		brsh .L381
 6625               	.LM854:
 6626 29ee 84E0      		ldi r24,lo8(4)
 6627 29f0 90E0      		ldi r25,hi8(4)
 6628 29f2 00C0      		rjmp .L399
 6629               	.L381:
 6630               	.LM855:
 6631 29f4 8985      		ldd r24,Y+9
 6632 29f6 8093 0000 		sts tempIntString,r24
 6633               	.LM856:
 6634 29fa 8A85      		ldd r24,Y+10
 6635 29fc 8093 0000 		sts tempIntString+1,r24
 6636               	.LM857:
 6637 2a00 80E0      		ldi r24,lo8(tempIntString)
 6638 2a02 90E0      		ldi r25,hi8(tempIntString)
 6639 2a04 0E94 0000 		call atoi
 6640 2a08 7C01      		movw r14,r24
 6641               	.LVL383:
 6642               	.LM858:
 6643 2a0a 8F85      		ldd r24,Y+15
 6644 2a0c 8093 0000 		sts tempIntString,r24
 6645               	.LM859:
 6646 2a10 8889      		ldd r24,Y+16
 6647 2a12 8093 0000 		sts tempIntString+1,r24
 6648               	.LM860:
 6649 2a16 80E0      		ldi r24,lo8(tempIntString)
 6650 2a18 90E0      		ldi r25,hi8(tempIntString)
 6651 2a1a 0E94 0000 		call atoi
 6652 2a1e 982E      		mov r9,r24
 6653               	.LVL384:
 6654 2a20 892E      		mov r8,r25
 6655               	.LVL385:
 6656               	.LM861:
 6657 2a22 8B85      		ldd r24,Y+11
 6658 2a24 8093 0000 		sts tempLongString,r24
 6659               	.LM862:
 6660 2a28 8C85      		ldd r24,Y+12
 6661 2a2a 8093 0000 		sts tempLongString+1,r24
 6662               	.LM863:
 6663 2a2e 8D85      		ldd r24,Y+13
 6664 2a30 8093 0000 		sts tempLongString+2,r24
 6665               	.LM864:
 6666 2a34 8E85      		ldd r24,Y+14
 6667 2a36 8093 0000 		sts tempLongString+3,r24
 6668               	.LM865:
 6669 2a3a 80E0      		ldi r24,lo8(tempLongString)
 6670 2a3c 90E0      		ldi r25,hi8(tempLongString)
 6671 2a3e 0E94 0000 		call atoi
 6672 2a42 5C01      		movw r10,r24
 6673               	.LVL386:
 6674               	.LM866:
 6675 2a44 8885      		ldd r24,Y+8
 6676 2a46 8035      		cpi r24,lo8(80)
 6677 2a48 01F0      		breq .L382
 6678 2a4a 8037      		cpi r24,lo8(112)
 6679 2a4c 01F4      		brne .L383
 6680               	.L382:
 6681               	.LM867:
 6682 2a4e E0E8      		ldi r30,lo8(128)
 6683 2a50 F0E0      		ldi r31,hi8(128)
 6684 2a52 EE0E      		add r14,r30
 6685 2a54 FF1E      		adc r15,r31
 6686               	.L383:
 6687               	.LM868:
 6688 2a56 CD2C      		mov r12,r13
 6689 2a58 DD24      		clr r13
 6690               	.LVL387:
 6691 2a5a 9601      		movw r18,r12
 6692               	.LVL388:
 6693 2a5c 220F      		lsl r18
 6694 2a5e 331F      		rol r19
 6695               	.LM869:
 6696 2a60 8D81      		ldd r24,Y+5
 6697 2a62 8234      		cpi r24,lo8(66)
 6698 2a64 01F0      		breq .L384
 6699 2a66 8236      		cpi r24,lo8(98)
 6700 2a68 01F4      		brne .L385
 6701               	.L384:
 6702               	.LM870:
 6703 2a6a 205F      		subi r18,lo8(-(16))
 6704 2a6c 3F4F      		sbci r19,hi8(-(16))
 6705 2a6e 64E2      		ldi r22,lo8(36)
 6706 2a70 70E0      		ldi r23,hi8(36)
 6707               	.LVL389:
 6708 2a72 A5E2      		ldi r26,lo8(37)
 6709 2a74 B0E0      		ldi r27,hi8(37)
 6710               	.LVL390:
 6711 2a76 00C0      		rjmp .L386
 6712               	.LVL391:
 6713               	.L385:
 6714               	.LM871:
 6715 2a78 8334      		cpi r24,lo8(67)
 6716 2a7a 01F0      		breq .L387
 6717 2a7c 8336      		cpi r24,lo8(99)
 6718 2a7e 01F4      		brne .L388
 6719               	.L387:
 6720               	.LM872:
 6721 2a80 205E      		subi r18,lo8(-(32))
 6722 2a82 3F4F      		sbci r19,hi8(-(32))
 6723 2a84 67E2      		ldi r22,lo8(39)
 6724 2a86 70E0      		ldi r23,hi8(39)
 6725               	.LVL392:
 6726 2a88 A8E2      		ldi r26,lo8(40)
 6727 2a8a B0E0      		ldi r27,hi8(40)
 6728               	.LVL393:
 6729 2a8c 00C0      		rjmp .L386
 6730               	.LVL394:
 6731               	.L388:
 6732               	.LM873:
 6733 2a8e 8434      		cpi r24,lo8(68)
 6734 2a90 01F0      		breq .L389
 6735 2a92 8436      		cpi r24,lo8(100)
 6736 2a94 01F0      		breq .L389
 6737 2a96 60E0      		ldi r22,lo8(0)
 6738 2a98 70E0      		ldi r23,hi8(0)
 6739               	.LVL395:
 6740 2a9a A0E0      		ldi r26,lo8(0)
 6741 2a9c B0E0      		ldi r27,hi8(0)
 6742               	.LVL396:
 6743 2a9e 00C0      		rjmp .L386
 6744               	.LVL397:
 6745               	.L389:
 6746               	.LM874:
 6747 2aa0 205D      		subi r18,lo8(-(48))
 6748 2aa2 3F4F      		sbci r19,hi8(-(48))
 6749 2aa4 6AE2      		ldi r22,lo8(42)
 6750 2aa6 70E0      		ldi r23,hi8(42)
 6751               	.LVL398:
 6752 2aa8 ABE2      		ldi r26,lo8(43)
 6753 2aaa B0E0      		ldi r27,hi8(43)
 6754               	.LVL399:
 6755               	.L386:
 6756 2aac E0E0      		ldi r30,lo8(switchStuff)
 6757 2aae F0E0      		ldi r31,hi8(switchStuff)
 6758               	.LM875:
 6759 2ab0 A901      		movw r20,r18
 6760 2ab2 4F5F      		subi r20,lo8(-(1))
 6761 2ab4 5F4F      		sbci r21,hi8(-(1))
 6762               	.L392:
 6763 2ab6 8081      		ld r24,Z
 6764 2ab8 90E0      		ldi r25,lo8(0)
 6765 2aba 8217      		cp r24,r18
 6766 2abc 9307      		cpc r25,r19
 6767 2abe 01F0      		breq .L390
 6768 2ac0 8417      		cp r24,r20
 6769 2ac2 9507      		cpc r25,r21
 6770 2ac4 01F4      		brne .L391
 6771               	.L390:
 6772               	.LM876:
 6773 2ac6 82E1      		ldi r24,lo8(18)
 6774 2ac8 90E0      		ldi r25,hi8(18)
 6775               	.LVL400:
 6776               	.L399:
 6777 2aca 0E94 0000 		call fail
 6778               	.LVL401:
 6779 2ace 00C0      		rjmp .L397
 6780               	.LVL402:
 6781               	.L391:
 6782               	.LM877:
 6783 2ad0 3196      		adiw r30,1
 6784               	.LM878:
 6785 2ad2 80E0      		ldi r24,hi8(switchStuff+16)
 6786 2ad4 E030      		cpi r30,lo8(switchStuff+16)
 6787 2ad6 F807      		cpc r31,r24
 6788 2ad8 01F4      		brne .L392
 6789               	.LM879:
 6790 2ada F801      		movw r30,r16
 6791 2adc 93E0      		ldi r25,3
 6792 2ade EE0F      	1:	lsl r30
 6793 2ae0 FF1F      		rol r31
 6794 2ae2 9A95      		dec r25
 6795 2ae4 01F4      		brne 1b
 6796 2ae6 E050      		subi r30,lo8(-(inputs))
 6797 2ae8 F040      		sbci r31,hi8(-(inputs))
 6798 2aea 2083      		st Z,r18
 6799               	.LM880:
 6800 2aec 8F81      		ldd r24,Y+7
 6801 2aee 8834      		cpi r24,lo8(72)
 6802 2af0 01F0      		breq .L393
 6803 2af2 8836      		cpi r24,lo8(104)
 6804 2af4 01F0      		breq .L393
 6805 2af6 8133      		cpi r24,lo8(49)
 6806 2af8 01F4      		brne .L394
 6807               	.L393:
 6808               	.LM881:
 6809 2afa F801      		movw r30,r16
 6810 2afc 83E0      		ldi r24,3
 6811 2afe EE0F      	1:	lsl r30
 6812 2b00 FF1F      		rol r31
 6813 2b02 8A95      		dec r24
 6814 2b04 01F4      		brne 1b
 6815 2b06 E050      		subi r30,lo8(-(inputs))
 6816 2b08 F040      		sbci r31,hi8(-(inputs))
 6817 2b0a 1182      		std Z+1,__zero_reg__
 6818               	.LM882:
 6819 2b0c F801      		movw r30,r16
 6820 2b0e 53E0      		ldi r21,3
 6821 2b10 EE0F      	1:	lsl r30
 6822 2b12 FF1F      		rol r31
 6823 2b14 5A95      		dec r21
 6824 2b16 01F4      		brne 1b
 6825 2b18 E050      		subi r30,lo8(-(inputs+2))
 6826 2b1a F040      		sbci r31,hi8(-(inputs+2))
 6827 2b1c 8FEF      		ldi r24,lo8(-1)
 6828 2b1e 8083      		st Z,r24
 6829 2b20 00C0      		rjmp .L395
 6830               	.L394:
 6831               	.LM883:
 6832 2b22 8FEF      		ldi r24,lo8(-1)
 6833 2b24 8183      		std Z+1,r24
 6834               	.LM884:
 6835 2b26 F801      		movw r30,r16
 6836 2b28 43E0      		ldi r20,3
 6837 2b2a EE0F      	1:	lsl r30
 6838 2b2c FF1F      		rol r31
 6839 2b2e 4A95      		dec r20
 6840 2b30 01F4      		brne 1b
 6841 2b32 E050      		subi r30,lo8(-(inputs+2))
 6842 2b34 F040      		sbci r31,hi8(-(inputs+2))
 6843 2b36 1082      		st Z,__zero_reg__
 6844               	.L395:
 6845               	.LM885:
 6846 2b38 33E0      		ldi r19,3
 6847 2b3a 000F      	1:	lsl r16
 6848 2b3c 111F      		rol r17
 6849 2b3e 3A95      		dec r19
 6850 2b40 01F4      		brne 1b
 6851 2b42 F801      		movw r30,r16
 6852 2b44 E050      		subi r30,lo8(-(inputs))
 6853 2b46 F040      		sbci r31,hi8(-(inputs))
 6854 2b48 E382      		std Z+3,r14
 6855               	.LM886:
 6856               	.LVL403:
 6857 2b4a 0050      		subi r16,lo8(-(inputs+4))
 6858 2b4c 1040      		sbci r17,hi8(-(inputs+4))
 6859 2b4e 8B2D      		mov r24,r11
 6860 2b50 9927      		clr r25
 6861 2b52 87FD      		sbrc r24,7
 6862 2b54 9A95      		dec r25
 6863 2b56 E801      		movw r28,r16
 6864               	.LVL404:
 6865 2b58 8883      		st Y,r24
 6866               	.LM887:
 6867 2b5a A582      		std Z+5,r10
 6868               	.LM888:
 6869 2b5c 292D      		mov r18,r9
 6870 2b5e 382D      		mov r19,r8
 6871 2b60 C901      		movw r24,r18
 6872 2b62 8F3F      		cpi r24,255
 6873 2b64 9105      		cpc r25,__zero_reg__
 6874 2b66 01F0      		breq .L396
 6875 2b68 04F0      		brlt .L396
 6876               	.LVL405:
 6877 2b6a 8FEF      		ldi r24,lo8(255)
 6878 2b6c 90E0      		ldi r25,hi8(255)
 6879               	.LVL406:
 6880               	.L396:
 6881 2b6e 8683      		std Z+6,r24
 6882               	.LM889:
 6883 2b70 FB01      		movw r30,r22
 6884 2b72 3081      		ld r19,Z
 6885               	.LVL407:
 6886 2b74 81E0      		ldi r24,lo8(1)
 6887 2b76 90E0      		ldi r25,hi8(1)
 6888               	.LVL408:
 6889 2b78 00C0      		rjmp 2f
 6890 2b7a 880F      	1:	lsl r24
 6891 2b7c 991F      		rol r25
 6892 2b7e CA94      	2:	dec r12
 6893 2b80 02F4      		brpl 1b
 6894 2b82 282F      		mov r18,r24
 6895 2b84 2095      		com r18
 6896 2b86 3223      		and r19,r18
 6897 2b88 3083      		st Z,r19
 6898               	.LM890:
 6899 2b8a 2C91      		ld r18,X
 6900 2b8c 282B      		or r18,r24
 6901 2b8e 2C93      		st X,r18
 6902               	.LM891:
 6903 2b90 0E94 0000 		call ok
 6904               	.LVL409:
 6905               	.L397:
 6906               	/* epilogue start */
 6907               	.LM892:
 6908 2b94 DF91      		pop r29
 6909 2b96 CF91      		pop r28
 6910               	.LVL410:
 6911 2b98 1F91      		pop r17
 6912 2b9a 0F91      		pop r16
 6913               	.LVL411:
 6914 2b9c FF90      		pop r15
 6915 2b9e EF90      		pop r14
 6916               	.LVL412:
 6917 2ba0 DF90      		pop r13
 6918               	.LVL413:
 6919 2ba2 CF90      		pop r12
 6920 2ba4 BF90      		pop r11
 6921 2ba6 AF90      		pop r10
 6922               	.LVL414:
 6923 2ba8 9F90      		pop r9
 6924               	.LVL415:
 6925 2baa 8F90      		pop r8
 6926               	.LVL416:
 6927 2bac 0895      		ret
 6928               	.LFE80:
 6930               	.global	setAnalogInput
 6932               	setAnalogInput:
 6933               	.LFB79:
 6934               	.LM893:
 6935               	.LVL417:
 6936 2bae 3F92      		push r3
 6937 2bb0 4F92      		push r4
 6938 2bb2 5F92      		push r5
 6939 2bb4 6F92      		push r6
 6940 2bb6 7F92      		push r7
 6941 2bb8 8F92      		push r8
 6942 2bba 9F92      		push r9
 6943 2bbc AF92      		push r10
 6944 2bbe BF92      		push r11
 6945 2bc0 CF92      		push r12
 6946 2bc2 DF92      		push r13
 6947 2bc4 EF92      		push r14
 6948 2bc6 FF92      		push r15
 6949 2bc8 0F93      		push r16
 6950 2bca 1F93      		push r17
 6951 2bcc CF93      		push r28
 6952 2bce DF93      		push r29
 6953               	/* prologue: function */
 6954               	/* frame size = 0 */
 6955 2bd0 EC01      		movw r28,r24
 6956               	.LM894:
 6957 2bd2 8B81      		ldd r24,Y+3
 6958               	.LVL418:
 6959 2bd4 8093 0000 		sts tempIntString,r24
 6960               	.LM895:
 6961 2bd8 8C81      		ldd r24,Y+4
 6962 2bda 8093 0000 		sts tempIntString+1,r24
 6963               	.LM896:
 6964 2bde 80E0      		ldi r24,lo8(tempIntString)
 6965 2be0 90E0      		ldi r25,hi8(tempIntString)
 6966 2be2 0E94 0000 		call atoi
 6967 2be6 7C01      		movw r14,r24
 6968               	.LVL419:
 6969               	.LM897:
 6970 2be8 84E0      		ldi r24,lo8(4)
 6971 2bea E816      		cp r14,r24
 6972 2bec F104      		cpc r15,__zero_reg__
 6973 2bee 04F0      		brlt .L401
 6974               	.LM898:
 6975 2bf0 81E1      		ldi r24,lo8(17)
 6976 2bf2 90E0      		ldi r25,hi8(17)
 6977 2bf4 00C0      		rjmp .L414
 6978               	.L401:
 6979               	.LM899:
 6980 2bf6 00E3      		ldi r16,lo8(48)
 6981 2bf8 0093 0000 		sts tempIntString,r16
 6982               	.LM900:
 6983 2bfc 8E81      		ldd r24,Y+6
 6984 2bfe 8093 0000 		sts tempIntString+1,r24
 6985               	.LM901:
 6986 2c02 80E0      		ldi r24,lo8(tempIntString)
 6987 2c04 90E0      		ldi r25,hi8(tempIntString)
 6988 2c06 0E94 0000 		call atoi
 6989 2c0a 182F      		mov r17,r24
 6990               	.LM902:
 6991 2c0c 8830      		cpi r24,lo8(8)
 6992 2c0e 00F0      		brlo .L403
 6993               	.LM903:
 6994 2c10 84E0      		ldi r24,lo8(4)
 6995 2c12 90E0      		ldi r25,hi8(4)
 6996 2c14 00C0      		rjmp .L414
 6997               	.L403:
 6998               	.LM904:
 6999 2c16 8E85      		ldd r24,Y+14
 7000 2c18 8093 0000 		sts tempIntString,r24
 7001               	.LM905:
 7002 2c1c 8F85      		ldd r24,Y+15
 7003 2c1e 8093 0000 		sts tempIntString+1,r24
 7004               	.LM906:
 7005 2c22 80E0      		ldi r24,lo8(tempIntString)
 7006 2c24 90E0      		ldi r25,hi8(tempIntString)
 7007 2c26 0E94 0000 		call atoi
 7008 2c2a 6C01      		movw r12,r24
 7009               	.LVL420:
 7010               	.LM907:
 7011 2c2c 8C89      		ldd r24,Y+20
 7012 2c2e 8093 0000 		sts tempIntString,r24
 7013               	.LM908:
 7014 2c32 8D89      		ldd r24,Y+21
 7015 2c34 8093 0000 		sts tempIntString+1,r24
 7016               	.LM909:
 7017 2c38 80E0      		ldi r24,lo8(tempIntString)
 7018 2c3a 90E0      		ldi r25,hi8(tempIntString)
 7019 2c3c 0E94 0000 		call atoi
 7020 2c40 582E      		mov r5,r24
 7021               	.LVL421:
 7022 2c42 492E      		mov r4,r25
 7023               	.LVL422:
 7024               	.LM910:
 7025 2c44 0093 0000 		sts tempIntString,r16
 7026               	.LM911:
 7027 2c48 8E89      		ldd r24,Y+22
 7028 2c4a 8093 0000 		sts tempIntString+1,r24
 7029               	.LM912:
 7030 2c4e 80E0      		ldi r24,lo8(tempIntString)
 7031 2c50 90E0      		ldi r25,hi8(tempIntString)
 7032 2c52 0E94 0000 		call atoi
 7033 2c56 382E      		mov r3,r24
 7034               	.LM913:
 7035 2c58 0093 0000 		sts tempLongString,r16
 7036               	.LM914:
 7037 2c5c 8F81      		ldd r24,Y+7
 7038 2c5e 8093 0000 		sts tempLongString+1,r24
 7039               	.LM915:
 7040 2c62 8885      		ldd r24,Y+8
 7041 2c64 8093 0000 		sts tempLongString+2,r24
 7042               	.LM916:
 7043 2c68 8985      		ldd r24,Y+9
 7044 2c6a 8093 0000 		sts tempLongString+3,r24
 7045               	.LM917:
 7046 2c6e 80E0      		ldi r24,lo8(tempLongString)
 7047 2c70 90E0      		ldi r25,hi8(tempLongString)
 7048 2c72 0E94 0000 		call atoi
 7049 2c76 5C01      		movw r10,r24
 7050               	.LVL423:
 7051               	.LM918:
 7052 2c78 8A85      		ldd r24,Y+10
 7053 2c7a 8093 0000 		sts tempLongString+1,r24
 7054               	.LM919:
 7055 2c7e 8B85      		ldd r24,Y+11
 7056 2c80 8093 0000 		sts tempLongString+2,r24
 7057               	.LM920:
 7058 2c84 8C85      		ldd r24,Y+12
 7059 2c86 8093 0000 		sts tempLongString+3,r24
 7060               	.LM921:
 7061 2c8a 80E0      		ldi r24,lo8(tempLongString)
 7062 2c8c 90E0      		ldi r25,hi8(tempLongString)
 7063 2c8e 0E94 0000 		call atoi
 7064 2c92 4C01      		movw r8,r24
 7065               	.LVL424:
 7066               	.LM922:
 7067 2c94 8889      		ldd r24,Y+16
 7068 2c96 8093 0000 		sts tempLongString,r24
 7069               	.LM923:
 7070 2c9a 8989      		ldd r24,Y+17
 7071 2c9c 8093 0000 		sts tempLongString+1,r24
 7072               	.LM924:
 7073 2ca0 8A89      		ldd r24,Y+18
 7074 2ca2 8093 0000 		sts tempLongString+2,r24
 7075               	.LM925:
 7076 2ca6 8B89      		ldd r24,Y+19
 7077 2ca8 8093 0000 		sts tempLongString+3,r24
 7078               	.LM926:
 7079 2cac 80E0      		ldi r24,lo8(tempLongString)
 7080 2cae 90E0      		ldi r25,hi8(tempLongString)
 7081 2cb0 0E94 0000 		call atoi
 7082 2cb4 3C01      		movw r6,r24
 7083               	.LVL425:
 7084               	.LM927:
 7085 2cb6 8D81      		ldd r24,Y+5
 7086 2cb8 8334      		cpi r24,lo8(67)
 7087 2cba 01F0      		breq .L404
 7088 2cbc 8336      		cpi r24,lo8(99)
 7089 2cbe 01F0      		breq .L404
 7090               	.LM928:
 7091 2cc0 83E0      		ldi r24,lo8(3)
 7092 2cc2 90E0      		ldi r25,hi8(3)
 7093 2cc4 00C0      		rjmp .L414
 7094               	.L404:
 7095               	.LM929:
 7096 2cc6 612F      		mov r22,r17
 7097 2cc8 70E0      		ldi r23,lo8(0)
 7098 2cca CB01      		movw r24,r22
 7099 2ccc 880F      		lsl r24
 7100 2cce 991F      		rol r25
 7101 2cd0 9C01      		movw r18,r24
 7102 2cd2 4427      		clr r20
 7103 2cd4 37FD      		sbrc r19,7
 7104 2cd6 4095      		com r20
 7105 2cd8 542F      		mov r21,r20
 7106               	.LVL426:
 7107               	.LM930:
 7108 2cda 205E      		subi r18,lo8(-(32))
 7109 2cdc 3F4F      		sbci r19,hi8(-(32))
 7110 2cde 4F4F      		sbci r20,hlo8(-(32))
 7111 2ce0 5F4F      		sbci r21,hhi8(-(32))
 7112 2ce2 E0E0      		ldi r30,lo8(switchStuff)
 7113 2ce4 F0E0      		ldi r31,hi8(switchStuff)
 7114               	.L406:
 7115               	.LM931:
 7116 2ce6 8081      		ld r24,Z
 7117 2ce8 90E0      		ldi r25,lo8(0)
 7118 2cea A0E0      		ldi r26,lo8(0)
 7119 2cec B0E0      		ldi r27,hi8(0)
 7120 2cee 8217      		cp r24,r18
 7121 2cf0 9307      		cpc r25,r19
 7122 2cf2 A407      		cpc r26,r20
 7123 2cf4 B507      		cpc r27,r21
 7124 2cf6 01F4      		brne .L405
 7125               	.LM932:
 7126 2cf8 82E1      		ldi r24,lo8(18)
 7127 2cfa 90E0      		ldi r25,hi8(18)
 7128               	.L414:
 7129 2cfc 0E94 0000 		call fail
 7130               	.LVL427:
 7131 2d00 00C0      		rjmp .L412
 7132               	.LVL428:
 7133               	.L405:
 7134               	.LM933:
 7135 2d02 3196      		adiw r30,1
 7136               	.LM934:
 7137 2d04 90E0      		ldi r25,hi8(switchStuff+16)
 7138 2d06 E030      		cpi r30,lo8(switchStuff+16)
 7139 2d08 F907      		cpc r31,r25
 7140 2d0a 01F4      		brne .L406
 7141               	.LM935:
 7142 2d0c 8701      		movw r16,r14
 7143 2d0e B3E0      		ldi r27,3
 7144 2d10 000F      	1:	lsl r16
 7145 2d12 111F      		rol r17
 7146 2d14 BA95      		dec r27
 7147 2d16 01F4      		brne 1b
 7148 2d18 0050      		subi r16,lo8(-(inputs))
 7149 2d1a 1040      		sbci r17,hi8(-(inputs))
 7150 2d1c F801      		movw r30,r16
 7151 2d1e 2083      		st Z,r18
 7152               	.LM936:
 7153 2d20 27B1      		in r18,39-32
 7154               	.LVL429:
 7155 2d22 81E0      		ldi r24,lo8(1)
 7156 2d24 90E0      		ldi r25,hi8(1)
 7157 2d26 00C0      		rjmp 2f
 7158 2d28 880F      	1:	lsl r24
 7159 2d2a 991F      		rol r25
 7160 2d2c 6A95      	2:	dec r22
 7161 2d2e 02F4      		brpl 1b
 7162 2d30 8095      		com r24
 7163 2d32 8223      		and r24,r18
 7164 2d34 87B9      		out 39-32,r24
 7165               	.LM937:
 7166 2d36 B501      		movw r22,r10
 7167 2d38 8827      		clr r24
 7168 2d3a 77FD      		sbrc r23,7
 7169 2d3c 8095      		com r24
 7170 2d3e 982F      		mov r25,r24
 7171               	.LVL430:
 7172               	.LM938:
 7173 2d40 2FEF      		ldi r18,lo8(255)
 7174 2d42 30E0      		ldi r19,hi8(255)
 7175 2d44 40E0      		ldi r20,hlo8(255)
 7176 2d46 50E0      		ldi r21,hhi8(255)
 7177 2d48 0E94 0000 		call __mulsi3
 7178               	.LVL431:
 7179               	.LM939:
 7180 2d4c 24E6      		ldi r18,lo8(100)
 7181 2d4e 30E0      		ldi r19,hi8(100)
 7182 2d50 40E0      		ldi r20,hlo8(100)
 7183 2d52 50E0      		ldi r21,hhi8(100)
 7184 2d54 0E94 0000 		call __divmodsi4
 7185 2d58 F801      		movw r30,r16
 7186 2d5a 2183      		std Z+1,r18
 7187               	.LM940:
 7188 2d5c B401      		movw r22,r8
 7189 2d5e 8827      		clr r24
 7190 2d60 77FD      		sbrc r23,7
 7191 2d62 8095      		com r24
 7192 2d64 982F      		mov r25,r24
 7193               	.LVL432:
 7194               	.LM941:
 7195 2d66 2FEF      		ldi r18,lo8(255)
 7196 2d68 30E0      		ldi r19,hi8(255)
 7197 2d6a 40E0      		ldi r20,hlo8(255)
 7198 2d6c 50E0      		ldi r21,hhi8(255)
 7199 2d6e 0E94 0000 		call __mulsi3
 7200               	.LVL433:
 7201               	.LM942:
 7202 2d72 24E6      		ldi r18,lo8(100)
 7203 2d74 30E0      		ldi r19,hi8(100)
 7204 2d76 40E0      		ldi r20,hlo8(100)
 7205 2d78 50E0      		ldi r21,hhi8(100)
 7206 2d7a 0E94 0000 		call __divmodsi4
 7207 2d7e C901      		movw r24,r18
 7208 2d80 DA01      		movw r26,r20
 7209               	.LM943:
 7210 2d82 8F3F      		cpi r24,lo8(255)
 7211 2d84 9105      		cpc r25,__zero_reg__
 7212 2d86 A105      		cpc r26,__zero_reg__
 7213 2d88 B105      		cpc r27,__zero_reg__
 7214               	.LVL434:
 7215 2d8a 01F4      		brne .L407
 7216 2d8c 8EEF      		ldi r24,lo8(254)
 7217 2d8e 90E0      		ldi r25,hi8(254)
 7218 2d90 A0E0      		ldi r26,hlo8(254)
 7219 2d92 B0E0      		ldi r27,hhi8(254)
 7220               	.L407:
 7221               	.LM944:
 7222 2d94 F701      		movw r30,r14
 7223 2d96 A3E0      		ldi r26,3
 7224 2d98 EE0F      	1:	lsl r30
 7225 2d9a FF1F      		rol r31
 7226 2d9c AA95      		dec r26
 7227 2d9e 01F4      		brne 1b
 7228 2da0 E050      		subi r30,lo8(-(inputs+2))
 7229 2da2 F040      		sbci r31,hi8(-(inputs+2))
 7230 2da4 8083      		st Z,r24
 7231               	.LM945:
 7232 2da6 8D85      		ldd r24,Y+13
 7233               	.LVL435:
 7234 2da8 8035      		cpi r24,lo8(80)
 7235 2daa 01F0      		breq .L408
 7236 2dac 8037      		cpi r24,lo8(112)
 7237 2dae 01F4      		brne .L409
 7238               	.L408:
 7239               	.LM946:
 7240 2db0 80E8      		ldi r24,lo8(128)
 7241 2db2 90E0      		ldi r25,hi8(128)
 7242 2db4 C80E      		add r12,r24
 7243 2db6 D91E      		adc r13,r25
 7244               	.L409:
 7245               	.LM947:
 7246 2db8 D701      		movw r26,r14
 7247 2dba E3E0      		ldi r30,3
 7248 2dbc AA0F      	1:	lsl r26
 7249 2dbe BB1F      		rol r27
 7250 2dc0 EA95      		dec r30
 7251 2dc2 01F4      		brne 1b
 7252 2dc4 A050      		subi r26,lo8(-(inputs))
 7253 2dc6 B040      		sbci r27,hi8(-(inputs))
 7254 2dc8 1396      		adiw r26,3
 7255 2dca CC92      		st X,r12
 7256 2dcc 1397      		sbiw r26,3
 7257               	.LM948:
 7258 2dce F701      		movw r30,r14
 7259 2dd0 73E0      		ldi r23,3
 7260 2dd2 EE0F      	1:	lsl r30
 7261 2dd4 FF1F      		rol r31
 7262 2dd6 7A95      		dec r23
 7263 2dd8 01F4      		brne 1b
 7264 2dda E050      		subi r30,lo8(-(inputs+4))
 7265 2ddc F040      		sbci r31,hi8(-(inputs+4))
 7266 2dde 872D      		mov r24,r7
 7267 2de0 9927      		clr r25
 7268 2de2 87FD      		sbrc r24,7
 7269 2de4 9A95      		dec r25
 7270 2de6 8083      		st Z,r24
 7271               	.LM949:
 7272 2de8 1596      		adiw r26,5
 7273 2dea 6C92      		st X,r6
 7274 2dec 1597      		sbiw r26,5
 7275               	.LM950:
 7276 2dee 252D      		mov r18,r5
 7277 2df0 342D      		mov r19,r4
 7278 2df2 C901      		movw r24,r18
 7279 2df4 8F3F      		cpi r24,255
 7280 2df6 9105      		cpc r25,__zero_reg__
 7281 2df8 01F0      		breq .L410
 7282 2dfa 04F0      		brlt .L410
 7283               	.LVL436:
 7284 2dfc 8FEF      		ldi r24,lo8(255)
 7285 2dfe 90E0      		ldi r25,hi8(255)
 7286               	.LVL437:
 7287               	.L410:
 7288 2e00 1696      		adiw r26,6
 7289 2e02 8C93      		st X,r24
 7290               	.LM951:
 7291 2e04 F701      		movw r30,r14
 7292 2e06 53E0      		ldi r21,3
 7293 2e08 EE0F      	1:	lsl r30
 7294 2e0a FF1F      		rol r31
 7295 2e0c 5A95      		dec r21
 7296 2e0e 01F4      		brne 1b
 7297 2e10 E050      		subi r30,lo8(-(inputs))
 7298 2e12 F040      		sbci r31,hi8(-(inputs))
 7299 2e14 832D      		mov r24,r3
 7300               	.LVL438:
 7301 2e16 8830      		cpi r24,lo8(8)
 7302 2e18 00F0      		brlo .L411
 7303 2e1a 87E0      		ldi r24,lo8(7)
 7304               	.L411:
 7305 2e1c 8783      		std Z+7,r24
 7306               	.LM952:
 7307 2e1e 8091 7A00 		lds r24,122
 7308               	.LVL439:
 7309 2e22 8160      		ori r24,lo8(1)
 7310 2e24 8093 7A00 		sts 122,r24
 7311               	.LM953:
 7312 2e28 0E94 0000 		call ok
 7313               	.LVL440:
 7314               	.L412:
 7315               	/* epilogue start */
 7316               	.LM954:
 7317 2e2c DF91      		pop r29
 7318 2e2e CF91      		pop r28
 7319               	.LVL441:
 7320 2e30 1F91      		pop r17
 7321 2e32 0F91      		pop r16
 7322 2e34 FF90      		pop r15
 7323 2e36 EF90      		pop r14
 7324               	.LVL442:
 7325 2e38 DF90      		pop r13
 7326 2e3a CF90      		pop r12
 7327               	.LVL443:
 7328 2e3c BF90      		pop r11
 7329 2e3e AF90      		pop r10
 7330               	.LVL444:
 7331 2e40 9F90      		pop r9
 7332 2e42 8F90      		pop r8
 7333               	.LVL445:
 7334 2e44 7F90      		pop r7
 7335 2e46 6F90      		pop r6
 7336               	.LVL446:
 7337 2e48 5F90      		pop r5
 7338               	.LVL447:
 7339 2e4a 4F90      		pop r4
 7340               	.LVL448:
 7341 2e4c 3F90      		pop r3
 7342 2e4e 0895      		ret
 7343               	.LFE79:
 7345               	.global	programSetTime
 7347               	programSetTime:
 7348               	.LFB36:
 7349               	.LM955:
 7350               	.LVL449:
 7351 2e50 CF92      		push r12
 7352 2e52 DF92      		push r13
 7353 2e54 EF92      		push r14
 7354 2e56 FF92      		push r15
 7355 2e58 0F93      		push r16
 7356 2e5a 1F93      		push r17
 7357 2e5c CF93      		push r28
 7358 2e5e DF93      		push r29
 7359               	/* prologue: function */
 7360               	/* frame size = 0 */
 7361 2e60 EC01      		movw r28,r24
 7362               	.LM956:
 7363 2e62 8B81      		ldd r24,Y+3
 7364               	.LVL450:
 7365 2e64 8093 0000 		sts tempIntString,r24
 7366               	.LM957:
 7367 2e68 8C81      		ldd r24,Y+4
 7368 2e6a 8093 0000 		sts tempIntString+1,r24
 7369               	.LM958:
 7370 2e6e 80E0      		ldi r24,lo8(tempIntString)
 7371 2e70 90E0      		ldi r25,hi8(tempIntString)
 7372 2e72 0E94 0000 		call atoi
 7373 2e76 8C01      		movw r16,r24
 7374               	.LVL451:
 7375               	.LM959:
 7376 2e78 8431      		cpi r24,20
 7377 2e7a 9105      		cpc r25,__zero_reg__
 7378 2e7c 04F4      		brge .L416
 7379               	.LVL452:
 7380 2e7e 0097      		sbiw r24,0
 7381 2e80 01F4      		brne .L417
 7382 2e82 8C81      		ldd r24,Y+4
 7383               	.LVL453:
 7384 2e84 8033      		cpi r24,lo8(48)
 7385 2e86 01F0      		breq .L417
 7386               	.LVL454:
 7387               	.L416:
 7388               	.LM960:
 7389 2e88 82E0      		ldi r24,lo8(2)
 7390 2e8a 90E0      		ldi r25,hi8(2)
 7391 2e8c 00C0      		rjmp .L426
 7392               	.LVL455:
 7393               	.L417:
 7394               	.LM961:
 7395 2e8e F801      		movw r30,r16
 7396 2e90 EE0F      		lsl r30
 7397 2e92 FF1F      		rol r31
 7398 2e94 C801      		movw r24,r16
 7399 2e96 A3E0      		ldi r26,3
 7400 2e98 880F      	1:	lsl r24
 7401 2e9a 991F      		rol r25
 7402 2e9c AA95      		dec r26
 7403 2e9e 01F4      		brne 1b
 7404 2ea0 E80F      		add r30,r24
 7405 2ea2 F91F      		adc r31,r25
 7406 2ea4 E050      		subi r30,lo8(-(weeklyProgram))
 7407 2ea6 F040      		sbci r31,hi8(-(weeklyProgram))
 7408 2ea8 8081      		ld r24,Z
 7409 2eaa 8F3F      		cpi r24,lo8(-1)
 7410 2eac 01F4      		brne .L419
 7411 2eae 8181      		ldd r24,Z+1
 7412 2eb0 8F3F      		cpi r24,lo8(-1)
 7413 2eb2 01F4      		brne .L419
 7414               	.LM962:
 7415 2eb4 8DE0      		ldi r24,lo8(13)
 7416 2eb6 90E0      		ldi r25,hi8(13)
 7417 2eb8 00C0      		rjmp .L426
 7418               	.L419:
 7419               	.LM963:
 7420 2eba 8D81      		ldd r24,Y+5
 7421 2ebc 8093 0000 		sts tempIntString,r24
 7422               	.LM964:
 7423 2ec0 8E81      		ldd r24,Y+6
 7424 2ec2 8093 0000 		sts tempIntString+1,r24
 7425               	.LM965:
 7426 2ec6 80E0      		ldi r24,lo8(tempIntString)
 7427 2ec8 90E0      		ldi r25,hi8(tempIntString)
 7428 2eca 0E94 0000 		call atoi
 7429 2ece 6C01      		movw r12,r24
 7430               	.LVL456:
 7431               	.LM966:
 7432 2ed0 8F81      		ldd r24,Y+7
 7433 2ed2 8093 0000 		sts tempIntString,r24
 7434               	.LM967:
 7435 2ed6 8885      		ldd r24,Y+8
 7436 2ed8 8093 0000 		sts tempIntString+1,r24
 7437               	.LM968:
 7438 2edc 80E0      		ldi r24,lo8(tempIntString)
 7439 2ede 90E0      		ldi r25,hi8(tempIntString)
 7440 2ee0 0E94 0000 		call atoi
 7441 2ee4 7C01      		movw r14,r24
 7442               	.LVL457:
 7443               	.LM969:
 7444 2ee6 8985      		ldd r24,Y+9
 7445 2ee8 8093 0000 		sts tempLongString,r24
 7446               	.LM970:
 7447 2eec 8A85      		ldd r24,Y+10
 7448 2eee 8093 0000 		sts tempLongString+1,r24
 7449               	.LM971:
 7450 2ef2 8B85      		ldd r24,Y+11
 7451 2ef4 8093 0000 		sts tempLongString+2,r24
 7452               	.LM972:
 7453 2ef8 8C85      		ldd r24,Y+12
 7454 2efa 8093 0000 		sts tempLongString+3,r24
 7455               	.LM973:
 7456 2efe 80E0      		ldi r24,lo8(tempLongString)
 7457 2f00 90E0      		ldi r25,hi8(tempLongString)
 7458 2f02 0E94 0000 		call atoi
 7459 2f06 9C01      		movw r18,r24
 7460               	.LVL458:
 7461               	.LM974:
 7462 2f08 88E1      		ldi r24,lo8(24)
 7463 2f0a C816      		cp r12,r24
 7464 2f0c D104      		cpc r13,__zero_reg__
 7465 2f0e 04F4      		brge .L420
 7466 2f10 C114      		cp r12,__zero_reg__
 7467 2f12 D104      		cpc r13,__zero_reg__
 7468 2f14 01F4      		brne .L421
 7469 2f16 8E81      		ldd r24,Y+6
 7470 2f18 8033      		cpi r24,lo8(48)
 7471 2f1a 01F0      		breq .L421
 7472               	.L420:
 7473               	.LM975:
 7474 2f1c 89E0      		ldi r24,lo8(9)
 7475 2f1e 90E0      		ldi r25,hi8(9)
 7476 2f20 00C0      		rjmp .L426
 7477               	.L421:
 7478               	.LM976:
 7479 2f22 8CE3      		ldi r24,lo8(60)
 7480 2f24 E816      		cp r14,r24
 7481 2f26 F104      		cpc r15,__zero_reg__
 7482 2f28 04F4      		brge .L422
 7483 2f2a E114      		cp r14,__zero_reg__
 7484 2f2c F104      		cpc r15,__zero_reg__
 7485 2f2e 01F4      		brne .L423
 7486 2f30 8885      		ldd r24,Y+8
 7487 2f32 8033      		cpi r24,lo8(48)
 7488 2f34 01F0      		breq .L423
 7489               	.L422:
 7490               	.LM977:
 7491 2f36 8AE0      		ldi r24,lo8(10)
 7492 2f38 90E0      		ldi r25,hi8(10)
 7493 2f3a 00C0      		rjmp .L426
 7494               	.L423:
 7495               	.LM978:
 7496 2f3c 2115      		cp r18,__zero_reg__
 7497 2f3e 3105      		cpc r19,__zero_reg__
 7498 2f40 01F4      		brne .L424
 7499               	.LM979:
 7500 2f42 8BE0      		ldi r24,lo8(11)
 7501 2f44 90E0      		ldi r25,hi8(11)
 7502               	.L426:
 7503 2f46 0E94 0000 		call fail
 7504               	.LVL459:
 7505 2f4a 00C0      		rjmp .L425
 7506               	.LVL460:
 7507               	.L424:
 7508               	.LM980:
 7509 2f4c 8CE3      		ldi r24,lo8(60)
 7510 2f4e 90E0      		ldi r25,hi8(60)
 7511 2f50 289F      		mul r18,r24
 7512 2f52 A001      		movw r20,r0
 7513 2f54 299F      		mul r18,r25
 7514 2f56 500D      		add r21,r0
 7515 2f58 389F      		mul r19,r24
 7516 2f5a 500D      		add r21,r0
 7517 2f5c 1124      		clr r1
 7518               	.LVL461:
 7519               	.LM981:
 7520 2f5e C89E      		mul r12,r24
 7521 2f60 9001      		movw r18,r0
 7522 2f62 C99E      		mul r12,r25
 7523 2f64 300D      		add r19,r0
 7524 2f66 D89E      		mul r13,r24
 7525 2f68 300D      		add r19,r0
 7526 2f6a 1124      		clr r1
 7527               	.LVL462:
 7528               	.LM982:
 7529 2f6c 2E0D      		add r18,r14
 7530 2f6e 3F1D      		adc r19,r15
 7531               	.LM983:
 7532 2f70 D801      		movw r26,r16
 7533 2f72 AA0F      		lsl r26
 7534 2f74 BB1F      		rol r27
 7535 2f76 C801      		movw r24,r16
 7536 2f78 73E0      		ldi r23,3
 7537 2f7a 880F      	1:	lsl r24
 7538 2f7c 991F      		rol r25
 7539 2f7e 7A95      		dec r23
 7540 2f80 01F4      		brne 1b
 7541 2f82 A80F      		add r26,r24
 7542 2f84 B91F      		adc r27,r25
 7543 2f86 A050      		subi r26,lo8(-(weeklyProgram))
 7544 2f88 B040      		sbci r27,hi8(-(weeklyProgram))
 7545 2f8a 832F      		mov r24,r19
 7546 2f8c 9927      		clr r25
 7547 2f8e 87FD      		sbrc r24,7
 7548 2f90 9A95      		dec r25
 7549 2f92 1196      		adiw r26,1
 7550 2f94 8C93      		st X,r24
 7551 2f96 1197      		sbiw r26,1
 7552               	.LM984:
 7553 2f98 F801      		movw r30,r16
 7554 2f9a EE0F      		lsl r30
 7555 2f9c FF1F      		rol r31
 7556 2f9e EE0F      		lsl r30
 7557 2fa0 FF1F      		rol r31
 7558 2fa2 E00F      		add r30,r16
 7559 2fa4 F11F      		adc r31,r17
 7560 2fa6 EE0F      		lsl r30
 7561 2fa8 FF1F      		rol r31
 7562 2faa E050      		subi r30,lo8(-(weeklyProgram+2))
 7563 2fac F040      		sbci r31,hi8(-(weeklyProgram+2))
 7564 2fae 2083      		st Z,r18
 7565               	.LM985:
 7566 2fb0 852F      		mov r24,r21
 7567 2fb2 9927      		clr r25
 7568 2fb4 87FD      		sbrc r24,7
 7569 2fb6 9A95      		dec r25
 7570               	.LVL463:
 7571 2fb8 1396      		adiw r26,3
 7572 2fba 8C93      		st X,r24
 7573 2fbc 1397      		sbiw r26,3
 7574               	.LM986:
 7575 2fbe 5070      		andi r21,hi8(255)
 7576 2fc0 1496      		adiw r26,4
 7577 2fc2 4C93      		st X,r20
 7578               	.LM987:
 7579 2fc4 0E94 0000 		call ok
 7580               	.LVL464:
 7581               	.L425:
 7582               	/* epilogue start */
 7583               	.LM988:
 7584 2fc8 DF91      		pop r29
 7585 2fca CF91      		pop r28
 7586               	.LVL465:
 7587 2fcc 1F91      		pop r17
 7588 2fce 0F91      		pop r16
 7589               	.LVL466:
 7590 2fd0 FF90      		pop r15
 7591 2fd2 EF90      		pop r14
 7592               	.LVL467:
 7593 2fd4 DF90      		pop r13
 7594 2fd6 CF90      		pop r12
 7595               	.LVL468:
 7596 2fd8 0895      		ret
 7597               	.LFE36:
 7599               		.data
 7600               	.LC34:
 7601 00a2 3030 3030 		.string	"0000000"
 7601      3030 3000 
 7602               		.text
 7603               	.global	programSetDays
 7605               	programSetDays:
 7606               	.LFB35:
 7607               	.LM989:
 7608               	.LVL469:
 7609 2fda EF92      		push r14
 7610 2fdc FF92      		push r15
 7611 2fde 0F93      		push r16
 7612 2fe0 1F93      		push r17
 7613 2fe2 DF93      		push r29
 7614 2fe4 CF93      		push r28
 7615 2fe6 CDB7      		in r28,__SP_L__
 7616 2fe8 DEB7      		in r29,__SP_H__
 7617 2fea 2897      		sbiw r28,8
 7618 2fec 0FB6      		in __tmp_reg__,__SREG__
 7619 2fee F894      		cli
 7620 2ff0 DEBF      		out __SP_H__,r29
 7621 2ff2 0FBE      		out __SREG__,__tmp_reg__
 7622 2ff4 CDBF      		out __SP_L__,r28
 7623               	/* prologue: function */
 7624               	/* frame size = 8 */
 7625 2ff6 8C01      		movw r16,r24
 7626               	.LM990:
 7627 2ff8 DE01      		movw r26,r28
 7628 2ffa 1196      		adiw r26,1
 7629 2ffc E0E0      		ldi r30,lo8(.LC34)
 7630 2ffe F0E0      		ldi r31,hi8(.LC34)
 7631 3000 88E0      		ldi r24,lo8(8)
 7632               	.LVL470:
 7633               	.L428:
 7634 3002 0190      		ld r0,Z+
 7635 3004 0D92      		st X+,r0
 7636 3006 8150      		subi r24,lo8(-(-1))
 7637 3008 01F4      		brne .L428
 7638               	.LM991:
 7639 300a F801      		movw r30,r16
 7640 300c 8381      		ldd r24,Z+3
 7641 300e 8093 0000 		sts tempIntString,r24
 7642               	.LM992:
 7643 3012 8481      		ldd r24,Z+4
 7644 3014 8093 0000 		sts tempIntString+1,r24
 7645               	.LM993:
 7646 3018 80E0      		ldi r24,lo8(tempIntString)
 7647 301a 90E0      		ldi r25,hi8(tempIntString)
 7648 301c 0E94 0000 		call atoi
 7649 3020 7C01      		movw r14,r24
 7650               	.LVL471:
 7651               	.LM994:
 7652 3022 F801      		movw r30,r16
 7653 3024 8581      		ldd r24,Z+5
 7654 3026 8983      		std Y+1,r24
 7655               	.LM995:
 7656 3028 8681      		ldd r24,Z+6
 7657 302a 8A83      		std Y+2,r24
 7658               	.LM996:
 7659 302c 8781      		ldd r24,Z+7
 7660 302e 8B83      		std Y+3,r24
 7661               	.LM997:
 7662 3030 8085      		ldd r24,Z+8
 7663 3032 8C83      		std Y+4,r24
 7664               	.LM998:
 7665 3034 8185      		ldd r24,Z+9
 7666 3036 8D83      		std Y+5,r24
 7667               	.LM999:
 7668 3038 8285      		ldd r24,Z+10
 7669 303a 8E83      		std Y+6,r24
 7670               	.LM1000:
 7671 303c 8385      		ldd r24,Z+11
 7672 303e 8F83      		std Y+7,r24
 7673               	.LM1001:
 7674 3040 CE01      		movw r24,r28
 7675 3042 0196      		adiw r24,1
 7676 3044 60E0      		ldi r22,lo8(0)
 7677 3046 70E0      		ldi r23,hi8(0)
 7678 3048 42E0      		ldi r20,lo8(2)
 7679 304a 50E0      		ldi r21,hi8(2)
 7680 304c 0E94 0000 		call strtol
 7681 3050 9B01      		movw r18,r22
 7682 3052 AC01      		movw r20,r24
 7683               	.LVL472:
 7684               	.LM1002:
 7685 3054 F4E1      		ldi r31,lo8(20)
 7686 3056 EF16      		cp r14,r31
 7687 3058 F104      		cpc r15,__zero_reg__
 7688 305a 04F4      		brge .L429
 7689 305c E114      		cp r14,__zero_reg__
 7690 305e F104      		cpc r15,__zero_reg__
 7691 3060 01F4      		brne .L430
 7692 3062 F801      		movw r30,r16
 7693 3064 8481      		ldd r24,Z+4
 7694 3066 8033      		cpi r24,lo8(48)
 7695 3068 01F0      		breq .L430
 7696               	.L429:
 7697               	.LM1003:
 7698 306a 82E0      		ldi r24,lo8(2)
 7699 306c 90E0      		ldi r25,hi8(2)
 7700 306e 00C0      		rjmp .L436
 7701               	.L430:
 7702               	.LM1004:
 7703 3070 F701      		movw r30,r14
 7704 3072 EE0F      		lsl r30
 7705 3074 FF1F      		rol r31
 7706 3076 C701      		movw r24,r14
 7707 3078 63E0      		ldi r22,3
 7708 307a 880F      	1:	lsl r24
 7709 307c 991F      		rol r25
 7710 307e 6A95      		dec r22
 7711 3080 01F4      		brne 1b
 7712 3082 E80F      		add r30,r24
 7713 3084 F91F      		adc r31,r25
 7714 3086 E050      		subi r30,lo8(-(weeklyProgram))
 7715 3088 F040      		sbci r31,hi8(-(weeklyProgram))
 7716 308a 8081      		ld r24,Z
 7717 308c 8F3F      		cpi r24,lo8(-1)
 7718 308e 01F4      		brne .L432
 7719 3090 8181      		ldd r24,Z+1
 7720 3092 8F3F      		cpi r24,lo8(-1)
 7721 3094 01F4      		brne .L432
 7722               	.LM1005:
 7723 3096 8DE0      		ldi r24,lo8(13)
 7724 3098 90E0      		ldi r25,hi8(13)
 7725 309a 00C0      		rjmp .L436
 7726               	.L432:
 7727               	.LM1006:
 7728 309c DA01      		movw r26,r20
 7729 309e C901      		movw r24,r18
 7730 30a0 8F77      		andi r24,lo8(127)
 7731 30a2 9070      		andi r25,hi8(127)
 7732 30a4 A070      		andi r26,hlo8(127)
 7733 30a6 B070      		andi r27,hhi8(127)
 7734 30a8 0097      		sbiw r24,0
 7735 30aa A105      		cpc r26,__zero_reg__
 7736 30ac B105      		cpc r27,__zero_reg__
 7737 30ae 01F4      		brne .L433
 7738               	.LM1007:
 7739 30b0 8FE0      		ldi r24,lo8(15)
 7740 30b2 90E0      		ldi r25,hi8(15)
 7741               	.L436:
 7742 30b4 0E94 0000 		call fail
 7743               	.LVL473:
 7744 30b8 00C0      		rjmp .L434
 7745               	.LVL474:
 7746               	.L433:
 7747               	.LM1008:
 7748 30ba F701      		movw r30,r14
 7749 30bc 03E0      		ldi r16,3
 7750 30be EE0F      	1:	lsl r30
 7751 30c0 FF1F      		rol r31
 7752 30c2 0A95      		dec r16
 7753 30c4 01F4      		brne 1b
 7754               	.LVL475:
 7755 30c6 EE0C      		lsl r14
 7756 30c8 FF1C      		rol r15
 7757 30ca EE0D      		add r30,r14
 7758 30cc FF1D      		adc r31,r15
 7759 30ce E050      		subi r30,lo8(-(weeklyProgram))
 7760 30d0 F040      		sbci r31,hi8(-(weeklyProgram))
 7761 30d2 822F      		mov r24,r18
 7762               	.LVL476:
 7763 30d4 8F77      		andi r24,lo8(127)
 7764 30d6 8083      		st Z,r24
 7765               	.LM1009:
 7766 30d8 0E94 0000 		call ok
 7767               	.LVL477:
 7768               	.L434:
 7769               	/* epilogue start */
 7770               	.LM1010:
 7771 30dc 2896      		adiw r28,8
 7772 30de 0FB6      		in __tmp_reg__,__SREG__
 7773 30e0 F894      		cli
 7774 30e2 DEBF      		out __SP_H__,r29
 7775 30e4 0FBE      		out __SREG__,__tmp_reg__
 7776 30e6 CDBF      		out __SP_L__,r28
 7777 30e8 CF91      		pop r28
 7778 30ea DF91      		pop r29
 7779 30ec 1F91      		pop r17
 7780 30ee 0F91      		pop r16
 7781               	.LVL478:
 7782 30f0 FF90      		pop r15
 7783 30f2 EF90      		pop r14
 7784               	.LVL479:
 7785 30f4 0895      		ret
 7786               	.LFE35:
 7788               	.global	setImmediateChange
 7790               	setImmediateChange:
 7791               	.LFB28:
 7792               	.LM1011:
 7793               	.LVL480:
 7794 30f6 EF92      		push r14
 7795 30f8 FF92      		push r15
 7796 30fa 0F93      		push r16
 7797 30fc 1F93      		push r17
 7798               	/* prologue: function */
 7799               	/* frame size = 0 */
 7800 30fe 8C01      		movw r16,r24
 7801               	.LM1012:
 7802 3100 1092 0000 		sts tempLongString+3,__zero_reg__
 7803               	.LM1013:
 7804 3104 FC01      		movw r30,r24
 7805 3106 8381      		ldd r24,Z+3
 7806               	.LVL481:
 7807 3108 8093 0000 		sts tempLongString,r24
 7808               	.LM1014:
 7809 310c 8481      		ldd r24,Z+4
 7810 310e 8093 0000 		sts tempLongString+1,r24
 7811               	.LM1015:
 7812 3112 8581      		ldd r24,Z+5
 7813 3114 8093 0000 		sts tempLongString+2,r24
 7814               	.LM1016:
 7815 3118 80E0      		ldi r24,lo8(tempLongString)
 7816 311a 90E0      		ldi r25,hi8(tempLongString)
 7817 311c 0E94 0000 		call atoi
 7818 3120 E82E      		mov r14,r24
 7819 3122 8093 0000 		sts pwmChangeValues,r24
 7820               	.LM1017:
 7821 3126 F801      		movw r30,r16
 7822 3128 8781      		ldd r24,Z+7
 7823 312a 8093 0000 		sts tempLongString,r24
 7824               	.LM1018:
 7825 312e 8085      		ldd r24,Z+8
 7826 3130 8093 0000 		sts tempLongString+1,r24
 7827               	.LM1019:
 7828 3134 8185      		ldd r24,Z+9
 7829 3136 8093 0000 		sts tempLongString+2,r24
 7830               	.LM1020:
 7831 313a 80E0      		ldi r24,lo8(tempLongString)
 7832 313c 90E0      		ldi r25,hi8(tempLongString)
 7833 313e 0E94 0000 		call atoi
 7834 3142 F82E      		mov r15,r24
 7835 3144 8093 0000 		sts pwmChangeValues+1,r24
 7836               	.LM1021:
 7837 3148 F801      		movw r30,r16
 7838 314a 8385      		ldd r24,Z+11
 7839 314c 8093 0000 		sts tempLongString,r24
 7840               	.LM1022:
 7841 3150 8485      		ldd r24,Z+12
 7842 3152 8093 0000 		sts tempLongString+1,r24
 7843               	.LM1023:
 7844 3156 8585      		ldd r24,Z+13
 7845 3158 8093 0000 		sts tempLongString+2,r24
 7846               	.LM1024:
 7847 315c 80E0      		ldi r24,lo8(tempLongString)
 7848 315e 90E0      		ldi r25,hi8(tempLongString)
 7849 3160 0E94 0000 		call atoi
 7850 3164 682F      		mov r22,r24
 7851 3166 8093 0000 		sts pwmChangeValues+2,r24
 7852               	.LM1025:
 7853 316a EE20      		tst r14
 7854 316c 01F4      		brne .L438
 7855 316e FF20      		tst r15
 7856 3170 01F4      		brne .L438
 7857 3172 8823      		tst r24
 7858 3174 01F4      		brne .L438
 7859               	.LM1026:
 7860 3176 83E1      		ldi r24,lo8(19)
 7861 3178 90E0      		ldi r25,hi8(19)
 7862 317a 00C0      		rjmp .L443
 7863               	.L438:
 7864               	.LM1027:
 7865 317c 8091 0000 		lds r24,pwmIsSet
 7866 3180 8130      		cpi r24,lo8(1)
 7867 3182 01F4      		brne .L440
 7868               	.LM1028:
 7869 3184 2091 0000 		lds r18,weeklySeconds
 7870 3188 3091 0000 		lds r19,(weeklySeconds)+1
 7871 318c 4091 0000 		lds r20,(weeklySeconds)+2
 7872 3190 5091 0000 		lds r21,(weeklySeconds)+3
 7873 3194 2B5F      		subi r18,lo8(-(5))
 7874 3196 3F4F      		sbci r19,hi8(-(5))
 7875 3198 4F4F      		sbci r20,hlo8(-(5))
 7876 319a 5F4F      		sbci r21,hhi8(-(5))
 7877 319c 2093 0000 		sts immediateChange,r18
 7878 31a0 3093 0000 		sts (immediateChange)+1,r19
 7879 31a4 4093 0000 		sts (immediateChange)+2,r20
 7880 31a8 5093 0000 		sts (immediateChange)+3,r21
 7881               	.LM1029:
 7882 31ac E091 0000 		lds r30,pwmSwitchNumber
 7883 31b0 F091 0000 		lds r31,(pwmSwitchNumber)+1
 7884 31b4 EE0F      		lsl r30
 7885 31b6 FF1F      		rol r31
 7886 31b8 EE0F      		lsl r30
 7887 31ba FF1F      		rol r31
 7888 31bc E050      		subi r30,lo8(-(switchStatus))
 7889 31be F040      		sbci r31,hi8(-(switchStatus))
 7890 31c0 8081      		ld r24,Z
 7891 31c2 9181      		ldd r25,Z+1
 7892 31c4 A281      		ldd r26,Z+2
 7893 31c6 B381      		ldd r27,Z+3
 7894 31c8 8217      		cp r24,r18
 7895 31ca 9307      		cpc r25,r19
 7896 31cc A407      		cpc r26,r20
 7897 31ce B507      		cpc r27,r21
 7898 31d0 00F4      		brsh .L441
 7899               	.LM1030:
 7900 31d2 2083      		st Z,r18
 7901 31d4 3183      		std Z+1,r19
 7902 31d6 4283      		std Z+2,r20
 7903 31d8 5383      		std Z+3,r21
 7904               	.L441:
 7905               	.LM1031:
 7906 31da 8091 B400 		lds r24,180
 7907 31de 8093 0000 		sts pwmOldValues,r24
 7908               	.LM1032:
 7909 31e2 88B5      		in r24,72-32
 7910 31e4 8093 0000 		sts pwmOldValues+1,r24
 7911               	.LM1033:
 7912 31e8 87B5      		in r24,71-32
 7913 31ea 8093 0000 		sts pwmOldValues+2,r24
 7914               	.LM1034:
 7915 31ee E092 B400 		sts 180,r14
 7916               	.LM1035:
 7917 31f2 F8BC      		out 72-32,r15
 7918               	.LM1036:
 7919 31f4 67BD      		out 71-32,r22
 7920               	.LM1037:
 7921 31f6 0E94 0000 		call ok
 7922 31fa 00C0      		rjmp .L442
 7923               	.L440:
 7924               	.LM1038:
 7925 31fc 84E1      		ldi r24,lo8(20)
 7926 31fe 90E0      		ldi r25,hi8(20)
 7927               	.L443:
 7928 3200 0E94 0000 		call fail
 7929               	.L442:
 7930               	/* epilogue start */
 7931               	.LM1039:
 7932 3204 1F91      		pop r17
 7933 3206 0F91      		pop r16
 7934               	.LVL482:
 7935 3208 FF90      		pop r15
 7936 320a EF90      		pop r14
 7937 320c 0895      		ret
 7938               	.LFE28:
 7940               	.global	colorChangeSet
 7942               	colorChangeSet:
 7943               	.LFB23:
 7944               	.LM1040:
 7945               	.LVL483:
 7946 320e EF92      		push r14
 7947 3210 FF92      		push r15
 7948 3212 0F93      		push r16
 7949 3214 1F93      		push r17
 7950 3216 CF93      		push r28
 7951 3218 DF93      		push r29
 7952               	/* prologue: function */
 7953               	/* frame size = 0 */
 7954 321a EC01      		movw r28,r24
 7955               	.LM1041:
 7956 321c 0E94 0000 		call getSwitchNumber
 7957               	.LVL484:
 7958 3220 7C01      		movw r14,r24
 7959               	.LVL485:
 7960               	.LM1042:
 7961 3222 86E0      		ldi r24,lo8(6)
 7962 3224 E816      		cp r14,r24
 7963 3226 F104      		cpc r15,__zero_reg__
 7964 3228 04F0      		brlt .L445
 7965               	.LM1043:
 7966 322a 87E0      		ldi r24,lo8(7)
 7967 322c 90E0      		ldi r25,hi8(7)
 7968 322e 0E94 0000 		call fail
 7969 3232 00C0      		rjmp .L447
 7970               	.L445:
 7971               	.LM1044:
 7972 3234 1092 0000 		sts tempLongString+3,__zero_reg__
 7973               	.LM1045:
 7974 3238 8E81      		ldd r24,Y+6
 7975 323a 8093 0000 		sts tempLongString,r24
 7976               	.LM1046:
 7977 323e 8F81      		ldd r24,Y+7
 7978 3240 8093 0000 		sts tempLongString+1,r24
 7979               	.LM1047:
 7980 3244 8885      		ldd r24,Y+8
 7981 3246 8093 0000 		sts tempLongString+2,r24
 7982               	.LM1048:
 7983 324a 80E0      		ldi r24,lo8(tempLongString)
 7984 324c 90E0      		ldi r25,hi8(tempLongString)
 7985 324e 0E94 0000 		call atoi
 7986 3252 8701      		movw r16,r14
 7987 3254 000F      		lsl r16
 7988 3256 111F      		rol r17
 7989 3258 0E0D      		add r16,r14
 7990 325a 1F1D      		adc r17,r15
 7991 325c 0050      		subi r16,lo8(-(colorChanges))
 7992 325e 1040      		sbci r17,hi8(-(colorChanges))
 7993 3260 F801      		movw r30,r16
 7994 3262 8083      		st Z,r24
 7995               	.LM1049:
 7996 3264 8A85      		ldd r24,Y+10
 7997 3266 8093 0000 		sts tempLongString,r24
 7998               	.LM1050:
 7999 326a 8B85      		ldd r24,Y+11
 8000 326c 8093 0000 		sts tempLongString+1,r24
 8001               	.LM1051:
 8002 3270 8C85      		ldd r24,Y+12
 8003 3272 8093 0000 		sts tempLongString+2,r24
 8004               	.LM1052:
 8005 3276 80E0      		ldi r24,lo8(tempLongString)
 8006 3278 90E0      		ldi r25,hi8(tempLongString)
 8007 327a 0E94 0000 		call atoi
 8008 327e F801      		movw r30,r16
 8009 3280 8183      		std Z+1,r24
 8010               	.LM1053:
 8011 3282 8E85      		ldd r24,Y+14
 8012 3284 8093 0000 		sts tempLongString,r24
 8013               	.LM1054:
 8014 3288 8F85      		ldd r24,Y+15
 8015 328a 8093 0000 		sts tempLongString+1,r24
 8016               	.LM1055:
 8017 328e 8889      		ldd r24,Y+16
 8018 3290 8093 0000 		sts tempLongString+2,r24
 8019               	.LM1056:
 8020 3294 80E0      		ldi r24,lo8(tempLongString)
 8021 3296 90E0      		ldi r25,hi8(tempLongString)
 8022 3298 0E94 0000 		call atoi
 8023 329c F801      		movw r30,r16
 8024 329e 8283      		std Z+2,r24
 8025               	.LM1057:
 8026 32a0 0E94 0000 		call ok
 8027               	.L447:
 8028               	/* epilogue start */
 8029               	.LM1058:
 8030 32a4 DF91      		pop r29
 8031 32a6 CF91      		pop r28
 8032               	.LVL486:
 8033 32a8 1F91      		pop r17
 8034 32aa 0F91      		pop r16
 8035 32ac FF90      		pop r15
 8036 32ae EF90      		pop r14
 8037               	.LVL487:
 8038 32b0 0895      		ret
 8039               	.LFE23:
 8041               	.global	pwmSetup
 8043               	pwmSetup:
 8044               	.LFB18:
 8045               	.LM1059:
 8046               	.LVL488:
 8047 32b2 0F93      		push r16
 8048 32b4 1F93      		push r17
 8049 32b6 CF93      		push r28
 8050 32b8 DF93      		push r29
 8051               	/* prologue: function */
 8052               	/* frame size = 0 */
 8053 32ba 8C01      		movw r16,r24
 8054               	.LM1060:
 8055 32bc E0E0      		ldi r30,lo8(switchStuff)
 8056 32be F0E0      		ldi r31,hi8(switchStuff)
 8057               	.LVL489:
 8058               	.L452:
 8059               	.LM1061:
 8060 32c0 9081      		ld r25,Z
 8061 32c2 892F      		mov r24,r25
 8062 32c4 8654      		subi r24,lo8(-(-70))
 8063 32c6 8230      		cpi r24,lo8(2)
 8064 32c8 00F0      		brlo .L449
 8065 32ca 9A34      		cpi r25,lo8(74)
 8066 32cc 01F0      		breq .L449
 8067 32ce 9B34      		cpi r25,lo8(75)
 8068 32d0 01F0      		breq .L449
 8069 32d2 9C34      		cpi r25,lo8(76)
 8070 32d4 01F0      		breq .L449
 8071 32d6 9D34      		cpi r25,lo8(77)
 8072 32d8 01F4      		brne .L450
 8073               	.L449:
 8074               	.LM1062:
 8075 32da 86E0      		ldi r24,lo8(6)
 8076 32dc 90E0      		ldi r25,hi8(6)
 8077 32de 0E94 0000 		call fail
 8078 32e2 00C0      		rjmp .L460
 8079               	.L450:
 8080               	.LM1063:
 8081 32e4 3196      		adiw r30,1
 8082               	.LM1064:
 8083 32e6 80E0      		ldi r24,hi8(switchStuff+16)
 8084 32e8 E030      		cpi r30,lo8(switchStuff+16)
 8085 32ea F807      		cpc r31,r24
 8086 32ec 01F4      		brne .L452
 8087               	.LM1065:
 8088 32ee F801      		movw r30,r16
 8089 32f0 8581      		ldd r24,Z+5
 8090 32f2 8093 0000 		sts tempIntString,r24
 8091               	.LM1066:
 8092 32f6 8681      		ldd r24,Z+6
 8093 32f8 8093 0000 		sts tempIntString+1,r24
 8094               	.LM1067:
 8095 32fc 80E0      		ldi r24,lo8(tempIntString)
 8096 32fe 90E0      		ldi r25,hi8(tempIntString)
 8097 3300 0E94 0000 		call atoi
 8098 3304 EC01      		movw r28,r24
 8099               	.LVL490:
 8100               	.LM1068:
 8101 3306 0E94 0000 		call clearTheSwitch
 8102               	.LM1069:
 8103 330a F801      		movw r30,r16
 8104 330c 8085      		ldd r24,Z+8
 8105 330e 8834      		cpi r24,lo8(72)
 8106 3310 01F0      		breq .L453
 8107 3312 8836      		cpi r24,lo8(104)
 8108 3314 01F0      		breq .L453
 8109 3316 8133      		cpi r24,lo8(49)
 8110 3318 01F4      		brne .L454
 8111               	.L453:
 8112               	.LM1070:
 8113 331a FE01      		movw r30,r28
 8114 331c E050      		subi r30,lo8(-(switchStuff))
 8115 331e F040      		sbci r31,hi8(-(switchStuff))
 8116 3320 89EC      		ldi r24,lo8(-55)
 8117 3322 00C0      		rjmp .L462
 8118               	.L454:
 8119               	.LM1071:
 8120 3324 8334      		cpi r24,lo8(67)
 8121 3326 01F0      		breq .L456
 8122 3328 8336      		cpi r24,lo8(99)
 8123 332a 01F4      		brne .L457
 8124               	.L456:
 8125               	.LM1072:
 8126 332c FE01      		movw r30,r28
 8127 332e E050      		subi r30,lo8(-(switchStuff))
 8128 3330 F040      		sbci r31,hi8(-(switchStuff))
 8129 3332 8AEC      		ldi r24,lo8(-54)
 8130 3334 00C0      		rjmp .L462
 8131               	.L457:
 8132               	.LM1073:
 8133 3336 FE01      		movw r30,r28
 8134 3338 E050      		subi r30,lo8(-(switchStuff))
 8135 333a F040      		sbci r31,hi8(-(switchStuff))
 8136 333c 88EC      		ldi r24,lo8(-56)
 8137               	.L462:
 8138 333e 8083      		st Z,r24
 8139               	.LM1074:
 8140 3340 8AB1      		in r24,42-32
 8141 3342 8866      		ori r24,lo8(104)
 8142 3344 8AB9      		out 42-32,r24
 8143               	.LM1075:
 8144 3346 1092 B400 		sts 180,__zero_reg__
 8145               	.LM1076:
 8146 334a 18BC      		out 72-32,__zero_reg__
 8147               	.LM1077:
 8148 334c 17BC      		out 71-32,__zero_reg__
 8149               	.LM1078:
 8150 334e F801      		movw r30,r16
 8151 3350 8781      		ldd r24,Z+7
 8152 3352 8033      		cpi r24,lo8(48)
 8153 3354 01F4      		brne .L458
 8154               	.LM1079:
 8155 3356 1092 0000 		sts pwmdir,__zero_reg__
 8156               	.LM1080:
 8157 335a 81EF      		ldi r24,lo8(-15)
 8158 335c 84BD      		out 68-32,r24
 8159               	.LM1081:
 8160 335e 81E3      		ldi r24,lo8(49)
 8161 3360 00C0      		rjmp .L463
 8162               	.L458:
 8163               	.LM1082:
 8164 3362 81E0      		ldi r24,lo8(1)
 8165 3364 8093 0000 		sts pwmdir,r24
 8166               	.LM1083:
 8167 3368 81EA      		ldi r24,lo8(-95)
 8168 336a 84BD      		out 68-32,r24
 8169               	.LM1084:
 8170 336c 81E2      		ldi r24,lo8(33)
 8171               	.L463:
 8172 336e 8093 B000 		sts 176,r24
 8173               	.LM1085:
 8174 3372 83E0      		ldi r24,lo8(3)
 8175 3374 85BD      		out 69-32,r24
 8176               	.LM1086:
 8177 3376 84E0      		ldi r24,lo8(4)
 8178 3378 8093 B100 		sts 177,r24
 8179               	.LM1087:
 8180 337c 81E0      		ldi r24,lo8(1)
 8181 337e 8093 0000 		sts pwmIsSet,r24
 8182               	.LM1088:
 8183 3382 D093 0000 		sts (pwmSwitchNumber)+1,r29
 8184 3386 C093 0000 		sts pwmSwitchNumber,r28
 8185               	.LM1089:
 8186 338a 0E94 0000 		call ok
 8187               	.L460:
 8188               	/* epilogue start */
 8189               	.LM1090:
 8190 338e DF91      		pop r29
 8191 3390 CF91      		pop r28
 8192               	.LVL491:
 8193 3392 1F91      		pop r17
 8194 3394 0F91      		pop r16
 8195               	.LVL492:
 8196 3396 0895      		ret
 8197               	.LFE18:
 8199               	.global	setNewSwitch
 8201               	setNewSwitch:
 8202               	.LFB11:
 8203               	.LM1091:
 8204               	.LVL493:
 8205 3398 DF92      		push r13
 8206 339a EF92      		push r14
 8207 339c FF92      		push r15
 8208 339e 0F93      		push r16
 8209 33a0 1F93      		push r17
 8210 33a2 CF93      		push r28
 8211 33a4 DF93      		push r29
 8212               	/* prologue: function */
 8213               	/* frame size = 0 */
 8214 33a6 EC01      		movw r28,r24
 8215               	.LM1092:
 8216 33a8 80E3      		ldi r24,lo8(48)
 8217               	.LVL494:
 8218 33aa 8093 0000 		sts tempIntString,r24
 8219               	.LM1093:
 8220 33ae 8E81      		ldd r24,Y+6
 8221 33b0 8093 0000 		sts tempIntString+1,r24
 8222               	.LM1094:
 8223 33b4 80E0      		ldi r24,lo8(tempIntString)
 8224 33b6 90E0      		ldi r25,hi8(tempIntString)
 8225 33b8 0E94 0000 		call atoi
 8226 33bc 082F      		mov r16,r24
 8227               	.LM1095:
 8228 33be 8F81      		ldd r24,Y+7
 8229 33c0 8093 0000 		sts tempIntString+1,r24
 8230               	.LM1096:
 8231 33c4 80E0      		ldi r24,lo8(tempIntString)
 8232 33c6 90E0      		ldi r25,hi8(tempIntString)
 8233 33c8 0E94 0000 		call atoi
 8234 33cc D82E      		mov r13,r24
 8235               	.LM1097:
 8236 33ce 1D81      		ldd r17,Y+5
 8237               	.LVL495:
 8238               	.LM1098:
 8239 33d0 CE01      		movw r24,r28
 8240 33d2 0E94 0000 		call getSwitchNumber
 8241 33d6 7C01      		movw r14,r24
 8242               	.LVL496:
 8243               	.LM1099:
 8244 33d8 0E94 0000 		call clearTheSwitch
 8245               	.LM1100:
 8246 33dc 1234      		cpi r17,lo8(66)
 8247 33de 01F0      		breq .L465
 8248 33e0 1236      		cpi r17,lo8(98)
 8249 33e2 01F0      		breq .L465
 8250               	.LM1101:
 8251 33e4 1334      		cpi r17,lo8(67)
 8252 33e6 01F0      		breq .L466
 8253 33e8 1336      		cpi r17,lo8(99)
 8254 33ea 01F0      		breq .L466
 8255               	.LM1102:
 8256 33ec 1434      		cpi r17,lo8(68)
 8257 33ee 01F0      		breq .L467
 8258 33f0 1436      		cpi r17,lo8(100)
 8259 33f2 01F0      		breq .+2
 8260 33f4 00C0      		rjmp .L478
 8261 33f6 00C0      		rjmp .L467
 8262               	.L465:
 8263 33f8 50E1      		ldi r21,lo8(16)
 8264               	.LVL497:
 8265 33fa A5E2      		ldi r26,lo8(37)
 8266 33fc B0E0      		ldi r27,hi8(37)
 8267               	.LVL498:
 8268 33fe E4E2      		ldi r30,lo8(36)
 8269 3400 F0E0      		ldi r31,hi8(36)
 8270               	.LVL499:
 8271 3402 00C0      		rjmp .L469
 8272               	.LVL500:
 8273               	.L466:
 8274 3404 50E2      		ldi r21,lo8(32)
 8275               	.LVL501:
 8276 3406 A8E2      		ldi r26,lo8(40)
 8277 3408 B0E0      		ldi r27,hi8(40)
 8278               	.LVL502:
 8279 340a E7E2      		ldi r30,lo8(39)
 8280 340c F0E0      		ldi r31,hi8(39)
 8281               	.LVL503:
 8282 340e 00C0      		rjmp .L469
 8283               	.LVL504:
 8284               	.L467:
 8285 3410 50E3      		ldi r21,lo8(48)
 8286               	.LVL505:
 8287 3412 ABE2      		ldi r26,lo8(43)
 8288 3414 B0E0      		ldi r27,hi8(43)
 8289               	.LVL506:
 8290 3416 EAE2      		ldi r30,lo8(42)
 8291 3418 F0E0      		ldi r31,hi8(42)
 8292               	.LVL507:
 8293               	.L469:
 8294               	.LM1103:
 8295 341a 80E1      		ldi r24,lo8(16)
 8296 341c E816      		cp r14,r24
 8297 341e F104      		cpc r15,__zero_reg__
 8298 3420 04F4      		brge .L470
 8299 3422 E114      		cp r14,__zero_reg__
 8300 3424 F104      		cpc r15,__zero_reg__
 8301 3426 01F4      		brne .L471
 8302 3428 8B81      		ldd r24,Y+3
 8303 342a 8033      		cpi r24,lo8(48)
 8304 342c 01F0      		breq .L471
 8305 342e 8C81      		ldd r24,Y+4
 8306 3430 8823      		tst r24
 8307 3432 01F0      		breq .L471
 8308               	.L470:
 8309               	.LM1104:
 8310 3434 81E0      		ldi r24,lo8(1)
 8311 3436 90E0      		ldi r25,hi8(1)
 8312 3438 00C0      		rjmp .L479
 8313               	.L471:
 8314               	.LM1105:
 8315 343a 0830      		cpi r16,lo8(8)
 8316 343c 00F4      		brsh .L473
 8317 343e 0023      		tst r16
 8318 3440 01F4      		brne .L474
 8319 3442 8E81      		ldd r24,Y+6
 8320 3444 8033      		cpi r24,lo8(48)
 8321 3446 01F0      		breq .L474
 8322               	.L473:
 8323               	.LM1106:
 8324 3448 84E0      		ldi r24,lo8(4)
 8325 344a 90E0      		ldi r25,hi8(4)
 8326 344c 00C0      		rjmp .L479
 8327               	.L474:
 8328               	.LM1107:
 8329 344e 4081      		ld r20,Z
 8330 3450 202F      		mov r18,r16
 8331 3452 30E0      		ldi r19,lo8(0)
 8332 3454 81E0      		ldi r24,lo8(1)
 8333 3456 90E0      		ldi r25,hi8(1)
 8334 3458 002E      		mov r0,r16
 8335 345a 00C0      		rjmp 2f
 8336 345c 880F      	1:	lsl r24
 8337 345e 991F      		rol r25
 8338 3460 0A94      	2:	dec r0
 8339 3462 02F4      		brpl 1b
 8340 3464 982F      		mov r25,r24
 8341 3466 482B      		or r20,r24
 8342 3468 4083      		st Z,r20
 8343               	.LM1108:
 8344 346a F701      		movw r30,r14
 8345               	.LVL508:
 8346 346c E050      		subi r30,lo8(-(switchStuff))
 8347 346e F040      		sbci r31,hi8(-(switchStuff))
 8348 3470 220F      		lsl r18
 8349 3472 331F      		rol r19
 8350               	.LVL509:
 8351 3474 520F      		add r21,r18
 8352 3476 5083      		st Z,r21
 8353               	.LM1109:
 8354 3478 DD20      		tst r13
 8355 347a 01F4      		brne .L475
 8356               	.LM1110:
 8357 347c 8C91      		ld r24,X
 8358 347e 892B      		or r24,r25
 8359 3480 8C93      		st X,r24
 8360 3482 00C0      		rjmp .L476
 8361               	.L475:
 8362               	.LM1111:
 8363 3484 8C91      		ld r24,X
 8364 3486 9095      		com r25
 8365 3488 8923      		and r24,r25
 8366 348a 8C93      		st X,r24
 8367               	.LM1112:
 8368 348c 8081      		ld r24,Z
 8369 348e 8F5F      		subi r24,lo8(-(1))
 8370 3490 8083      		st Z,r24
 8371               	.L476:
 8372               	.LM1113:
 8373 3492 0E94 0000 		call ok
 8374               	.LVL510:
 8375 3496 00C0      		rjmp .L477
 8376               	.LVL511:
 8377               	.L478:
 8378               	.LM1114:
 8379 3498 82E0      		ldi r24,lo8(2)
 8380 349a 90E0      		ldi r25,hi8(2)
 8381               	.LVL512:
 8382               	.L479:
 8383 349c 0E94 0000 		call fail
 8384               	.LVL513:
 8385               	.L477:
 8386               	/* epilogue start */
 8387               	.LM1115:
 8388 34a0 DF91      		pop r29
 8389 34a2 CF91      		pop r28
 8390               	.LVL514:
 8391 34a4 1F91      		pop r17
 8392               	.LVL515:
 8393 34a6 0F91      		pop r16
 8394 34a8 FF90      		pop r15
 8395 34aa EF90      		pop r14
 8396               	.LVL516:
 8397 34ac DF90      		pop r13
 8398 34ae 0895      		ret
 8399               	.LFE11:
 8401               	.global	returnInt
 8403               	returnInt:
 8404               	.LFB69:
 8405               	.LM1116:
 8406               	.LVL517:
 8407 34b0 0F93      		push r16
 8408 34b2 1F93      		push r17
 8409 34b4 CF93      		push r28
 8410 34b6 DF93      		push r29
 8411               	/* prologue: function */
 8412               	/* frame size = 0 */
 8413 34b8 EB01      		movw r28,r22
 8414               	.LM1117:
 8415 34ba 1882      		st Y,__zero_reg__
 8416               	.LM1118:
 8417 34bc 00E0      		ldi r16,lo8(tempHugeString)
 8418 34be 10E0      		ldi r17,hi8(tempHugeString)
 8419 34c0 B801      		movw r22,r16
 8420               	.LVL518:
 8421 34c2 4AE0      		ldi r20,lo8(10)
 8422 34c4 50E0      		ldi r21,hi8(10)
 8423 34c6 0E94 0000 		call itoa
 8424               	.LVL519:
 8425               	.LM1119:
 8426 34ca F801      		movw r30,r16
 8427 34cc 0190      		ld __tmp_reg__,Z+
 8428 34ce 0020      		tst __tmp_reg__
 8429 34d0 01F4      		brne .-6
 8430 34d2 8F01      		movw r16,r30
 8431 34d4 0050      		subi r16,lo8(tempHugeString+2)
 8432 34d6 1040      		sbci r17,hi8(tempHugeString+2)
 8433 34d8 01F4      		brne .L481
 8434               	.LM1120:
 8435 34da CE01      		movw r24,r28
 8436 34dc 60E0      		ldi r22,lo8(.LC7)
 8437 34de 70E0      		ldi r23,hi8(.LC7)
 8438 34e0 0E94 0000 		call strcat
 8439               	.L481:
 8440               	.LM1121:
 8441 34e4 CE01      		movw r24,r28
 8442 34e6 60E0      		ldi r22,lo8(tempHugeString)
 8443 34e8 70E0      		ldi r23,hi8(tempHugeString)
 8444 34ea 0E94 0000 		call strcat
 8445               	/* epilogue start */
 8446               	.LM1122:
 8447 34ee DF91      		pop r29
 8448 34f0 CF91      		pop r28
 8449               	.LVL520:
 8450 34f2 1F91      		pop r17
 8451 34f4 0F91      		pop r16
 8452 34f6 0895      		ret
 8453               	.LFE69:
 8455               		.data
 8456               	.LC35:
 8457 00aa 5072 2C00 		.string	"Pr,"
 8458               	.LC36:
 8459 00ae 2F00      		.string	"/"
 8460               	.LC37:
 8461 00b0 2C53 772C 		.string	",Sw,"
 8461      00
 8462               	.LC38:
 8463 00b5 2C49 6E2C 		.string	",In,"
 8463      00
 8464               	.LC39:
 8465 00ba 2C4C 692C 		.string	",Li,"
 8465      00
 8466               	.LC40:
 8467 00bf 2C43 432C 		.string	",CC,"
 8467      00
 8468               		.text
 8469               	.global	generalInformation
 8471               	generalInformation:
 8472               	.LFB64:
 8473               	.LM1123:
 8474               	/* prologue: function */
 8475               	/* frame size = 0 */
 8476               	.LM1124:
 8477 34f8 1092 0000 		sts statusMsg,__zero_reg__
 8478               	.LM1125:
 8479 34fc 80E0      		ldi r24,lo8(statusMsg)
 8480 34fe 90E0      		ldi r25,hi8(statusMsg)
 8481 3500 60E0      		ldi r22,lo8(.LC35)
 8482 3502 70E0      		ldi r23,hi8(.LC35)
 8483 3504 0E94 0000 		call strcat
 8484 3508 E0E0      		ldi r30,lo8(weeklyProgram)
 8485 350a F0E0      		ldi r31,hi8(weeklyProgram)
 8486 350c 20E0      		ldi r18,lo8(0)
 8487 350e 30E0      		ldi r19,hi8(0)
 8488               	.LVL521:
 8489               	.L486:
 8490               	.LM1126:
 8491 3510 8081      		ld r24,Z
 8492 3512 8F3F      		cpi r24,lo8(-1)
 8493 3514 01F4      		brne .L484
 8494 3516 8181      		ldd r24,Z+1
 8495 3518 8F3F      		cpi r24,lo8(-1)
 8496 351a 01F0      		breq .L485
 8497               	.L484:
 8498               	.LM1127:
 8499 351c 2F5F      		subi r18,lo8(-(1))
 8500 351e 3F4F      		sbci r19,hi8(-(1))
 8501               	.L485:
 8502 3520 3A96      		adiw r30,10
 8503               	.LM1128:
 8504 3522 80E0      		ldi r24,hi8(weeklyProgram+200)
 8505 3524 E030      		cpi r30,lo8(weeklyProgram+200)
 8506 3526 F807      		cpc r31,r24
 8507 3528 01F4      		brne .L486
 8508               	.LM1129:
 8509 352a C901      		movw r24,r18
 8510 352c 60E0      		ldi r22,lo8(tempLongString)
 8511 352e 70E0      		ldi r23,hi8(tempLongString)
 8512 3530 0E94 0000 		call returnInt
 8513               	.LVL522:
 8514               	.LM1130:
 8515 3534 80E0      		ldi r24,lo8(statusMsg)
 8516 3536 90E0      		ldi r25,hi8(statusMsg)
 8517 3538 60E0      		ldi r22,lo8(tempLongString)
 8518 353a 70E0      		ldi r23,hi8(tempLongString)
 8519 353c 0E94 0000 		call strcat
 8520               	.LM1131:
 8521 3540 80E0      		ldi r24,lo8(statusMsg)
 8522 3542 90E0      		ldi r25,hi8(statusMsg)
 8523 3544 60E0      		ldi r22,lo8(.LC36)
 8524 3546 70E0      		ldi r23,hi8(.LC36)
 8525 3548 0E94 0000 		call strcat
 8526               	.LM1132:
 8527 354c 84E1      		ldi r24,lo8(20)
 8528 354e 90E0      		ldi r25,hi8(20)
 8529 3550 60E0      		ldi r22,lo8(tempLongString)
 8530 3552 70E0      		ldi r23,hi8(tempLongString)
 8531 3554 0E94 0000 		call returnInt
 8532               	.LM1133:
 8533 3558 80E0      		ldi r24,lo8(statusMsg)
 8534 355a 90E0      		ldi r25,hi8(statusMsg)
 8535 355c 60E0      		ldi r22,lo8(tempLongString)
 8536 355e 70E0      		ldi r23,hi8(tempLongString)
 8537 3560 0E94 0000 		call strcat
 8538               	.LM1134:
 8539 3564 80E0      		ldi r24,lo8(statusMsg)
 8540 3566 90E0      		ldi r25,hi8(statusMsg)
 8541 3568 60E0      		ldi r22,lo8(.LC37)
 8542 356a 70E0      		ldi r23,hi8(.LC37)
 8543 356c 0E94 0000 		call strcat
 8544 3570 E0E0      		ldi r30,lo8(switchStuff)
 8545 3572 F0E0      		ldi r31,hi8(switchStuff)
 8546 3574 20E0      		ldi r18,lo8(0)
 8547 3576 30E0      		ldi r19,hi8(0)
 8548               	.LVL523:
 8549               	.L488:
 8550               	.LM1135:
 8551 3578 8081      		ld r24,Z
 8552 357a 8F3F      		cpi r24,lo8(-1)
 8553 357c 01F0      		breq .L487
 8554               	.LM1136:
 8555 357e 2F5F      		subi r18,lo8(-(1))
 8556 3580 3F4F      		sbci r19,hi8(-(1))
 8557               	.L487:
 8558 3582 3196      		adiw r30,1
 8559               	.LM1137:
 8560 3584 80E0      		ldi r24,hi8(switchStuff+16)
 8561 3586 E030      		cpi r30,lo8(switchStuff+16)
 8562 3588 F807      		cpc r31,r24
 8563 358a 01F4      		brne .L488
 8564               	.LM1138:
 8565 358c C901      		movw r24,r18
 8566 358e 60E0      		ldi r22,lo8(tempLongString)
 8567 3590 70E0      		ldi r23,hi8(tempLongString)
 8568 3592 0E94 0000 		call returnInt
 8569               	.LVL524:
 8570               	.LM1139:
 8571 3596 80E0      		ldi r24,lo8(statusMsg)
 8572 3598 90E0      		ldi r25,hi8(statusMsg)
 8573 359a 60E0      		ldi r22,lo8(tempLongString)
 8574 359c 70E0      		ldi r23,hi8(tempLongString)
 8575 359e 0E94 0000 		call strcat
 8576               	.LM1140:
 8577 35a2 80E0      		ldi r24,lo8(statusMsg)
 8578 35a4 90E0      		ldi r25,hi8(statusMsg)
 8579 35a6 60E0      		ldi r22,lo8(.LC36)
 8580 35a8 70E0      		ldi r23,hi8(.LC36)
 8581 35aa 0E94 0000 		call strcat
 8582               	.LM1141:
 8583 35ae 80E1      		ldi r24,lo8(16)
 8584 35b0 90E0      		ldi r25,hi8(16)
 8585 35b2 60E0      		ldi r22,lo8(tempLongString)
 8586 35b4 70E0      		ldi r23,hi8(tempLongString)
 8587 35b6 0E94 0000 		call returnInt
 8588               	.LM1142:
 8589 35ba 80E0      		ldi r24,lo8(statusMsg)
 8590 35bc 90E0      		ldi r25,hi8(statusMsg)
 8591 35be 60E0      		ldi r22,lo8(tempLongString)
 8592 35c0 70E0      		ldi r23,hi8(tempLongString)
 8593 35c2 0E94 0000 		call strcat
 8594               	.LM1143:
 8595 35c6 80E0      		ldi r24,lo8(statusMsg)
 8596 35c8 90E0      		ldi r25,hi8(statusMsg)
 8597 35ca 0E94 0000 		call sendMessage
 8598               	.LM1144:
 8599 35ce 1092 0000 		sts statusMsg,__zero_reg__
 8600               	.LM1145:
 8601 35d2 80E0      		ldi r24,lo8(statusMsg)
 8602 35d4 90E0      		ldi r25,hi8(statusMsg)
 8603 35d6 60E0      		ldi r22,lo8(.LC38)
 8604 35d8 70E0      		ldi r23,hi8(.LC38)
 8605 35da 0E94 0000 		call strcat
 8606 35de 20E0      		ldi r18,lo8(0)
 8607 35e0 30E0      		ldi r19,hi8(0)
 8608 35e2 8091 0000 		lds r24,inputs
 8609 35e6 8F3F      		cpi r24,lo8(-1)
 8610 35e8 01F0      		breq .L489
 8611 35ea 21E0      		ldi r18,lo8(1)
 8612 35ec 30E0      		ldi r19,hi8(1)
 8613               	.L489:
 8614               	.LM1146:
 8615 35ee 8091 0000 		lds r24,inputs+8
 8616 35f2 8F3F      		cpi r24,lo8(-1)
 8617 35f4 01F0      		breq .L490
 8618               	.LM1147:
 8619 35f6 2F5F      		subi r18,lo8(-(1))
 8620 35f8 3F4F      		sbci r19,hi8(-(1))
 8621               	.LVL525:
 8622               	.L490:
 8623               	.LM1148:
 8624 35fa 8091 0000 		lds r24,inputs+16
 8625 35fe 8F3F      		cpi r24,lo8(-1)
 8626 3600 01F0      		breq .L491
 8627               	.LM1149:
 8628 3602 2F5F      		subi r18,lo8(-(1))
 8629 3604 3F4F      		sbci r19,hi8(-(1))
 8630               	.L491:
 8631               	.LM1150:
 8632 3606 8091 0000 		lds r24,inputs+24
 8633 360a 8F3F      		cpi r24,lo8(-1)
 8634 360c 01F0      		breq .L492
 8635               	.LM1151:
 8636 360e 2F5F      		subi r18,lo8(-(1))
 8637 3610 3F4F      		sbci r19,hi8(-(1))
 8638               	.L492:
 8639               	.LM1152:
 8640 3612 C901      		movw r24,r18
 8641 3614 60E0      		ldi r22,lo8(tempLongString)
 8642 3616 70E0      		ldi r23,hi8(tempLongString)
 8643 3618 0E94 0000 		call returnInt
 8644               	.LVL526:
 8645               	.LM1153:
 8646 361c 80E0      		ldi r24,lo8(statusMsg)
 8647 361e 90E0      		ldi r25,hi8(statusMsg)
 8648 3620 60E0      		ldi r22,lo8(tempLongString)
 8649 3622 70E0      		ldi r23,hi8(tempLongString)
 8650 3624 0E94 0000 		call strcat
 8651               	.LM1154:
 8652 3628 80E0      		ldi r24,lo8(statusMsg)
 8653 362a 90E0      		ldi r25,hi8(statusMsg)
 8654 362c 60E0      		ldi r22,lo8(.LC36)
 8655 362e 70E0      		ldi r23,hi8(.LC36)
 8656 3630 0E94 0000 		call strcat
 8657               	.LM1155:
 8658 3634 84E0      		ldi r24,lo8(4)
 8659 3636 90E0      		ldi r25,hi8(4)
 8660 3638 60E0      		ldi r22,lo8(tempLongString)
 8661 363a 70E0      		ldi r23,hi8(tempLongString)
 8662 363c 0E94 0000 		call returnInt
 8663               	.LM1156:
 8664 3640 80E0      		ldi r24,lo8(statusMsg)
 8665 3642 90E0      		ldi r25,hi8(statusMsg)
 8666 3644 60E0      		ldi r22,lo8(tempLongString)
 8667 3646 70E0      		ldi r23,hi8(tempLongString)
 8668 3648 0E94 0000 		call strcat
 8669               	.LM1157:
 8670 364c 80E0      		ldi r24,lo8(statusMsg)
 8671 364e 90E0      		ldi r25,hi8(statusMsg)
 8672 3650 60E0      		ldi r22,lo8(.LC39)
 8673 3652 70E0      		ldi r23,hi8(.LC39)
 8674 3654 0E94 0000 		call strcat
 8675 3658 20E0      		ldi r18,lo8(0)
 8676 365a 30E0      		ldi r19,hi8(0)
 8677 365c 8091 0000 		lds r24,inputs+2
 8678 3660 8823      		tst r24
 8679 3662 01F0      		breq .L493
 8680 3664 21E0      		ldi r18,lo8(1)
 8681 3666 30E0      		ldi r19,hi8(1)
 8682               	.L493:
 8683               	.LM1158:
 8684 3668 8091 0000 		lds r24,inputs+10
 8685 366c 8823      		tst r24
 8686 366e 01F0      		breq .L494
 8687               	.LM1159:
 8688 3670 2F5F      		subi r18,lo8(-(1))
 8689 3672 3F4F      		sbci r19,hi8(-(1))
 8690               	.LVL527:
 8691               	.L494:
 8692               	.LM1160:
 8693 3674 8091 0000 		lds r24,inputs+18
 8694 3678 8823      		tst r24
 8695 367a 01F0      		breq .L495
 8696               	.LM1161:
 8697 367c 2F5F      		subi r18,lo8(-(1))
 8698 367e 3F4F      		sbci r19,hi8(-(1))
 8699               	.L495:
 8700               	.LM1162:
 8701 3680 8091 0000 		lds r24,inputs+26
 8702 3684 8823      		tst r24
 8703 3686 01F0      		breq .L496
 8704               	.LM1163:
 8705 3688 2F5F      		subi r18,lo8(-(1))
 8706 368a 3F4F      		sbci r19,hi8(-(1))
 8707               	.L496:
 8708               	.LM1164:
 8709 368c C901      		movw r24,r18
 8710 368e 60E0      		ldi r22,lo8(tempLongString)
 8711 3690 70E0      		ldi r23,hi8(tempLongString)
 8712 3692 0E94 0000 		call returnInt
 8713               	.LVL528:
 8714               	.LM1165:
 8715 3696 80E0      		ldi r24,lo8(statusMsg)
 8716 3698 90E0      		ldi r25,hi8(statusMsg)
 8717 369a 60E0      		ldi r22,lo8(tempLongString)
 8718 369c 70E0      		ldi r23,hi8(tempLongString)
 8719 369e 0E94 0000 		call strcat
 8720               	.LM1166:
 8721 36a2 80E0      		ldi r24,lo8(statusMsg)
 8722 36a4 90E0      		ldi r25,hi8(statusMsg)
 8723 36a6 60E0      		ldi r22,lo8(.LC36)
 8724 36a8 70E0      		ldi r23,hi8(.LC36)
 8725 36aa 0E94 0000 		call strcat
 8726               	.LM1167:
 8727 36ae 84E0      		ldi r24,lo8(4)
 8728 36b0 90E0      		ldi r25,hi8(4)
 8729 36b2 60E0      		ldi r22,lo8(tempLongString)
 8730 36b4 70E0      		ldi r23,hi8(tempLongString)
 8731 36b6 0E94 0000 		call returnInt
 8732               	.LM1168:
 8733 36ba 80E0      		ldi r24,lo8(statusMsg)
 8734 36bc 90E0      		ldi r25,hi8(statusMsg)
 8735 36be 60E0      		ldi r22,lo8(tempLongString)
 8736 36c0 70E0      		ldi r23,hi8(tempLongString)
 8737 36c2 0E94 0000 		call strcat
 8738               	.LM1169:
 8739 36c6 80E0      		ldi r24,lo8(statusMsg)
 8740 36c8 90E0      		ldi r25,hi8(statusMsg)
 8741 36ca 60E0      		ldi r22,lo8(.LC40)
 8742 36cc 70E0      		ldi r23,hi8(.LC40)
 8743 36ce 0E94 0000 		call strcat
 8744 36d2 E0E0      		ldi r30,lo8(colorChanges)
 8745 36d4 F0E0      		ldi r31,hi8(colorChanges)
 8746 36d6 20E0      		ldi r18,lo8(0)
 8747 36d8 30E0      		ldi r19,hi8(0)
 8748               	.LVL529:
 8749               	.L499:
 8750               	.LM1170:
 8751 36da 8081      		ld r24,Z
 8752 36dc 8823      		tst r24
 8753 36de 01F4      		brne .L497
 8754 36e0 8181      		ldd r24,Z+1
 8755 36e2 8130      		cpi r24,lo8(1)
 8756 36e4 01F4      		brne .L497
 8757 36e6 8281      		ldd r24,Z+2
 8758 36e8 8823      		tst r24
 8759 36ea 01F0      		breq .L498
 8760               	.L497:
 8761               	.LM1171:
 8762 36ec 2F5F      		subi r18,lo8(-(1))
 8763 36ee 3F4F      		sbci r19,hi8(-(1))
 8764               	.L498:
 8765 36f0 3396      		adiw r30,3
 8766               	.LM1172:
 8767 36f2 80E0      		ldi r24,hi8(colorChanges+18)
 8768 36f4 E030      		cpi r30,lo8(colorChanges+18)
 8769 36f6 F807      		cpc r31,r24
 8770 36f8 01F4      		brne .L499
 8771               	.LM1173:
 8772 36fa C901      		movw r24,r18
 8773 36fc 60E0      		ldi r22,lo8(tempLongString)
 8774 36fe 70E0      		ldi r23,hi8(tempLongString)
 8775 3700 0E94 0000 		call returnInt
 8776               	.LVL530:
 8777               	.LM1174:
 8778 3704 80E0      		ldi r24,lo8(statusMsg)
 8779 3706 90E0      		ldi r25,hi8(statusMsg)
 8780 3708 60E0      		ldi r22,lo8(tempLongString)
 8781 370a 70E0      		ldi r23,hi8(tempLongString)
 8782 370c 0E94 0000 		call strcat
 8783               	.LM1175:
 8784 3710 80E0      		ldi r24,lo8(statusMsg)
 8785 3712 90E0      		ldi r25,hi8(statusMsg)
 8786 3714 60E0      		ldi r22,lo8(.LC36)
 8787 3716 70E0      		ldi r23,hi8(.LC36)
 8788 3718 0E94 0000 		call strcat
 8789               	.LM1176:
 8790 371c 86E0      		ldi r24,lo8(6)
 8791 371e 90E0      		ldi r25,hi8(6)
 8792 3720 60E0      		ldi r22,lo8(tempLongString)
 8793 3722 70E0      		ldi r23,hi8(tempLongString)
 8794 3724 0E94 0000 		call returnInt
 8795               	.LM1177:
 8796 3728 80E0      		ldi r24,lo8(statusMsg)
 8797 372a 90E0      		ldi r25,hi8(statusMsg)
 8798 372c 60E0      		ldi r22,lo8(tempLongString)
 8799 372e 70E0      		ldi r23,hi8(tempLongString)
 8800 3730 0E94 0000 		call strcat
 8801               	.LM1178:
 8802 3734 80E0      		ldi r24,lo8(statusMsg)
 8803 3736 90E0      		ldi r25,hi8(statusMsg)
 8804 3738 0E94 0000 		call sendMessage
 8805               	/* epilogue start */
 8806               	.LM1179:
 8807 373c 0895      		ret
 8808               	.LFE64:
 8810               		.data
 8811               	.LC41:
 8812 00c4 2054 3A78 		.string	" T:xx/xx/xxxx xx:xx:xx"
 8812      782F 7878 
 8812      2F78 7878 
 8812      7820 7878 
 8812      3A78 783A 
 8813               	.LC42:
 8814 00db 2054 3A00 		.string	" T:"
 8815               	.LC43:
 8816 00df 2000      		.string	" "
 8817               	.LC44:
 8818 00e1 3A00      		.string	":"
 8819               		.text
 8820               	.global	generalStatus
 8822               	generalStatus:
 8823               	.LFB63:
 8824               	.LM1180:
 8825               	.LVL531:
 8826 373e CF93      		push r28
 8827 3740 DF93      		push r29
 8828               	/* prologue: function */
 8829               	/* frame size = 0 */
 8830 3742 EC01      		movw r28,r24
 8831               	.LM1181:
 8832 3744 1092 0000 		sts statusMsg,__zero_reg__
 8833               	.LM1182:
 8834 3748 8A81      		ldd r24,Y+2
 8835               	.LVL532:
 8836 374a 8093 0000 		sts tempIntString,r24
 8837               	.LM1183:
 8838 374e 8B81      		ldd r24,Y+3
 8839 3750 8093 0000 		sts tempIntString+1,r24
 8840               	.LM1184:
 8841 3754 8091 0000 		lds r24,panicMyClockIsNotSet
 8842 3758 8130      		cpi r24,lo8(1)
 8843 375a 01F4      		brne .L505
 8844               	.LM1185:
 8845 375c 80E0      		ldi r24,lo8(statusMsg)
 8846 375e 90E0      		ldi r25,hi8(statusMsg)
 8847 3760 60E0      		ldi r22,lo8(.LC41)
 8848 3762 70E0      		ldi r23,hi8(.LC41)
 8849 3764 00C0      		rjmp .L509
 8850               	.L505:
 8851               	.LM1186:
 8852 3766 80E0      		ldi r24,lo8(statusMsg)
 8853 3768 90E0      		ldi r25,hi8(statusMsg)
 8854 376a 60E0      		ldi r22,lo8(.LC42)
 8855 376c 70E0      		ldi r23,hi8(.LC42)
 8856 376e 0E94 0000 		call strcat
 8857               	.LM1187:
 8858 3772 8091 0000 		lds r24,globalMonth
 8859 3776 9091 0000 		lds r25,(globalMonth)+1
 8860 377a 60E0      		ldi r22,lo8(tempLongString)
 8861 377c 70E0      		ldi r23,hi8(tempLongString)
 8862 377e 0E94 0000 		call returnInt
 8863               	.LM1188:
 8864 3782 80E0      		ldi r24,lo8(statusMsg)
 8865 3784 90E0      		ldi r25,hi8(statusMsg)
 8866 3786 60E0      		ldi r22,lo8(tempLongString)
 8867 3788 70E0      		ldi r23,hi8(tempLongString)
 8868 378a 0E94 0000 		call strcat
 8869               	.LM1189:
 8870 378e 80E0      		ldi r24,lo8(statusMsg)
 8871 3790 90E0      		ldi r25,hi8(statusMsg)
 8872 3792 60E0      		ldi r22,lo8(.LC36)
 8873 3794 70E0      		ldi r23,hi8(.LC36)
 8874 3796 0E94 0000 		call strcat
 8875               	.LM1190:
 8876 379a 8091 0000 		lds r24,globalDay
 8877 379e 9091 0000 		lds r25,(globalDay)+1
 8878 37a2 60E0      		ldi r22,lo8(tempLongString)
 8879 37a4 70E0      		ldi r23,hi8(tempLongString)
 8880 37a6 0E94 0000 		call returnInt
 8881               	.LM1191:
 8882 37aa 80E0      		ldi r24,lo8(statusMsg)
 8883 37ac 90E0      		ldi r25,hi8(statusMsg)
 8884 37ae 60E0      		ldi r22,lo8(tempLongString)
 8885 37b0 70E0      		ldi r23,hi8(tempLongString)
 8886 37b2 0E94 0000 		call strcat
 8887               	.LM1192:
 8888 37b6 80E0      		ldi r24,lo8(statusMsg)
 8889 37b8 90E0      		ldi r25,hi8(statusMsg)
 8890 37ba 60E0      		ldi r22,lo8(.LC36)
 8891 37bc 70E0      		ldi r23,hi8(.LC36)
 8892 37be 0E94 0000 		call strcat
 8893               	.LM1193:
 8894 37c2 8091 0000 		lds r24,globalYear
 8895 37c6 9091 0000 		lds r25,(globalYear)+1
 8896 37ca 60E0      		ldi r22,lo8(tempLongString)
 8897 37cc 70E0      		ldi r23,hi8(tempLongString)
 8898 37ce 0E94 0000 		call returnInt
 8899               	.LM1194:
 8900 37d2 80E0      		ldi r24,lo8(statusMsg)
 8901 37d4 90E0      		ldi r25,hi8(statusMsg)
 8902 37d6 60E0      		ldi r22,lo8(tempLongString)
 8903 37d8 70E0      		ldi r23,hi8(tempLongString)
 8904 37da 0E94 0000 		call strcat
 8905               	.LM1195:
 8906 37de 80E0      		ldi r24,lo8(statusMsg)
 8907 37e0 90E0      		ldi r25,hi8(statusMsg)
 8908 37e2 60E0      		ldi r22,lo8(.LC43)
 8909 37e4 70E0      		ldi r23,hi8(.LC43)
 8910 37e6 0E94 0000 		call strcat
 8911               	.LM1196:
 8912 37ea 8091 0000 		lds r24,globalHour
 8913 37ee 9091 0000 		lds r25,(globalHour)+1
 8914 37f2 60E0      		ldi r22,lo8(tempLongString)
 8915 37f4 70E0      		ldi r23,hi8(tempLongString)
 8916 37f6 0E94 0000 		call returnInt
 8917               	.LM1197:
 8918 37fa 80E0      		ldi r24,lo8(statusMsg)
 8919 37fc 90E0      		ldi r25,hi8(statusMsg)
 8920 37fe 60E0      		ldi r22,lo8(tempLongString)
 8921 3800 70E0      		ldi r23,hi8(tempLongString)
 8922 3802 0E94 0000 		call strcat
 8923               	.LM1198:
 8924 3806 80E0      		ldi r24,lo8(statusMsg)
 8925 3808 90E0      		ldi r25,hi8(statusMsg)
 8926 380a 60E0      		ldi r22,lo8(.LC44)
 8927 380c 70E0      		ldi r23,hi8(.LC44)
 8928 380e 0E94 0000 		call strcat
 8929               	.LM1199:
 8930 3812 8091 0000 		lds r24,globalMinute
 8931 3816 9091 0000 		lds r25,(globalMinute)+1
 8932 381a 60E0      		ldi r22,lo8(tempLongString)
 8933 381c 70E0      		ldi r23,hi8(tempLongString)
 8934 381e 0E94 0000 		call returnInt
 8935               	.LM1200:
 8936 3822 80E0      		ldi r24,lo8(statusMsg)
 8937 3824 90E0      		ldi r25,hi8(statusMsg)
 8938 3826 60E0      		ldi r22,lo8(tempLongString)
 8939 3828 70E0      		ldi r23,hi8(tempLongString)
 8940 382a 0E94 0000 		call strcat
 8941               	.LM1201:
 8942 382e 80E0      		ldi r24,lo8(statusMsg)
 8943 3830 90E0      		ldi r25,hi8(statusMsg)
 8944 3832 60E0      		ldi r22,lo8(.LC44)
 8945 3834 70E0      		ldi r23,hi8(.LC44)
 8946 3836 0E94 0000 		call strcat
 8947               	.LM1202:
 8948 383a 8091 0000 		lds r24,globalSecond
 8949 383e 9091 0000 		lds r25,(globalSecond)+1
 8950 3842 60E0      		ldi r22,lo8(tempLongString)
 8951 3844 70E0      		ldi r23,hi8(tempLongString)
 8952 3846 0E94 0000 		call returnInt
 8953               	.LM1203:
 8954 384a 80E0      		ldi r24,lo8(statusMsg)
 8955 384c 90E0      		ldi r25,hi8(statusMsg)
 8956 384e 60E0      		ldi r22,lo8(tempLongString)
 8957 3850 70E0      		ldi r23,hi8(tempLongString)
 8958               	.L509:
 8959 3852 0E94 0000 		call strcat
 8960               	.LM1204:
 8961 3856 80E0      		ldi r24,lo8(statusMsg)
 8962 3858 90E0      		ldi r25,hi8(statusMsg)
 8963 385a 0E94 0000 		call sendMessage
 8964               	.LM1205:
 8965 385e 1092 0000 		sts statusMsg,__zero_reg__
 8966               	.LM1206:
 8967 3862 8A81      		ldd r24,Y+2
 8968 3864 8137      		cpi r24,lo8(113)
 8969 3866 01F0      		breq .L508
 8970               	.LM1207:
 8971 3868 0E94 0000 		call programsProgrammed
 8972               	.LM1208:
 8973 386c 0E94 0000 		call switchesProgrammed
 8974               	.LM1209:
 8975 3870 0E94 0000 		call inputsProgrammed
 8976               	.LM1210:
 8977 3874 0E94 0000 		call switchesOn
 8978               	.L508:
 8979               	/* epilogue start */
 8980               	.LM1211:
 8981 3878 DF91      		pop r29
 8982 387a CF91      		pop r28
 8983               	.LVL533:
 8984 387c 0895      		ret
 8985               	.LFE63:
 8987               		.data
 8988               	.LC45:
 8989 00e3 5374 6172 		.string	"Start:"
 8989      743A 00
 8990               	.LC46:
 8991 00ea 5374 6F70 		.string	"Stop:"
 8991      3A00 
 8992               		.text
 8993               	.global	setTimeLimits
 8995               	setTimeLimits:
 8996               	.LFB61:
 8997               	.LM1212:
 8998               	.LVL534:
 8999 387e 2F92      		push r2
 9000 3880 3F92      		push r3
 9001 3882 4F92      		push r4
 9002 3884 5F92      		push r5
 9003 3886 6F92      		push r6
 9004 3888 7F92      		push r7
 9005 388a 8F92      		push r8
 9006 388c 9F92      		push r9
 9007 388e AF92      		push r10
 9008 3890 BF92      		push r11
 9009 3892 CF92      		push r12
 9010 3894 DF92      		push r13
 9011 3896 EF92      		push r14
 9012 3898 FF92      		push r15
 9013 389a 0F93      		push r16
 9014 389c 1F93      		push r17
 9015 389e DF93      		push r29
 9016 38a0 CF93      		push r28
 9017 38a2 CDB7      		in r28,__SP_L__
 9018 38a4 DEB7      		in r29,__SP_H__
 9019 38a6 2897      		sbiw r28,8
 9020 38a8 0FB6      		in __tmp_reg__,__SREG__
 9021 38aa F894      		cli
 9022 38ac DEBF      		out __SP_H__,r29
 9023 38ae 0FBE      		out __SREG__,__tmp_reg__
 9024 38b0 CDBF      		out __SP_L__,r28
 9025               	/* prologue: function */
 9026               	/* frame size = 8 */
 9027 38b2 6C01      		movw r12,r24
 9028               	.LM1213:
 9029 38b4 DE01      		movw r26,r28
 9030 38b6 1196      		adiw r26,1
 9031 38b8 E0E0      		ldi r30,lo8(.LC34)
 9032 38ba F0E0      		ldi r31,hi8(.LC34)
 9033 38bc 88E0      		ldi r24,lo8(8)
 9034               	.LVL535:
 9035               	.L511:
 9036 38be 0190      		ld r0,Z+
 9037 38c0 0D92      		st X+,r0
 9038 38c2 8150      		subi r24,lo8(-(-1))
 9039 38c4 01F4      		brne .L511
 9040               	.LM1214:
 9041 38c6 1092 0000 		sts statusMsg,__zero_reg__
 9042               	.LM1215:
 9043 38ca D601      		movw r26,r12
 9044 38cc 1396      		adiw r26,3
 9045 38ce 8C91      		ld r24,X
 9046 38d0 1397      		sbiw r26,3
 9047 38d2 8093 0000 		sts tempIntString,r24
 9048               	.LM1216:
 9049 38d6 1496      		adiw r26,4
 9050 38d8 8C91      		ld r24,X
 9051 38da 8093 0000 		sts tempIntString+1,r24
 9052               	.LM1217:
 9053 38de 80E0      		ldi r24,lo8(tempIntString)
 9054 38e0 90E0      		ldi r25,hi8(tempIntString)
 9055 38e2 0E94 0000 		call atoi
 9056 38e6 3C01      		movw r6,r24
 9057               	.LVL536:
 9058               	.LM1218:
 9059 38e8 8530      		cpi r24,5
 9060 38ea 9105      		cpc r25,__zero_reg__
 9061 38ec 04F0      		brlt .L512
 9062               	.LVL537:
 9063               	.LM1219:
 9064 38ee 80E1      		ldi r24,lo8(16)
 9065 38f0 90E0      		ldi r25,hi8(16)
 9066               	.LVL538:
 9067 38f2 00C0      		rjmp .L524
 9068               	.LVL539:
 9069               	.L512:
 9070               	.LM1220:
 9071 38f4 F601      		movw r30,r12
 9072 38f6 8581      		ldd r24,Z+5
 9073               	.LVL540:
 9074 38f8 8837      		cpi r24,lo8(120)
 9075 38fa 01F4      		brne .L514
 9076               	.LM1221:
 9077 38fc F301      		movw r30,r6
 9078 38fe EE0F      		lsl r30
 9079 3900 FF1F      		rol r31
 9080 3902 E60D      		add r30,r6
 9081 3904 F71D      		adc r31,r7
 9082 3906 EE0F      		lsl r30
 9083 3908 FF1F      		rol r31
 9084 390a EE0F      		lsl r30
 9085 390c FF1F      		rol r31
 9086 390e E050      		subi r30,lo8(-(timeLimits))
 9087 3910 F040      		sbci r31,hi8(-(timeLimits))
 9088 3912 1086      		std Z+8,__zero_reg__
 9089 3914 1186      		std Z+9,__zero_reg__
 9090 3916 1286      		std Z+10,__zero_reg__
 9091 3918 1386      		std Z+11,__zero_reg__
 9092 391a 00C0      		rjmp .L525
 9093               	.L514:
 9094               	.LM1222:
 9095 391c 8F33      		cpi r24,lo8(63)
 9096 391e 01F0      		breq .+2
 9097 3920 00C0      		rjmp .L515
 9098               	.LM1223:
 9099 3922 F301      		movw r30,r6
 9100 3924 EE0F      		lsl r30
 9101 3926 FF1F      		rol r31
 9102 3928 E60D      		add r30,r6
 9103 392a F71D      		adc r31,r7
 9104 392c EE0F      		lsl r30
 9105 392e FF1F      		rol r31
 9106 3930 EE0F      		lsl r30
 9107 3932 FF1F      		rol r31
 9108 3934 E050      		subi r30,lo8(-(timeLimits))
 9109 3936 F040      		sbci r31,hi8(-(timeLimits))
 9110 3938 A080      		ld r10,Z
 9111 393a B180      		ldd r11,Z+1
 9112 393c C280      		ldd r12,Z+2
 9113 393e D380      		ldd r13,Z+3
 9114               	.LVL541:
 9115               	.LM1224:
 9116 3940 80E0      		ldi r24,lo8(statusMsg)
 9117 3942 90E0      		ldi r25,hi8(statusMsg)
 9118 3944 60E0      		ldi r22,lo8(.LC45)
 9119 3946 70E0      		ldi r23,hi8(.LC45)
 9120 3948 0E94 0000 		call strcat
 9121               	.LM1225:
 9122 394c C601      		movw r24,r12
 9123 394e B501      		movw r22,r10
 9124 3950 20E1      		ldi r18,lo8(3600)
 9125 3952 3EE0      		ldi r19,hi8(3600)
 9126 3954 40E0      		ldi r20,hlo8(3600)
 9127 3956 50E0      		ldi r21,hhi8(3600)
 9128 3958 0E94 0000 		call __divmodsi4
 9129 395c 7901      		movw r14,r18
 9130 395e 8A01      		movw r16,r20
 9131               	.LM1226:
 9132 3960 C901      		movw r24,r18
 9133 3962 60E0      		ldi r22,lo8(tempLongString)
 9134 3964 70E0      		ldi r23,hi8(tempLongString)
 9135 3966 0E94 0000 		call returnInt
 9136               	.LM1227:
 9137 396a 80E0      		ldi r24,lo8(statusMsg)
 9138 396c 90E0      		ldi r25,hi8(statusMsg)
 9139 396e 60E0      		ldi r22,lo8(tempLongString)
 9140 3970 70E0      		ldi r23,hi8(tempLongString)
 9141 3972 0E94 0000 		call strcat
 9142               	.LM1228:
 9143 3976 80E0      		ldi r24,lo8(statusMsg)
 9144 3978 90E0      		ldi r25,hi8(statusMsg)
 9145 397a 60E0      		ldi r22,lo8(.LC44)
 9146 397c 70E0      		ldi r23,hi8(.LC44)
 9147 397e 0E94 0000 		call strcat
 9148               	.LM1229:
 9149 3982 80E1      		ldi r24,lo8(3600)
 9150 3984 9EE0      		ldi r25,hi8(3600)
 9151 3986 9C01      		movw r18,r24
 9152 3988 E29E      		mul r14,r18
 9153 398a C001      		movw r24,r0
 9154 398c E39E      		mul r14,r19
 9155 398e 900D      		add r25,r0
 9156 3990 F29E      		mul r15,r18
 9157 3992 900D      		add r25,r0
 9158 3994 1124      		clr r1
 9159               	.LVL542:
 9160 3996 A0E0      		ldi r26,lo8(0)
 9161 3998 B0E0      		ldi r27,hi8(0)
 9162 399a A81A      		sub r10,r24
 9163 399c B90A      		sbc r11,r25
 9164 399e CA0A      		sbc r12,r26
 9165 39a0 DB0A      		sbc r13,r27
 9166 39a2 C601      		movw r24,r12
 9167 39a4 B501      		movw r22,r10
 9168 39a6 2CE3      		ldi r18,lo8(60)
 9169 39a8 30E0      		ldi r19,hi8(60)
 9170 39aa 40E0      		ldi r20,hlo8(60)
 9171 39ac 50E0      		ldi r21,hhi8(60)
 9172 39ae 0E94 0000 		call __divmodsi4
 9173 39b2 5901      		movw r10,r18
 9174 39b4 6A01      		movw r12,r20
 9175               	.LVL543:
 9176 39b6 C901      		movw r24,r18
 9177 39b8 60E0      		ldi r22,lo8(tempLongString)
 9178 39ba 70E0      		ldi r23,hi8(tempLongString)
 9179 39bc 0E94 0000 		call returnInt
 9180               	.LM1230:
 9181 39c0 80E0      		ldi r24,lo8(statusMsg)
 9182 39c2 90E0      		ldi r25,hi8(statusMsg)
 9183 39c4 60E0      		ldi r22,lo8(tempLongString)
 9184 39c6 70E0      		ldi r23,hi8(tempLongString)
 9185 39c8 0E94 0000 		call strcat
 9186               	.LM1231:
 9187 39cc 80E0      		ldi r24,lo8(statusMsg)
 9188 39ce 90E0      		ldi r25,hi8(statusMsg)
 9189 39d0 60E0      		ldi r22,lo8(.LC46)
 9190 39d2 70E0      		ldi r23,hi8(.LC46)
 9191 39d4 0E94 0000 		call strcat
 9192               	.LM1232:
 9193 39d8 C701      		movw r24,r14
 9194               	.LVL544:
 9195 39da 60E0      		ldi r22,lo8(tempLongString)
 9196 39dc 70E0      		ldi r23,hi8(tempLongString)
 9197 39de 0E94 0000 		call returnInt
 9198               	.LM1233:
 9199 39e2 80E0      		ldi r24,lo8(statusMsg)
 9200 39e4 90E0      		ldi r25,hi8(statusMsg)
 9201 39e6 60E0      		ldi r22,lo8(tempLongString)
 9202 39e8 70E0      		ldi r23,hi8(tempLongString)
 9203 39ea 0E94 0000 		call strcat
 9204               	.LM1234:
 9205 39ee 80E0      		ldi r24,lo8(statusMsg)
 9206 39f0 90E0      		ldi r25,hi8(statusMsg)
 9207 39f2 60E0      		ldi r22,lo8(.LC44)
 9208 39f4 70E0      		ldi r23,hi8(.LC44)
 9209 39f6 0E94 0000 		call strcat
 9210               	.LM1235:
 9211 39fa C501      		movw r24,r10
 9212 39fc 60E0      		ldi r22,lo8(tempLongString)
 9213 39fe 70E0      		ldi r23,hi8(tempLongString)
 9214 3a00 0E94 0000 		call returnInt
 9215               	.LM1236:
 9216 3a04 80E0      		ldi r24,lo8(statusMsg)
 9217 3a06 90E0      		ldi r25,hi8(statusMsg)
 9218 3a08 60E0      		ldi r22,lo8(tempLongString)
 9219 3a0a 70E0      		ldi r23,hi8(tempLongString)
 9220 3a0c 0E94 0000 		call strcat
 9221               	.LM1237:
 9222 3a10 80E0      		ldi r24,lo8(statusMsg)
 9223 3a12 90E0      		ldi r25,hi8(statusMsg)
 9224 3a14 0E94 0000 		call sendMessage
 9225 3a18 00C0      		rjmp .L521
 9226               	.L515:
 9227               	.LM1238:
 9228 3a1a D601      		movw r26,r12
 9229 3a1c FE01      		movw r30,r28
 9230 3a1e 3196      		adiw r30,1
 9231               	.LM1239:
 9232 3a20 9E01      		movw r18,r28
 9233 3a22 285F      		subi r18,lo8(-(8))
 9234 3a24 3F4F      		sbci r19,hi8(-(8))
 9235               	.L516:
 9236               	.LM1240:
 9237 3a26 1D96      		adiw r26,13
 9238 3a28 8C91      		ld r24,X
 9239 3a2a 1D97      		sbiw r26,13
 9240 3a2c 8193      		st Z+,r24
 9241 3a2e 1196      		adiw r26,1
 9242               	.LM1241:
 9243 3a30 E217      		cp r30,r18
 9244 3a32 F307      		cpc r31,r19
 9245 3a34 01F4      		brne .L516
 9246               	.LM1242:
 9247 3a36 CE01      		movw r24,r28
 9248 3a38 0196      		adiw r24,1
 9249 3a3a 60E0      		ldi r22,lo8(0)
 9250 3a3c 70E0      		ldi r23,hi8(0)
 9251 3a3e 42E0      		ldi r20,lo8(2)
 9252 3a40 50E0      		ldi r21,hi8(2)
 9253 3a42 0E94 0000 		call strtol
 9254 3a46 1B01      		movw r2,r22
 9255 3a48 2C01      		movw r4,r24
 9256               	.LVL545:
 9257               	.LM1243:
 9258 3a4a D601      		movw r26,r12
 9259 3a4c 1596      		adiw r26,5
 9260 3a4e 8C91      		ld r24,X
 9261 3a50 1597      		sbiw r26,5
 9262 3a52 8093 0000 		sts tempIntString,r24
 9263               	.LM1244:
 9264 3a56 1696      		adiw r26,6
 9265 3a58 8C91      		ld r24,X
 9266 3a5a 8093 0000 		sts tempIntString+1,r24
 9267               	.LM1245:
 9268 3a5e 80E0      		ldi r24,lo8(tempIntString)
 9269 3a60 90E0      		ldi r25,hi8(tempIntString)
 9270 3a62 0E94 0000 		call atoi
 9271 3a66 8C01      		movw r16,r24
 9272               	.LM1246:
 9273 3a68 F601      		movw r30,r12
 9274 3a6a 8781      		ldd r24,Z+7
 9275 3a6c 8093 0000 		sts tempIntString,r24
 9276               	.LM1247:
 9277 3a70 8085      		ldd r24,Z+8
 9278 3a72 8093 0000 		sts tempIntString+1,r24
 9279               	.LM1248:
 9280 3a76 80E0      		ldi r24,lo8(tempIntString)
 9281 3a78 90E0      		ldi r25,hi8(tempIntString)
 9282 3a7a 0E94 0000 		call atoi
 9283 3a7e 982E      		mov r9,r24
 9284 3a80 892E      		mov r8,r25
 9285               	.LM1249:
 9286 3a82 D601      		movw r26,r12
 9287 3a84 1996      		adiw r26,9
 9288 3a86 8C91      		ld r24,X
 9289 3a88 1997      		sbiw r26,9
 9290 3a8a 8093 0000 		sts tempIntString,r24
 9291               	.LM1250:
 9292 3a8e 1A96      		adiw r26,10
 9293 3a90 8C91      		ld r24,X
 9294 3a92 8093 0000 		sts tempIntString+1,r24
 9295               	.LM1251:
 9296 3a96 80E0      		ldi r24,lo8(tempIntString)
 9297 3a98 90E0      		ldi r25,hi8(tempIntString)
 9298 3a9a 0E94 0000 		call atoi
 9299 3a9e E82E      		mov r14,r24
 9300 3aa0 B92E      		mov r11,r25
 9301               	.LM1252:
 9302 3aa2 F601      		movw r30,r12
 9303 3aa4 8385      		ldd r24,Z+11
 9304 3aa6 8093 0000 		sts tempIntString,r24
 9305               	.LM1253:
 9306 3aaa 8485      		ldd r24,Z+12
 9307 3aac 8093 0000 		sts tempIntString+1,r24
 9308               	.LM1254:
 9309 3ab0 80E0      		ldi r24,lo8(tempIntString)
 9310 3ab2 90E0      		ldi r25,hi8(tempIntString)
 9311 3ab4 0E94 0000 		call atoi
 9312               	.LM1255:
 9313 3ab8 0831      		cpi r16,24
 9314 3aba 1105      		cpc r17,__zero_reg__
 9315               	.LVL546:
 9316 3abc 00F4      		brsh .L517
 9317               	.LM1256:
 9318 3abe CE2C      		mov r12,r14
 9319               	.LVL547:
 9320 3ac0 DB2C      		mov r13,r11
 9321               	.LVL548:
 9322               	.LM1257:
 9323 3ac2 F8E1      		ldi r31,lo8(24)
 9324 3ac4 CF16      		cp r12,r31
 9325 3ac6 D104      		cpc r13,__zero_reg__
 9326 3ac8 00F0      		brlo .L518
 9327               	.LVL549:
 9328               	.L517:
 9329               	.LM1258:
 9330 3aca 89E0      		ldi r24,lo8(9)
 9331 3acc 90E0      		ldi r25,hi8(9)
 9332 3ace 00C0      		rjmp .L524
 9333               	.LVL550:
 9334               	.L518:
 9335               	.LM1259:
 9336 3ad0 A92C      		mov r10,r9
 9337               	.LVL551:
 9338 3ad2 B82C      		mov r11,r8
 9339               	.LVL552:
 9340               	.LM1260:
 9341 3ad4 2CE3      		ldi r18,lo8(60)
 9342 3ad6 A216      		cp r10,r18
 9343 3ad8 B104      		cpc r11,__zero_reg__
 9344 3ada 00F4      		brsh .L519
 9345               	.LM1261:
 9346 3adc 4C01      		movw r8,r24
 9347               	.LM1262:
 9348 3ade 8C33      		cpi r24,60
 9349 3ae0 9105      		cpc r25,__zero_reg__
 9350               	.LVL553:
 9351 3ae2 00F0      		brlo .L520
 9352               	.L519:
 9353               	.LM1263:
 9354 3ae4 8AE0      		ldi r24,lo8(10)
 9355 3ae6 90E0      		ldi r25,hi8(10)
 9356               	.LVL554:
 9357               	.L524:
 9358 3ae8 0E94 0000 		call fail
 9359 3aec 00C0      		rjmp .L521
 9360               	.LVL555:
 9361               	.L520:
 9362               	.LM1264:
 9363 3aee B801      		movw r22,r16
 9364               	.LVL556:
 9365 3af0 80E0      		ldi r24,lo8(0)
 9366 3af2 90E0      		ldi r25,hi8(0)
 9367               	.LVL557:
 9368               	.LM1265:
 9369 3af4 20E1      		ldi r18,lo8(3600)
 9370 3af6 3EE0      		ldi r19,hi8(3600)
 9371 3af8 40E0      		ldi r20,hlo8(3600)
 9372 3afa 50E0      		ldi r21,hhi8(3600)
 9373 3afc 0E94 0000 		call __mulsi3
 9374               	.LVL558:
 9375 3b00 7B01      		movw r14,r22
 9376 3b02 8C01      		movw r16,r24
 9377               	.LVL559:
 9378               	.LM1266:
 9379 3b04 B601      		movw r22,r12
 9380               	.LVL560:
 9381 3b06 80E0      		ldi r24,lo8(0)
 9382 3b08 90E0      		ldi r25,hi8(0)
 9383               	.LVL561:
 9384               	.LM1267:
 9385 3b0a 0E94 0000 		call __mulsi3
 9386               	.LVL562:
 9387               	.LM1268:
 9388 3b0e F301      		movw r30,r6
 9389 3b10 EE0F      		lsl r30
 9390 3b12 FF1F      		rol r31
 9391 3b14 E60D      		add r30,r6
 9392 3b16 F71D      		adc r31,r7
 9393 3b18 EE0F      		lsl r30
 9394 3b1a FF1F      		rol r31
 9395 3b1c EE0F      		lsl r30
 9396 3b1e FF1F      		rol r31
 9397 3b20 30E0      		ldi r19,lo8(timeLimits)
 9398 3b22 C32E      		mov r12,r19
 9399 3b24 30E0      		ldi r19,hi8(timeLimits)
 9400 3b26 D32E      		mov r13,r19
 9401               	.LVL563:
 9402 3b28 CE0E      		add r12,r30
 9403 3b2a DF1E      		adc r13,r31
 9404 3b2c 2CE3      		ldi r18,lo8(60)
 9405 3b2e 622E      		mov r6,r18
 9406 3b30 712C      		mov r7,__zero_reg__
 9407               	.LVL564:
 9408 3b32 A69C      		mul r10,r6
 9409 3b34 9001      		movw r18,r0
 9410 3b36 A79C      		mul r10,r7
 9411 3b38 300D      		add r19,r0
 9412 3b3a B69C      		mul r11,r6
 9413 3b3c 300D      		add r19,r0
 9414 3b3e 1124      		clr r1
 9415 3b40 40E0      		ldi r20,lo8(0)
 9416 3b42 50E0      		ldi r21,hi8(0)
 9417 3b44 2E0D      		add r18,r14
 9418 3b46 3F1D      		adc r19,r15
 9419 3b48 401F      		adc r20,r16
 9420 3b4a 511F      		adc r21,r17
 9421 3b4c D601      		movw r26,r12
 9422 3b4e 2D93      		st X+,r18
 9423 3b50 3D93      		st X+,r19
 9424 3b52 4D93      		st X+,r20
 9425 3b54 5C93      		st X,r21
 9426 3b56 1397      		sbiw r26,3
 9427               	.LM1269:
 9428               	.LVL565:
 9429 3b58 E050      		subi r30,lo8(-(timeLimits+4))
 9430 3b5a F040      		sbci r31,hi8(-(timeLimits+4))
 9431 3b5c 869C      		mul r8,r6
 9432 3b5e 9001      		movw r18,r0
 9433 3b60 879C      		mul r8,r7
 9434 3b62 300D      		add r19,r0
 9435 3b64 969C      		mul r9,r6
 9436 3b66 300D      		add r19,r0
 9437 3b68 1124      		clr r1
 9438               	.LVL566:
 9439 3b6a 40E0      		ldi r20,lo8(0)
 9440 3b6c 50E0      		ldi r21,hi8(0)
 9441 3b6e 260F      		add r18,r22
 9442 3b70 371F      		adc r19,r23
 9443 3b72 481F      		adc r20,r24
 9444 3b74 591F      		adc r21,r25
 9445               	.LVL567:
 9446 3b76 2083      		st Z,r18
 9447 3b78 3183      		std Z+1,r19
 9448 3b7a 4283      		std Z+2,r20
 9449 3b7c 5383      		std Z+3,r21
 9450               	.LM1270:
 9451 3b7e F601      		movw r30,r12
 9452 3b80 2086      		std Z+8,r2
 9453 3b82 3186      		std Z+9,r3
 9454 3b84 4286      		std Z+10,r4
 9455 3b86 5386      		std Z+11,r5
 9456               	.LVL568:
 9457               	.L525:
 9458               	.LM1271:
 9459 3b88 0E94 0000 		call ok
 9460               	.LVL569:
 9461               	.L521:
 9462               	/* epilogue start */
 9463               	.LM1272:
 9464 3b8c 2896      		adiw r28,8
 9465 3b8e 0FB6      		in __tmp_reg__,__SREG__
 9466 3b90 F894      		cli
 9467 3b92 DEBF      		out __SP_H__,r29
 9468 3b94 0FBE      		out __SREG__,__tmp_reg__
 9469 3b96 CDBF      		out __SP_L__,r28
 9470 3b98 CF91      		pop r28
 9471 3b9a DF91      		pop r29
 9472 3b9c 1F91      		pop r17
 9473 3b9e 0F91      		pop r16
 9474               	.LVL570:
 9475 3ba0 FF90      		pop r15
 9476 3ba2 EF90      		pop r14
 9477               	.LVL571:
 9478 3ba4 DF90      		pop r13
 9479               	.LVL572:
 9480 3ba6 CF90      		pop r12
 9481               	.LVL573:
 9482 3ba8 BF90      		pop r11
 9483               	.LVL574:
 9484 3baa AF90      		pop r10
 9485               	.LVL575:
 9486 3bac 9F90      		pop r9
 9487 3bae 8F90      		pop r8
 9488               	.LVL576:
 9489 3bb0 7F90      		pop r7
 9490 3bb2 6F90      		pop r6
 9491               	.LVL577:
 9492 3bb4 5F90      		pop r5
 9493 3bb6 4F90      		pop r4
 9494 3bb8 3F90      		pop r3
 9495 3bba 2F90      		pop r2
 9496               	.LVL578:
 9497 3bbc 0895      		ret
 9498               	.LFE61:
 9500               		.data
 9501               	.LC47:
 9502 00f0 4E65 7720 		.string	"New prog#"
 9502      7072 6F67 
 9502      2300 
 9503               		.text
 9504               	.global	newProgram
 9506               	newProgram:
 9507               	.LFB30:
 9508               	.LM1273:
 9509               	.LVL579:
 9510 3bbe CF92      		push r12
 9511 3bc0 DF92      		push r13
 9512 3bc2 EF92      		push r14
 9513 3bc4 FF92      		push r15
 9514 3bc6 0F93      		push r16
 9515 3bc8 1F93      		push r17
 9516 3bca CF93      		push r28
 9517 3bcc DF93      		push r29
 9518               	/* prologue: function */
 9519               	/* frame size = 0 */
 9520 3bce EC01      		movw r28,r24
 9521               	.LM1274:
 9522 3bd0 E0E0      		ldi r30,lo8(weeklyProgram)
 9523 3bd2 F0E0      		ldi r31,hi8(weeklyProgram)
 9524 3bd4 00E0      		ldi r16,lo8(0)
 9525 3bd6 10E0      		ldi r17,hi8(0)
 9526               	.LVL580:
 9527               	.L529:
 9528               	.LM1275:
 9529 3bd8 8081      		ld r24,Z
 9530 3bda 8F3F      		cpi r24,lo8(-1)
 9531 3bdc 01F4      		brne .L527
 9532 3bde 8181      		ldd r24,Z+1
 9533 3be0 8F3F      		cpi r24,lo8(-1)
 9534 3be2 01F0      		breq .L528
 9535               	.L527:
 9536               	.LM1276:
 9537 3be4 0F5F      		subi r16,lo8(-(1))
 9538 3be6 1F4F      		sbci r17,hi8(-(1))
 9539 3be8 3A96      		adiw r30,10
 9540 3bea 0431      		cpi r16,20
 9541 3bec 1105      		cpc r17,__zero_reg__
 9542 3bee 01F4      		brne .L529
 9543 3bf0 00C0      		rjmp .L543
 9544               	.L528:
 9545 3bf2 F801      		movw r30,r16
 9546 3bf4 EE0F      		lsl r30
 9547 3bf6 FF1F      		rol r31
 9548 3bf8 C801      		movw r24,r16
 9549 3bfa A3E0      		ldi r26,3
 9550 3bfc 880F      	1:	lsl r24
 9551 3bfe 991F      		rol r25
 9552 3c00 AA95      		dec r26
 9553 3c02 01F4      		brne 1b
 9554 3c04 E80F      		add r30,r24
 9555 3c06 F91F      		adc r31,r25
 9556 3c08 E050      		subi r30,lo8(-(weeklyProgram))
 9557 3c0a F040      		sbci r31,hi8(-(weeklyProgram))
 9558 3c0c 80E0      		ldi r24,lo8(0)
 9559 3c0e 90E0      		ldi r25,hi8(0)
 9560               	.LVL581:
 9561               	.LBB113:
 9562               	.LBB114:
 9563               	.LM1277:
 9564 3c10 2FEF      		ldi r18,lo8(-1)
 9565               	.L531:
 9566 3c12 2193      		st Z+,r18
 9567               	.LM1278:
 9568 3c14 0196      		adiw r24,1
 9569 3c16 8A30      		cpi r24,10
 9570 3c18 9105      		cpc r25,__zero_reg__
 9571 3c1a 01F4      		brne .L531
 9572               	.LBE114:
 9573               	.LBE113:
 9574               	.LM1279:
 9575 3c1c 8B81      		ldd r24,Y+3
 9576               	.LVL582:
 9577 3c1e 8093 0000 		sts tempIntString,r24
 9578               	.LM1280:
 9579 3c22 8C81      		ldd r24,Y+4
 9580 3c24 8093 0000 		sts tempIntString+1,r24
 9581               	.LM1281:
 9582 3c28 80E0      		ldi r24,lo8(tempIntString)
 9583 3c2a 90E0      		ldi r25,hi8(tempIntString)
 9584 3c2c 0E94 0000 		call atoi
 9585 3c30 6C01      		movw r12,r24
 9586               	.LVL583:
 9587               	.LM1282:
 9588 3c32 8D81      		ldd r24,Y+5
 9589 3c34 8093 0000 		sts tempIntString,r24
 9590               	.LM1283:
 9591 3c38 8E81      		ldd r24,Y+6
 9592 3c3a 8093 0000 		sts tempIntString+1,r24
 9593               	.LM1284:
 9594 3c3e 80E0      		ldi r24,lo8(tempIntString)
 9595 3c40 90E0      		ldi r25,hi8(tempIntString)
 9596 3c42 0E94 0000 		call atoi
 9597 3c46 7C01      		movw r14,r24
 9598               	.LVL584:
 9599               	.LM1285:
 9600 3c48 8F81      		ldd r24,Y+7
 9601 3c4a 8093 0000 		sts tempLongString,r24
 9602               	.LM1286:
 9603 3c4e 8885      		ldd r24,Y+8
 9604 3c50 8093 0000 		sts tempLongString+1,r24
 9605               	.LM1287:
 9606 3c54 8985      		ldd r24,Y+9
 9607 3c56 8093 0000 		sts tempLongString+2,r24
 9608               	.LM1288:
 9609 3c5a 8A85      		ldd r24,Y+10
 9610 3c5c 8093 0000 		sts tempLongString+3,r24
 9611               	.LM1289:
 9612 3c60 80E0      		ldi r24,lo8(tempLongString)
 9613 3c62 90E0      		ldi r25,hi8(tempLongString)
 9614 3c64 0E94 0000 		call atoi
 9615 3c68 9C01      		movw r18,r24
 9616               	.LVL585:
 9617               	.LM1290:
 9618 3c6a 88E1      		ldi r24,lo8(24)
 9619 3c6c C816      		cp r12,r24
 9620 3c6e D104      		cpc r13,__zero_reg__
 9621 3c70 04F4      		brge .L532
 9622 3c72 C114      		cp r12,__zero_reg__
 9623 3c74 D104      		cpc r13,__zero_reg__
 9624 3c76 01F4      		brne .L533
 9625 3c78 8C81      		ldd r24,Y+4
 9626 3c7a 8033      		cpi r24,lo8(48)
 9627 3c7c 01F0      		breq .L533
 9628               	.L532:
 9629               	.LM1291:
 9630 3c7e 89E0      		ldi r24,lo8(9)
 9631 3c80 90E0      		ldi r25,hi8(9)
 9632 3c82 00C0      		rjmp .L542
 9633               	.L533:
 9634               	.LM1292:
 9635 3c84 8CE3      		ldi r24,lo8(60)
 9636 3c86 E816      		cp r14,r24
 9637 3c88 F104      		cpc r15,__zero_reg__
 9638 3c8a 04F4      		brge .L535
 9639 3c8c E114      		cp r14,__zero_reg__
 9640 3c8e F104      		cpc r15,__zero_reg__
 9641 3c90 01F4      		brne .L536
 9642 3c92 8E81      		ldd r24,Y+6
 9643 3c94 8033      		cpi r24,lo8(48)
 9644 3c96 01F0      		breq .L536
 9645               	.L535:
 9646               	.LM1293:
 9647 3c98 8AE0      		ldi r24,lo8(10)
 9648 3c9a 90E0      		ldi r25,hi8(10)
 9649 3c9c 00C0      		rjmp .L542
 9650               	.L536:
 9651               	.LM1294:
 9652 3c9e 2115      		cp r18,__zero_reg__
 9653 3ca0 3105      		cpc r19,__zero_reg__
 9654 3ca2 01F4      		brne .L537
 9655               	.LM1295:
 9656 3ca4 8BE0      		ldi r24,lo8(11)
 9657 3ca6 90E0      		ldi r25,hi8(11)
 9658 3ca8 00C0      		rjmp .L542
 9659               	.L537:
 9660               	.LM1296:
 9661 3caa 8CE3      		ldi r24,lo8(60)
 9662 3cac 90E0      		ldi r25,hi8(60)
 9663 3cae 289F      		mul r18,r24
 9664 3cb0 A001      		movw r20,r0
 9665 3cb2 299F      		mul r18,r25
 9666 3cb4 500D      		add r21,r0
 9667 3cb6 389F      		mul r19,r24
 9668 3cb8 500D      		add r21,r0
 9669 3cba 1124      		clr r1
 9670               	.LVL586:
 9671               	.LM1297:
 9672 3cbc C89E      		mul r12,r24
 9673 3cbe 9001      		movw r18,r0
 9674 3cc0 C99E      		mul r12,r25
 9675 3cc2 300D      		add r19,r0
 9676 3cc4 D89E      		mul r13,r24
 9677 3cc6 300D      		add r19,r0
 9678 3cc8 1124      		clr r1
 9679               	.LVL587:
 9680               	.LM1298:
 9681 3cca 2E0D      		add r18,r14
 9682 3ccc 3F1D      		adc r19,r15
 9683               	.LM1299:
 9684 3cce D801      		movw r26,r16
 9685 3cd0 AA0F      		lsl r26
 9686 3cd2 BB1F      		rol r27
 9687 3cd4 C801      		movw r24,r16
 9688 3cd6 73E0      		ldi r23,3
 9689 3cd8 880F      	1:	lsl r24
 9690 3cda 991F      		rol r25
 9691 3cdc 7A95      		dec r23
 9692 3cde 01F4      		brne 1b
 9693 3ce0 A80F      		add r26,r24
 9694 3ce2 B91F      		adc r27,r25
 9695 3ce4 A050      		subi r26,lo8(-(weeklyProgram))
 9696 3ce6 B040      		sbci r27,hi8(-(weeklyProgram))
 9697 3ce8 832F      		mov r24,r19
 9698 3cea 9927      		clr r25
 9699 3cec 87FD      		sbrc r24,7
 9700 3cee 9A95      		dec r25
 9701 3cf0 1196      		adiw r26,1
 9702 3cf2 8C93      		st X,r24
 9703 3cf4 1197      		sbiw r26,1
 9704               	.LM1300:
 9705 3cf6 F801      		movw r30,r16
 9706 3cf8 EE0F      		lsl r30
 9707 3cfa FF1F      		rol r31
 9708 3cfc EE0F      		lsl r30
 9709 3cfe FF1F      		rol r31
 9710 3d00 E00F      		add r30,r16
 9711 3d02 F11F      		adc r31,r17
 9712 3d04 EE0F      		lsl r30
 9713 3d06 FF1F      		rol r31
 9714 3d08 E050      		subi r30,lo8(-(weeklyProgram+2))
 9715 3d0a F040      		sbci r31,hi8(-(weeklyProgram+2))
 9716 3d0c 2083      		st Z,r18
 9717               	.LM1301:
 9718 3d0e 852F      		mov r24,r21
 9719 3d10 9927      		clr r25
 9720 3d12 87FD      		sbrc r24,7
 9721 3d14 9A95      		dec r25
 9722 3d16 1396      		adiw r26,3
 9723 3d18 8C93      		st X,r24
 9724 3d1a 1397      		sbiw r26,3
 9725               	.LM1302:
 9726 3d1c 5070      		andi r21,hi8(255)
 9727 3d1e 1496      		adiw r26,4
 9728 3d20 4C93      		st X,r20
 9729               	.LM1303:
 9730 3d22 1092 0000 		sts statusMsg,__zero_reg__
 9731               	.LM1304:
 9732 3d26 80E0      		ldi r24,lo8(statusMsg)
 9733 3d28 90E0      		ldi r25,hi8(statusMsg)
 9734 3d2a 60E0      		ldi r22,lo8(.LC47)
 9735 3d2c 70E0      		ldi r23,hi8(.LC47)
 9736 3d2e 0E94 0000 		call strcat
 9737               	.LVL588:
 9738               	.LM1305:
 9739 3d32 C801      		movw r24,r16
 9740 3d34 60E0      		ldi r22,lo8(tempIntString)
 9741 3d36 70E0      		ldi r23,hi8(tempIntString)
 9742 3d38 0E94 0000 		call returnInt
 9743               	.LM1306:
 9744 3d3c 80E0      		ldi r24,lo8(statusMsg)
 9745 3d3e 90E0      		ldi r25,hi8(statusMsg)
 9746 3d40 60E0      		ldi r22,lo8(tempIntString)
 9747 3d42 70E0      		ldi r23,hi8(tempIntString)
 9748 3d44 0E94 0000 		call strcat
 9749               	.LM1307:
 9750 3d48 80E0      		ldi r24,lo8(statusMsg)
 9751 3d4a 90E0      		ldi r25,hi8(statusMsg)
 9752 3d4c 0E94 0000 		call sendMessage
 9753 3d50 00C0      		rjmp .L538
 9754               	.LVL589:
 9755               	.L543:
 9756               	.LM1308:
 9757 3d52 88E0      		ldi r24,lo8(8)
 9758 3d54 90E0      		ldi r25,hi8(8)
 9759               	.LVL590:
 9760               	.L542:
 9761 3d56 0E94 0000 		call fail
 9762               	.LVL591:
 9763               	.L538:
 9764               	/* epilogue start */
 9765               	.LM1309:
 9766 3d5a DF91      		pop r29
 9767 3d5c CF91      		pop r28
 9768               	.LVL592:
 9769 3d5e 1F91      		pop r17
 9770 3d60 0F91      		pop r16
 9771               	.LVL593:
 9772 3d62 FF90      		pop r15
 9773 3d64 EF90      		pop r14
 9774               	.LVL594:
 9775 3d66 DF90      		pop r13
 9776 3d68 CF90      		pop r12
 9777               	.LVL595:
 9778 3d6a 0895      		ret
 9779               	.LFE30:
 9781               		.data
 9782               	.LC48:
 9783 00fa 5661 6C20 		.string	"Val 0x"
 9783      3078 00
 9784               	.LC49:
 9785 0101 2C00      		.string	","
 9786               	.LC50:
 9787 0103 2064 6972 		.string	" dir "
 9787      2000 
 9788               	.LC51:
 9789 0109 436F 6C43 		.string	"ColCh:"
 9789      683A 00
 9790               	.LC52:
 9791 0110 2D2D 00   		.string	"--"
 9792               	.LC53:
 9793 0113 5057 4D20 		.string	"PWM "
 9793      00
 9794               	.LC54:
 9795 0118 7374 6174 		.string	"static"
 9795      6963 00
 9796               	.LC55:
 9797 011f 436F 6C43 		.string	"ColCh"
 9797      6800 
 9798               	.LC56:
 9799 0125 6875 6500 		.string	"hue"
 9800               	.LC57:
 9801 0129 6F6E 2073 		.string	"on sw# "
 9801      7723 2000 
 9802               		.text
 9803               	.global	pwmSummary
 9805               	pwmSummary:
 9806               	.LFB24:
 9807               	.LM1310:
 9808 3d6c AF92      		push r10
 9809 3d6e BF92      		push r11
 9810 3d70 CF92      		push r12
 9811 3d72 DF92      		push r13
 9812 3d74 EF92      		push r14
 9813 3d76 FF92      		push r15
 9814 3d78 0F93      		push r16
 9815 3d7a 1F93      		push r17
 9816 3d7c CF93      		push r28
 9817 3d7e DF93      		push r29
 9818               	/* prologue: function */
 9819               	/* frame size = 0 */
 9820               	.LM1311:
 9821 3d80 1092 0000 		sts statusMsg,__zero_reg__
 9822               	.LM1312:
 9823 3d84 80E0      		ldi r24,lo8(statusMsg)
 9824 3d86 90E0      		ldi r25,hi8(statusMsg)
 9825 3d88 60E0      		ldi r22,lo8(.LC48)
 9826 3d8a 70E0      		ldi r23,hi8(.LC48)
 9827 3d8c 0E94 0000 		call strcat
 9828 3d90 C0E0      		ldi r28,lo8(0)
 9829 3d92 D0E0      		ldi r29,hi8(0)
 9830               	.LVL596:
 9831 3d94 00C0      		rjmp .L545
 9832               	.L546:
 9833               	.LM1313:
 9834 3d96 80E0      		ldi r24,lo8(statusMsg)
 9835 3d98 90E0      		ldi r25,hi8(statusMsg)
 9836 3d9a 60E0      		ldi r22,lo8(.LC49)
 9837 3d9c 70E0      		ldi r23,hi8(.LC49)
 9838 3d9e 0E94 0000 		call strcat
 9839               	.L545:
 9840               	.LM1314:
 9841 3da2 FE01      		movw r30,r28
 9842 3da4 E050      		subi r30,lo8(-(pwmValues))
 9843 3da6 F040      		sbci r31,hi8(-(pwmValues))
 9844 3da8 8081      		ld r24,Z
 9845 3daa 90E0      		ldi r25,lo8(0)
 9846 3dac 60E0      		ldi r22,lo8(tempLongString)
 9847 3dae 70E0      		ldi r23,hi8(tempLongString)
 9848 3db0 0E94 0000 		call returnHexWithout
 9849               	.LM1315:
 9850 3db4 80E0      		ldi r24,lo8(statusMsg)
 9851 3db6 90E0      		ldi r25,hi8(statusMsg)
 9852 3db8 60E0      		ldi r22,lo8(tempLongString)
 9853 3dba 70E0      		ldi r23,hi8(tempLongString)
 9854 3dbc 0E94 0000 		call strcat
 9855               	.LM1316:
 9856 3dc0 2196      		adiw r28,1
 9857 3dc2 C330      		cpi r28,3
 9858 3dc4 D105      		cpc r29,__zero_reg__
 9859 3dc6 01F4      		brne .L546
 9860               	.LM1317:
 9861 3dc8 80E0      		ldi r24,lo8(statusMsg)
 9862 3dca 90E0      		ldi r25,hi8(statusMsg)
 9863 3dcc 60E0      		ldi r22,lo8(.LC50)
 9864 3dce 70E0      		ldi r23,hi8(.LC50)
 9865 3dd0 0E94 0000 		call strcat
 9866               	.LM1318:
 9867 3dd4 8091 0000 		lds r24,pwmdir
 9868 3dd8 90E0      		ldi r25,lo8(0)
 9869 3dda 60E0      		ldi r22,lo8(tempLongString)
 9870 3ddc 70E0      		ldi r23,hi8(tempLongString)
 9871 3dde 0E94 0000 		call returnInt
 9872               	.LM1319:
 9873 3de2 80E0      		ldi r24,lo8(statusMsg)
 9874 3de4 90E0      		ldi r25,hi8(statusMsg)
 9875 3de6 60E0      		ldi r22,lo8(tempLongString)
 9876 3de8 70E0      		ldi r23,hi8(tempLongString)
 9877 3dea 0E94 0000 		call strcat
 9878               	.LM1320:
 9879 3dee 80E0      		ldi r24,lo8(statusMsg)
 9880 3df0 90E0      		ldi r25,hi8(statusMsg)
 9881 3df2 0E94 0000 		call sendMessage
 9882               	.LM1321:
 9883 3df6 1092 0000 		sts statusMsg,__zero_reg__
 9884               	.LM1322:
 9885 3dfa 80E0      		ldi r24,lo8(statusMsg)
 9886 3dfc 90E0      		ldi r25,hi8(statusMsg)
 9887 3dfe 60E0      		ldi r22,lo8(.LC51)
 9888 3e00 70E0      		ldi r23,hi8(.LC51)
 9889 3e02 0E94 0000 		call strcat
 9890 3e06 80E0      		ldi r24,lo8(colorChanges)
 9891 3e08 C82E      		mov r12,r24
 9892 3e0a 80E0      		ldi r24,hi8(colorChanges)
 9893 3e0c D82E      		mov r13,r24
 9894 3e0e EE24      		clr r14
 9895 3e10 FF24      		clr r15
 9896               	.LVL597:
 9897               	.LM1323:
 9898 3e12 00E0      		ldi r16,lo8(statusMsg)
 9899 3e14 A02E      		mov r10,r16
 9900 3e16 00E0      		ldi r16,hi8(statusMsg)
 9901 3e18 B02E      		mov r11,r16
 9902 3e1a 00C0      		rjmp .L547
 9903               	.LVL598:
 9904               	.L554:
 9905               	.LM1324:
 9906 3e1c CD01      		movw r24,r26
 9907 3e1e 60E0      		ldi r22,lo8(.LC49)
 9908 3e20 70E0      		ldi r23,hi8(.LC49)
 9909 3e22 0E94 0000 		call strcat
 9910 3e26 83E0      		ldi r24,lo8(3)
 9911 3e28 90E0      		ldi r25,hi8(3)
 9912 3e2a C80E      		add r12,r24
 9913 3e2c D91E      		adc r13,r25
 9914               	.L547:
 9915               	.LM1325:
 9916 3e2e 80E0      		ldi r24,lo8(statusMsg)
 9917 3e30 90E0      		ldi r25,hi8(statusMsg)
 9918 3e32 60E0      		ldi r22,lo8(.LC32)
 9919 3e34 70E0      		ldi r23,hi8(.LC32)
 9920 3e36 0E94 0000 		call strcat
 9921               	.LM1326:
 9922 3e3a F601      		movw r30,r12
 9923 3e3c 8081      		ld r24,Z
 9924 3e3e 8823      		tst r24
 9925 3e40 01F4      		brne .L548
 9926 3e42 8181      		ldd r24,Z+1
 9927 3e44 8130      		cpi r24,lo8(1)
 9928 3e46 01F0      		breq .L549
 9929               	.L548:
 9930 3e48 E701      		movw r28,r14
 9931 3e4a CC0F      		lsl r28
 9932 3e4c DD1F      		rol r29
 9933 3e4e CE0D      		add r28,r14
 9934 3e50 DF1D      		adc r29,r15
 9935 3e52 C050      		subi r28,lo8(-(colorChanges))
 9936 3e54 D040      		sbci r29,hi8(-(colorChanges))
 9937 3e56 00E0      		ldi r16,lo8(0)
 9938 3e58 10E0      		ldi r17,hi8(0)
 9939 3e5a 00C0      		rjmp .L550
 9940               	.L549:
 9941 3e5c F601      		movw r30,r12
 9942 3e5e 8281      		ldd r24,Z+2
 9943 3e60 8823      		tst r24
 9944 3e62 01F4      		brne .L548
 9945               	.LM1327:
 9946 3e64 80E0      		ldi r24,lo8(statusMsg)
 9947 3e66 90E0      		ldi r25,hi8(statusMsg)
 9948 3e68 60E0      		ldi r22,lo8(.LC52)
 9949 3e6a 70E0      		ldi r23,hi8(.LC52)
 9950 3e6c 0E94 0000 		call strcat
 9951 3e70 00C0      		rjmp .L551
 9952               	.L552:
 9953               	.LM1328:
 9954 3e72 80E0      		ldi r24,lo8(statusMsg)
 9955 3e74 90E0      		ldi r25,hi8(statusMsg)
 9956 3e76 60E0      		ldi r22,lo8(.LC49)
 9957 3e78 70E0      		ldi r23,hi8(.LC49)
 9958 3e7a 0E94 0000 		call strcat
 9959 3e7e 2196      		adiw r28,1
 9960               	.L550:
 9961               	.LM1329:
 9962 3e80 8881      		ld r24,Y
 9963 3e82 90E0      		ldi r25,lo8(0)
 9964 3e84 60E0      		ldi r22,lo8(tempLongString)
 9965 3e86 70E0      		ldi r23,hi8(tempLongString)
 9966 3e88 0E94 0000 		call returnHexWithout
 9967               	.LM1330:
 9968 3e8c 80E0      		ldi r24,lo8(statusMsg)
 9969 3e8e 90E0      		ldi r25,hi8(statusMsg)
 9970 3e90 60E0      		ldi r22,lo8(tempLongString)
 9971 3e92 70E0      		ldi r23,hi8(tempLongString)
 9972 3e94 0E94 0000 		call strcat
 9973               	.LM1331:
 9974 3e98 0F5F      		subi r16,lo8(-(1))
 9975 3e9a 1F4F      		sbci r17,hi8(-(1))
 9976 3e9c 0330      		cpi r16,3
 9977 3e9e 1105      		cpc r17,__zero_reg__
 9978 3ea0 01F4      		brne .L552
 9979               	.L551:
 9980               	.LM1332:
 9981 3ea2 F501      		movw r30,r10
 9982 3ea4 0190      		ld __tmp_reg__,Z+
 9983 3ea6 0020      		tst __tmp_reg__
 9984 3ea8 01F4      		brne .-6
 9985 3eaa 3197      		sbiw r30,1
 9986 3eac E050      		subi r30,lo8(statusMsg)
 9987 3eae F040      		sbci r31,hi8(statusMsg)
 9988 3eb0 7597      		sbiw r30,21
 9989 3eb2 00F0      		brlo .L553
 9990               	.LM1333:
 9991 3eb4 80E0      		ldi r24,lo8(statusMsg)
 9992 3eb6 90E0      		ldi r25,hi8(statusMsg)
 9993 3eb8 0E94 0000 		call sendMessage
 9994               	.LM1334:
 9995 3ebc 1092 0000 		sts statusMsg+6,__zero_reg__
 9996               	.L553:
 9997               	.LM1335:
 9998 3ec0 0894      		sec
 9999 3ec2 E11C      		adc r14,__zero_reg__
 10000 3ec4 F11C      		adc r15,__zero_reg__
 10001 3ec6 A0E0      		ldi r26,lo8(statusMsg)
 10002 3ec8 B0E0      		ldi r27,hi8(statusMsg)
 10003 3eca F6E0      		ldi r31,lo8(6)
 10004 3ecc EF16      		cp r14,r31
 10005 3ece F104      		cpc r15,__zero_reg__
 10006 3ed0 01F0      		breq .+2
 10007 3ed2 00C0      		rjmp .L554
 10008               	.LM1336:
 10009 3ed4 FD01      		movw r30,r26
 10010 3ed6 0190      		ld __tmp_reg__,Z+
 10011 3ed8 0020      		tst __tmp_reg__
 10012 3eda 01F4      		brne .-6
 10013 3edc 3197      		sbiw r30,1
 10014 3ede EA1B      		sub r30,r26
 10015 3ee0 FB0B      		sbc r31,r27
 10016 3ee2 3797      		sbiw r30,7
 10017 3ee4 00F0      		brlo .L555
 10018               	.LM1337:
 10019 3ee6 CD01      		movw r24,r26
 10020 3ee8 0E94 0000 		call sendMessage
 10021               	.L555:
 10022               	.LM1338:
 10023 3eec 1092 0000 		sts statusMsg,__zero_reg__
 10024 3ef0 00E0      		ldi r16,lo8(switchStuff)
 10025 3ef2 10E0      		ldi r17,hi8(switchStuff)
 10026               	.LVL599:
 10027 3ef4 C0E0      		ldi r28,lo8(0)
 10028 3ef6 D0E0      		ldi r29,hi8(0)
 10029               	.LVL600:
 10030               	.L560:
 10031               	.LM1339:
 10032 3ef8 F801      		movw r30,r16
 10033 3efa 8081      		ld r24,Z
 10034 3efc 885C      		subi r24,lo8(-(56))
 10035 3efe 8531      		cpi r24,lo8(21)
 10036 3f00 00F4      		brsh .L556
 10037               	.LM1340:
 10038 3f02 80E0      		ldi r24,lo8(statusMsg)
 10039 3f04 90E0      		ldi r25,hi8(statusMsg)
 10040 3f06 60E0      		ldi r22,lo8(.LC53)
 10041 3f08 70E0      		ldi r23,hi8(.LC53)
 10042 3f0a 0E94 0000 		call strcat
 10043               	.LM1341:
 10044 3f0e F801      		movw r30,r16
 10045 3f10 8081      		ld r24,Z
 10046 3f12 883C      		cpi r24,lo8(-56)
 10047 3f14 01F4      		brne .L557
 10048               	.LM1342:
 10049 3f16 80E0      		ldi r24,lo8(statusMsg)
 10050 3f18 90E0      		ldi r25,hi8(statusMsg)
 10051 3f1a 60E0      		ldi r22,lo8(.LC54)
 10052 3f1c 70E0      		ldi r23,hi8(.LC54)
 10053 3f1e 00C0      		rjmp .L563
 10054               	.L557:
 10055               	.LM1343:
 10056 3f20 8A3C      		cpi r24,lo8(-54)
 10057 3f22 01F4      		brne .L559
 10058               	.LM1344:
 10059 3f24 80E0      		ldi r24,lo8(statusMsg)
 10060 3f26 90E0      		ldi r25,hi8(statusMsg)
 10061 3f28 60E0      		ldi r22,lo8(.LC55)
 10062 3f2a 70E0      		ldi r23,hi8(.LC55)
 10063 3f2c 00C0      		rjmp .L563
 10064               	.L559:
 10065               	.LM1345:
 10066 3f2e 80E0      		ldi r24,lo8(statusMsg)
 10067 3f30 90E0      		ldi r25,hi8(statusMsg)
 10068 3f32 60E0      		ldi r22,lo8(.LC56)
 10069 3f34 70E0      		ldi r23,hi8(.LC56)
 10070               	.L563:
 10071 3f36 0E94 0000 		call strcat
 10072               	.LM1346:
 10073 3f3a 80E0      		ldi r24,lo8(statusMsg)
 10074 3f3c 90E0      		ldi r25,hi8(statusMsg)
 10075 3f3e 60E0      		ldi r22,lo8(.LC57)
 10076 3f40 70E0      		ldi r23,hi8(.LC57)
 10077 3f42 0E94 0000 		call strcat
 10078               	.LM1347:
 10079 3f46 CE01      		movw r24,r28
 10080 3f48 60E0      		ldi r22,lo8(tempLongString)
 10081 3f4a 70E0      		ldi r23,hi8(tempLongString)
 10082 3f4c 0E94 0000 		call returnInt
 10083               	.LM1348:
 10084 3f50 80E0      		ldi r24,lo8(statusMsg)
 10085 3f52 90E0      		ldi r25,hi8(statusMsg)
 10086 3f54 60E0      		ldi r22,lo8(tempLongString)
 10087 3f56 70E0      		ldi r23,hi8(tempLongString)
 10088 3f58 0E94 0000 		call strcat
 10089               	.LM1349:
 10090 3f5c 80E0      		ldi r24,lo8(statusMsg)
 10091 3f5e 90E0      		ldi r25,hi8(statusMsg)
 10092 3f60 0E94 0000 		call sendMessage
 10093               	.LM1350:
 10094 3f64 1092 0000 		sts statusMsg,__zero_reg__
 10095               	.L556:
 10096               	.LM1351:
 10097 3f68 2196      		adiw r28,1
 10098 3f6a 0F5F      		subi r16,lo8(-(1))
 10099 3f6c 1F4F      		sbci r17,hi8(-(1))
 10100 3f6e C031      		cpi r28,16
 10101 3f70 D105      		cpc r29,__zero_reg__
 10102 3f72 01F4      		brne .L560
 10103               	/* epilogue start */
 10104               	.LM1352:
 10105 3f74 DF91      		pop r29
 10106 3f76 CF91      		pop r28
 10107               	.LVL601:
 10108 3f78 1F91      		pop r17
 10109 3f7a 0F91      		pop r16
 10110 3f7c FF90      		pop r15
 10111 3f7e EF90      		pop r14
 10112 3f80 DF90      		pop r13
 10113 3f82 CF90      		pop r12
 10114 3f84 BF90      		pop r11
 10115 3f86 AF90      		pop r10
 10116 3f88 0895      		ret
 10117               	.LFE24:
 10119               		.data
 10120               	.LC58:
 10121 0131 4375 7272 		.string	"Curr Tweak:"
 10121      2054 7765 
 10121      616B 3A00 
 10122               		.text
 10123               	.global	clockTweak
 10125               	clockTweak:
 10126               	.LFB62:
 10127               	.LM1353:
 10128               	.LVL602:
 10129               	/* prologue: function */
 10130               	/* frame size = 0 */
 10131 3f8a FC01      		movw r30,r24
 10132               	.LM1354:
 10133 3f8c 8381      		ldd r24,Z+3
 10134               	.LVL603:
 10135 3f8e 8093 0000 		sts tempLongString,r24
 10136 3f92 8481      		ldd r24,Z+4
 10137 3f94 8093 0000 		sts tempLongString+1,r24
 10138 3f98 8581      		ldd r24,Z+5
 10139 3f9a 8093 0000 		sts tempLongString+2,r24
 10140 3f9e 8681      		ldd r24,Z+6
 10141 3fa0 8093 0000 		sts tempLongString+3,r24
 10142               	.LM1355:
 10143 3fa4 80E0      		ldi r24,lo8(tempLongString)
 10144 3fa6 90E0      		ldi r25,hi8(tempLongString)
 10145 3fa8 0E94 0000 		call atoi
 10146               	.LVL604:
 10147               	.LM1356:
 10148 3fac 0097      		sbiw r24,0
 10149               	.LVL605:
 10150 3fae 01F4      		brne .L565
 10151               	.LM1357:
 10152 3fb0 8091 0000 		lds r24,tweakTimer
 10153 3fb4 9091 0000 		lds r25,(tweakTimer)+1
 10154               	.LVL606:
 10155 3fb8 60E0      		ldi r22,lo8(tempLongString)
 10156 3fba 70E0      		ldi r23,hi8(tempLongString)
 10157 3fbc 4AE0      		ldi r20,lo8(10)
 10158 3fbe 50E0      		ldi r21,hi8(10)
 10159 3fc0 0E94 0000 		call itoa
 10160               	.LM1358:
 10161 3fc4 1092 0000 		sts statusMsg,__zero_reg__
 10162               	.LM1359:
 10163 3fc8 80E0      		ldi r24,lo8(statusMsg)
 10164 3fca 90E0      		ldi r25,hi8(statusMsg)
 10165 3fcc 60E0      		ldi r22,lo8(.LC58)
 10166 3fce 70E0      		ldi r23,hi8(.LC58)
 10167 3fd0 0E94 0000 		call strcat
 10168               	.LM1360:
 10169 3fd4 80E0      		ldi r24,lo8(statusMsg)
 10170 3fd6 90E0      		ldi r25,hi8(statusMsg)
 10171 3fd8 60E0      		ldi r22,lo8(tempLongString)
 10172 3fda 70E0      		ldi r23,hi8(tempLongString)
 10173 3fdc 0E94 0000 		call strcat
 10174               	.LM1361:
 10175 3fe0 80E0      		ldi r24,lo8(statusMsg)
 10176 3fe2 90E0      		ldi r25,hi8(statusMsg)
 10177 3fe4 0E94 0000 		call sendMessage
 10178 3fe8 0895      		ret
 10179               	.LVL607:
 10180               	.L565:
 10181               	.LM1362:
 10182 3fea 9C01      		movw r18,r24
 10183 3fec 4427      		clr r20
 10184 3fee 37FD      		sbrc r19,7
 10185 3ff0 4095      		com r20
 10186 3ff2 542F      		mov r21,r20
 10187               	.LVL608:
 10188 3ff4 8091 0000 		lds r24,tweakTimer
 10189 3ff8 9091 0000 		lds r25,(tweakTimer)+1
 10190 3ffc A091 0000 		lds r26,(tweakTimer)+2
 10191 4000 B091 0000 		lds r27,(tweakTimer)+3
 10192 4004 820F      		add r24,r18
 10193 4006 931F      		adc r25,r19
 10194 4008 A41F      		adc r26,r20
 10195 400a B51F      		adc r27,r21
 10196 400c 8093 0000 		sts tweakTimer,r24
 10197 4010 9093 0000 		sts (tweakTimer)+1,r25
 10198 4014 A093 0000 		sts (tweakTimer)+2,r26
 10199 4018 B093 0000 		sts (tweakTimer)+3,r27
 10200               	.LM1363:
 10201 401c 0E94 0000 		call ok
 10202               	.LVL609:
 10203 4020 0895      		ret
 10204               	.LFE62:
 10206               	.global	clockString
 10208               	clockString:
 10209               	.LFB51:
 10210               	.LM1364:
 10211 4022 AF92      		push r10
 10212 4024 BF92      		push r11
 10213 4026 CF92      		push r12
 10214 4028 DF92      		push r13
 10215 402a EF92      		push r14
 10216 402c FF92      		push r15
 10217 402e 0F93      		push r16
 10218 4030 1F93      		push r17
 10219               	/* prologue: function */
 10220               	/* frame size = 0 */
 10221               	.LM1365:
 10222 4032 40E0      		ldi r20,lo8(statusMsg)
 10223 4034 E42E      		mov r14,r20
 10224 4036 40E0      		ldi r20,hi8(statusMsg)
 10225 4038 F42E      		mov r15,r20
 10226 403a 1092 0000 		sts statusMsg,__zero_reg__
 10227               	.LM1366:
 10228 403e 30E0      		ldi r19,lo8(.LC43)
 10229 4040 A32E      		mov r10,r19
 10230 4042 30E0      		ldi r19,hi8(.LC43)
 10231 4044 B32E      		mov r11,r19
 10232 4046 C701      		movw r24,r14
 10233 4048 B501      		movw r22,r10
 10234 404a 0E94 0000 		call strcat
 10235               	.LM1367:
 10236 404e 00E0      		ldi r16,lo8(tempIntString)
 10237 4050 10E0      		ldi r17,hi8(tempIntString)
 10238 4052 8091 0000 		lds r24,globalMonth
 10239 4056 9091 0000 		lds r25,(globalMonth)+1
 10240 405a B801      		movw r22,r16
 10241 405c 0E94 0000 		call returnInt
 10242               	.LM1368:
 10243 4060 C701      		movw r24,r14
 10244 4062 B801      		movw r22,r16
 10245 4064 0E94 0000 		call strcat
 10246               	.LM1369:
 10247 4068 20E0      		ldi r18,lo8(.LC36)
 10248 406a C22E      		mov r12,r18
 10249 406c 20E0      		ldi r18,hi8(.LC36)
 10250 406e D22E      		mov r13,r18
 10251 4070 C701      		movw r24,r14
 10252 4072 B601      		movw r22,r12
 10253 4074 0E94 0000 		call strcat
 10254               	.LM1370:
 10255 4078 8091 0000 		lds r24,globalDay
 10256 407c 9091 0000 		lds r25,(globalDay)+1
 10257 4080 B801      		movw r22,r16
 10258 4082 0E94 0000 		call returnInt
 10259               	.LM1371:
 10260 4086 C701      		movw r24,r14
 10261 4088 B801      		movw r22,r16
 10262 408a 0E94 0000 		call strcat
 10263               	.LM1372:
 10264 408e C701      		movw r24,r14
 10265 4090 B601      		movw r22,r12
 10266 4092 0E94 0000 		call strcat
 10267               	.LM1373:
 10268 4096 8091 0000 		lds r24,globalYear
 10269 409a 9091 0000 		lds r25,(globalYear)+1
 10270 409e B801      		movw r22,r16
 10271 40a0 4AE0      		ldi r20,lo8(10)
 10272 40a2 50E0      		ldi r21,hi8(10)
 10273 40a4 0E94 0000 		call itoa
 10274               	.LM1374:
 10275 40a8 C701      		movw r24,r14
 10276 40aa B801      		movw r22,r16
 10277 40ac 0E94 0000 		call strcat
 10278               	.LM1375:
 10279 40b0 C701      		movw r24,r14
 10280 40b2 B501      		movw r22,r10
 10281 40b4 0E94 0000 		call strcat
 10282               	.LM1376:
 10283 40b8 8091 0000 		lds r24,globalHour
 10284 40bc 9091 0000 		lds r25,(globalHour)+1
 10285 40c0 B801      		movw r22,r16
 10286 40c2 0E94 0000 		call returnInt
 10287               	.LM1377:
 10288 40c6 C701      		movw r24,r14
 10289 40c8 B801      		movw r22,r16
 10290 40ca 0E94 0000 		call strcat
 10291               	.LM1378:
 10292 40ce 90E0      		ldi r25,lo8(.LC44)
 10293 40d0 C92E      		mov r12,r25
 10294 40d2 90E0      		ldi r25,hi8(.LC44)
 10295 40d4 D92E      		mov r13,r25
 10296 40d6 C701      		movw r24,r14
 10297 40d8 B601      		movw r22,r12
 10298 40da 0E94 0000 		call strcat
 10299               	.LM1379:
 10300 40de 8091 0000 		lds r24,globalMinute
 10301 40e2 9091 0000 		lds r25,(globalMinute)+1
 10302 40e6 B801      		movw r22,r16
 10303 40e8 0E94 0000 		call returnInt
 10304               	.LM1380:
 10305 40ec C701      		movw r24,r14
 10306 40ee B801      		movw r22,r16
 10307 40f0 0E94 0000 		call strcat
 10308               	.LM1381:
 10309 40f4 C701      		movw r24,r14
 10310 40f6 B601      		movw r22,r12
 10311 40f8 0E94 0000 		call strcat
 10312               	.LM1382:
 10313 40fc 8091 0000 		lds r24,globalSecond
 10314 4100 9091 0000 		lds r25,(globalSecond)+1
 10315 4104 B801      		movw r22,r16
 10316 4106 0E94 0000 		call returnInt
 10317               	.LM1383:
 10318 410a C701      		movw r24,r14
 10319 410c B801      		movw r22,r16
 10320 410e 0E94 0000 		call strcat
 10321               	/* epilogue start */
 10322               	.LM1384:
 10323 4112 1F91      		pop r17
 10324 4114 0F91      		pop r16
 10325 4116 FF90      		pop r15
 10326 4118 EF90      		pop r14
 10327 411a DF90      		pop r13
 10328 411c CF90      		pop r12
 10329 411e BF90      		pop r11
 10330 4120 AF90      		pop r10
 10331 4122 0895      		ret
 10332               	.LFE51:
 10334               	.global	setClock
 10336               	setClock:
 10337               	.LFB50:
 10338               	.LM1385:
 10339               	.LVL610:
 10340 4124 2F92      		push r2
 10341 4126 3F92      		push r3
 10342 4128 4F92      		push r4
 10343 412a 5F92      		push r5
 10344 412c 6F92      		push r6
 10345 412e 7F92      		push r7
 10346 4130 8F92      		push r8
 10347 4132 9F92      		push r9
 10348 4134 AF92      		push r10
 10349 4136 BF92      		push r11
 10350 4138 CF92      		push r12
 10351 413a DF92      		push r13
 10352 413c EF92      		push r14
 10353 413e FF92      		push r15
 10354 4140 0F93      		push r16
 10355 4142 1F93      		push r17
 10356 4144 CF93      		push r28
 10357 4146 DF93      		push r29
 10358               	/* prologue: function */
 10359               	/* frame size = 0 */
 10360 4148 8C01      		movw r16,r24
 10361               	.LM1386:
 10362 414a 80E3      		ldi r24,lo8(48)
 10363               	.LVL611:
 10364 414c 8093 0000 		sts tempLongString,r24
 10365               	.LM1387:
 10366 4150 8093 0000 		sts tempLongString+1,r24
 10367               	.LM1388:
 10368 4154 F801      		movw r30,r16
 10369 4156 8381      		ldd r24,Z+3
 10370 4158 8093 0000 		sts tempLongString+2,r24
 10371               	.LM1389:
 10372 415c 8481      		ldd r24,Z+4
 10373 415e 8093 0000 		sts tempLongString+3,r24
 10374               	.LM1390:
 10375 4162 80E0      		ldi r24,lo8(tempLongString)
 10376 4164 90E0      		ldi r25,hi8(tempLongString)
 10377 4166 0E94 0000 		call atoi
 10378 416a EC01      		movw r28,r24
 10379 416c 9093 0000 		sts (globalMonth)+1,r25
 10380 4170 8093 0000 		sts globalMonth,r24
 10381               	.LM1391:
 10382 4174 F801      		movw r30,r16
 10383 4176 8581      		ldd r24,Z+5
 10384 4178 8093 0000 		sts tempLongString+2,r24
 10385               	.LM1392:
 10386 417c 8681      		ldd r24,Z+6
 10387 417e 8093 0000 		sts tempLongString+3,r24
 10388               	.LM1393:
 10389 4182 80E0      		ldi r24,lo8(tempLongString)
 10390 4184 90E0      		ldi r25,hi8(tempLongString)
 10391 4186 0E94 0000 		call atoi
 10392 418a 7C01      		movw r14,r24
 10393 418c 9093 0000 		sts (globalDay)+1,r25
 10394 4190 8093 0000 		sts globalDay,r24
 10395               	.LM1394:
 10396 4194 F801      		movw r30,r16
 10397 4196 8385      		ldd r24,Z+11
 10398 4198 8093 0000 		sts tempLongString+2,r24
 10399               	.LM1395:
 10400 419c 8485      		ldd r24,Z+12
 10401 419e 8093 0000 		sts tempLongString+3,r24
 10402               	.LM1396:
 10403 41a2 80E0      		ldi r24,lo8(tempLongString)
 10404 41a4 90E0      		ldi r25,hi8(tempLongString)
 10405 41a6 0E94 0000 		call atoi
 10406 41aa 1C01      		movw r2,r24
 10407 41ac 9093 0000 		sts (globalHour)+1,r25
 10408 41b0 8093 0000 		sts globalHour,r24
 10409               	.LM1397:
 10410 41b4 F801      		movw r30,r16
 10411 41b6 8585      		ldd r24,Z+13
 10412 41b8 8093 0000 		sts tempLongString+2,r24
 10413               	.LM1398:
 10414 41bc 8685      		ldd r24,Z+14
 10415 41be 8093 0000 		sts tempLongString+3,r24
 10416               	.LM1399:
 10417 41c2 80E0      		ldi r24,lo8(tempLongString)
 10418 41c4 90E0      		ldi r25,hi8(tempLongString)
 10419 41c6 0E94 0000 		call atoi
 10420 41ca 3C01      		movw r6,r24
 10421 41cc 9093 0000 		sts (globalMinute)+1,r25
 10422 41d0 8093 0000 		sts globalMinute,r24
 10423               	.LM1400:
 10424 41d4 F801      		movw r30,r16
 10425 41d6 8785      		ldd r24,Z+15
 10426 41d8 8093 0000 		sts tempLongString+2,r24
 10427               	.LM1401:
 10428 41dc 8089      		ldd r24,Z+16
 10429 41de 8093 0000 		sts tempLongString+3,r24
 10430               	.LM1402:
 10431 41e2 80E0      		ldi r24,lo8(tempLongString)
 10432 41e4 90E0      		ldi r25,hi8(tempLongString)
 10433 41e6 0E94 0000 		call atoi
 10434 41ea 5C01      		movw r10,r24
 10435 41ec 9093 0000 		sts (globalSecond)+1,r25
 10436 41f0 8093 0000 		sts globalSecond,r24
 10437               	.LM1403:
 10438 41f4 F801      		movw r30,r16
 10439 41f6 8781      		ldd r24,Z+7
 10440 41f8 8093 0000 		sts tempLongString,r24
 10441               	.LM1404:
 10442 41fc 8085      		ldd r24,Z+8
 10443 41fe 8093 0000 		sts tempLongString+1,r24
 10444               	.LM1405:
 10445 4202 8185      		ldd r24,Z+9
 10446 4204 8093 0000 		sts tempLongString+2,r24
 10447               	.LM1406:
 10448 4208 8285      		ldd r24,Z+10
 10449 420a 8093 0000 		sts tempLongString+3,r24
 10450               	.LM1407:
 10451 420e 80E0      		ldi r24,lo8(tempLongString)
 10452 4210 90E0      		ldi r25,hi8(tempLongString)
 10453 4212 0E94 0000 		call atoi
 10454 4216 9093 0000 		sts (globalYear)+1,r25
 10455 421a 8093 0000 		sts globalYear,r24
 10456               	.LM1408:
 10457 421e BE01      		movw r22,r28
 10458 4220 A701      		movw r20,r14
 10459 4222 0E94 0000 		call getWeekday
 10460 4226 9C01      		movw r18,r24
 10461 4228 9093 0000 		sts (dow)+1,r25
 10462 422c 8093 0000 		sts dow,r24
 10463               	.LM1409:
 10464 4230 40E0      		ldi r20,lo8(0)
 10465 4232 50E0      		ldi r21,hi8(0)
 10466               	.LVL612:
 10467               	.LM1410:
 10468 4234 4424      		clr r4
 10469 4236 5524      		clr r5
 10470               	.LVL613:
 10471               	.LM1411:
 10472 4238 8824      		clr r8
 10473 423a 9924      		clr r9
 10474               	.LVL614:
 10475               	.LM1412:
 10476 423c CA01      		movw r24,r20
 10477 423e B901      		movw r22,r18
 10478               	.LVL615:
 10479 4240 20E8      		ldi r18,lo8(86400)
 10480 4242 31E5      		ldi r19,hi8(86400)
 10481 4244 41E0      		ldi r20,hlo8(86400)
 10482 4246 50E0      		ldi r21,hhi8(86400)
 10483               	.LVL616:
 10484 4248 0E94 0000 		call __mulsi3
 10485 424c 7B01      		movw r14,r22
 10486 424e 8C01      		movw r16,r24
 10487 4250 C201      		movw r24,r4
 10488 4252 B101      		movw r22,r2
 10489               	.LVL617:
 10490 4254 20E1      		ldi r18,lo8(3600)
 10491 4256 3EE0      		ldi r19,hi8(3600)
 10492 4258 40E0      		ldi r20,hlo8(3600)
 10493 425a 50E0      		ldi r21,hhi8(3600)
 10494 425c 0E94 0000 		call __mulsi3
 10495 4260 E60E      		add r14,r22
 10496 4262 F71E      		adc r15,r23
 10497 4264 081F      		adc r16,r24
 10498 4266 191F      		adc r17,r25
 10499               	.LM1413:
 10500 4268 CC24      		clr r12
 10501 426a DD24      		clr r13
 10502 426c EA0C      		add r14,r10
 10503 426e FB1C      		adc r15,r11
 10504 4270 0C1D      		adc r16,r12
 10505 4272 1D1D      		adc r17,r13
 10506 4274 C401      		movw r24,r8
 10507 4276 B301      		movw r22,r6
 10508 4278 2CE3      		ldi r18,lo8(60)
 10509 427a 30E0      		ldi r19,hi8(60)
 10510 427c 40E0      		ldi r20,hlo8(60)
 10511 427e 50E0      		ldi r21,hhi8(60)
 10512 4280 0E94 0000 		call __mulsi3
 10513 4284 E60E      		add r14,r22
 10514 4286 F71E      		adc r15,r23
 10515 4288 081F      		adc r16,r24
 10516 428a 191F      		adc r17,r25
 10517 428c E092 0000 		sts weeklySeconds,r14
 10518 4290 F092 0000 		sts (weeklySeconds)+1,r15
 10519 4294 0093 0000 		sts (weeklySeconds)+2,r16
 10520 4298 1093 0000 		sts (weeklySeconds)+3,r17
 10521               	.LM1414:
 10522 429c 0E94 0000 		call clockString
 10523               	.LM1415:
 10524 42a0 80E0      		ldi r24,lo8(statusMsg)
 10525 42a2 90E0      		ldi r25,hi8(statusMsg)
 10526 42a4 0E94 0000 		call sendMessage
 10527               	.LBB115:
 10528               	.LBB116:
 10529               	.LM1416:
 10530 42a8 8091 8100 		lds r24,129
 10531 42ac 8A7F      		andi r24,lo8(-6)
 10532 42ae 8093 8100 		sts 129,r24
 10533               	.LBE116:
 10534               	.LBE115:
 10535               	.LBB117:
 10536               	.LBB118:
 10537               	.LM1417:
 10538 42b2 8FEF      		ldi r24,lo8(-1)
 10539 42b4 9FEF      		ldi r25,hi8(-1)
 10540 42b6 9093 8500 		sts (132)+1,r25
 10541 42ba 8093 8400 		sts 132,r24
 10542               	.LM1418:
 10543 42be 8091 8100 		lds r24,129
 10544 42c2 8560      		ori r24,lo8(5)
 10545 42c4 8093 8100 		sts 129,r24
 10546               	.LBE118:
 10547               	.LBE117:
 10548               	.LM1419:
 10549 42c8 1092 0000 		sts panicMyClockIsNotSet,__zero_reg__
 10550               	.LM1420:
 10551 42cc 8091 0000 		lds r24,failCondition
 10552 42d0 8330      		cpi r24,lo8(3)
 10553 42d2 01F4      		brne .L572
 10554               	.LVL618:
 10555               	.LBB119:
 10556               	.LBB120:
 10557               	.LM1421:
 10558 42d4 1092 0000 		sts failTimer,__zero_reg__
 10559               	.LM1422:
 10560 42d8 5A9A      		sbi 43-32,2
 10561               	.LM1423:
 10562 42da 529A      		sbi 42-32,2
 10563               	.L572:
 10564               	/* epilogue start */
 10565               	.LBE120:
 10566               	.LBE119:
 10567               	.LM1424:
 10568 42dc DF91      		pop r29
 10569 42de CF91      		pop r28
 10570 42e0 1F91      		pop r17
 10571 42e2 0F91      		pop r16
 10572               	.LVL619:
 10573 42e4 FF90      		pop r15
 10574 42e6 EF90      		pop r14
 10575 42e8 DF90      		pop r13
 10576 42ea CF90      		pop r12
 10577 42ec BF90      		pop r11
 10578 42ee AF90      		pop r10
 10579 42f0 9F90      		pop r9
 10580 42f2 8F90      		pop r8
 10581               	.LVL620:
 10582 42f4 7F90      		pop r7
 10583 42f6 6F90      		pop r6
 10584               	.LVL621:
 10585 42f8 5F90      		pop r5
 10586 42fa 4F90      		pop r4
 10587 42fc 3F90      		pop r3
 10588 42fe 2F90      		pop r2
 10589               	.LVL622:
 10590 4300 0895      		ret
 10591               	.LFE50:
 10593               		.data
 10594               	.LC59:
 10595 013d 5072 6F67 		.string	"Prog#"
 10595      2300 
 10596               	.LC60:
 10597 0143 626C 616E 		.string	"blank."
 10597      6B2E 00
 10598               	.LC61:
 10599 014a 533A 2D00 		.string	"S:-"
 10600               	.LC62:
 10601 014e 542D 00   		.string	"T-"
 10602               	.LC63:
 10603 0151 2044 7572 		.string	" Dur:"
 10603      3A00 
 10604               	.LC64:
 10605 0157 2044 3A00 		.string	" D:"
 10606               	.LC65:
 10607 015b 2D2D 2D2D 		.string	"-------"
 10607      2D2D 2D00 
 10608               	.LC66:
 10609 0163 4D00      		.string	"M"
 10610               	.LC67:
 10611 0165 5700      		.string	"W"
 10612               	.LC68:
 10613 0167 4600      		.string	"F"
 10614               		.text
 10615               	.global	programDisplay
 10617               	programDisplay:
 10618               	.LFB37:
 10619               	.LM1425:
 10620               	.LVL623:
 10621 4302 8F92      		push r8
 10622 4304 9F92      		push r9
 10623 4306 AF92      		push r10
 10624 4308 BF92      		push r11
 10625 430a CF92      		push r12
 10626 430c DF92      		push r13
 10627 430e EF92      		push r14
 10628 4310 FF92      		push r15
 10629 4312 0F93      		push r16
 10630 4314 1F93      		push r17
 10631 4316 DF93      		push r29
 10632 4318 CF93      		push r28
 10633 431a CDB7      		in r28,__SP_L__
 10634 431c DEB7      		in r29,__SP_H__
 10635 431e 6097      		sbiw r28,16
 10636 4320 0FB6      		in __tmp_reg__,__SREG__
 10637 4322 F894      		cli
 10638 4324 DEBF      		out __SP_H__,r29
 10639 4326 0FBE      		out __SREG__,__tmp_reg__
 10640 4328 CDBF      		out __SP_L__,r28
 10641               	/* prologue: function */
 10642               	/* frame size = 16 */
 10643 432a FC01      		movw r30,r24
 10644               	.LM1426:
 10645 432c 8381      		ldd r24,Z+3
 10646               	.LVL624:
 10647 432e 8093 0000 		sts tempIntString,r24
 10648               	.LM1427:
 10649 4332 8481      		ldd r24,Z+4
 10650 4334 8093 0000 		sts tempIntString+1,r24
 10651               	.LM1428:
 10652 4338 80E0      		ldi r24,lo8(tempIntString)
 10653 433a 90E0      		ldi r25,hi8(tempIntString)
 10654 433c 0E94 0000 		call atoi
 10655               	.LVL625:
 10656 4340 5C01      		movw r10,r24
 10657               	.LVL626:
 10658               	.LM1429:
 10659 4342 1092 0000 		sts statusMsg,__zero_reg__
 10660               	.LM1430:
 10661 4346 FC01      		movw r30,r24
 10662 4348 EE0F      		lsl r30
 10663 434a FF1F      		rol r31
 10664 434c A3E0      		ldi r26,3
 10665 434e 880F      	1:	lsl r24
 10666 4350 991F      		rol r25
 10667 4352 AA95      		dec r26
 10668 4354 01F4      		brne 1b
 10669 4356 E80F      		add r30,r24
 10670 4358 F91F      		adc r31,r25
 10671 435a E050      		subi r30,lo8(-(weeklyProgram))
 10672 435c F040      		sbci r31,hi8(-(weeklyProgram))
 10673 435e 8081      		ld r24,Z
 10674 4360 8F3F      		cpi r24,lo8(-1)
 10675 4362 01F4      		brne .L574
 10676 4364 8181      		ldd r24,Z+1
 10677 4366 8F3F      		cpi r24,lo8(-1)
 10678 4368 01F4      		brne .L574
 10679               	.LM1431:
 10680 436a 80E0      		ldi r24,lo8(statusMsg)
 10681 436c 90E0      		ldi r25,hi8(statusMsg)
 10682 436e 60E0      		ldi r22,lo8(.LC59)
 10683 4370 70E0      		ldi r23,hi8(.LC59)
 10684 4372 0E94 0000 		call strcat
 10685               	.LM1432:
 10686 4376 C501      		movw r24,r10
 10687 4378 60E0      		ldi r22,lo8(tempIntString)
 10688 437a 70E0      		ldi r23,hi8(tempIntString)
 10689 437c 0E94 0000 		call returnInt
 10690               	.LM1433:
 10691 4380 80E0      		ldi r24,lo8(statusMsg)
 10692 4382 90E0      		ldi r25,hi8(statusMsg)
 10693 4384 60E0      		ldi r22,lo8(tempIntString)
 10694 4386 70E0      		ldi r23,hi8(tempIntString)
 10695 4388 0E94 0000 		call strcat
 10696               	.LM1434:
 10697 438c 80E0      		ldi r24,lo8(statusMsg)
 10698 438e 90E0      		ldi r25,hi8(statusMsg)
 10699 4390 60E0      		ldi r22,lo8(.LC60)
 10700 4392 70E0      		ldi r23,hi8(.LC60)
 10701 4394 00C0      		rjmp .L603
 10702               	.L574:
 10703               	.LM1435:
 10704 4396 1982      		std Y+1,__zero_reg__
 10705               	.LM1436:
 10706 4398 C501      		movw r24,r10
 10707 439a 7E01      		movw r14,r28
 10708 439c 0894      		sec
 10709 439e E11C      		adc r14,__zero_reg__
 10710 43a0 F11C      		adc r15,__zero_reg__
 10711 43a2 B701      		movw r22,r14
 10712 43a4 0E94 0000 		call programGetSwitches
 10713 43a8 6C01      		movw r12,r24
 10714               	.LVL627:
 10715               	.LM1437:
 10716 43aa 1092 0000 		sts statusMsg,__zero_reg__
 10717               	.LM1438:
 10718 43ae 80E0      		ldi r24,lo8(statusMsg)
 10719 43b0 90E0      		ldi r25,hi8(statusMsg)
 10720 43b2 60E0      		ldi r22,lo8(.LC59)
 10721 43b4 70E0      		ldi r23,hi8(.LC59)
 10722 43b6 0E94 0000 		call strcat
 10723               	.LM1439:
 10724 43ba C501      		movw r24,r10
 10725 43bc 60E0      		ldi r22,lo8(tempIntString)
 10726 43be 70E0      		ldi r23,hi8(tempIntString)
 10727 43c0 4AE0      		ldi r20,lo8(10)
 10728 43c2 50E0      		ldi r21,hi8(10)
 10729 43c4 0E94 0000 		call itoa
 10730               	.LM1440:
 10731 43c8 80E0      		ldi r24,lo8(statusMsg)
 10732 43ca 90E0      		ldi r25,hi8(statusMsg)
 10733 43cc 60E0      		ldi r22,lo8(tempIntString)
 10734 43ce 70E0      		ldi r23,hi8(tempIntString)
 10735 43d0 0E94 0000 		call strcat
 10736               	.LM1441:
 10737 43d4 C114      		cp r12,__zero_reg__
 10738 43d6 D104      		cpc r13,__zero_reg__
 10739 43d8 01F4      		brne .L576
 10740               	.LM1442:
 10741 43da C701      		movw r24,r14
 10742 43dc 60E0      		ldi r22,lo8(.LC61)
 10743 43de 70E0      		ldi r23,hi8(.LC61)
 10744 43e0 0E94 0000 		call strcat
 10745 43e4 00C0      		rjmp .L577
 10746               	.L576:
 10747               	.LBB121:
 10748               	.LM1443:
 10749 43e6 80E0      		ldi r24,lo8(statusMsg)
 10750 43e8 90E0      		ldi r25,hi8(statusMsg)
 10751 43ea 60E0      		ldi r22,lo8(.LC26)
 10752 43ec 70E0      		ldi r23,hi8(.LC26)
 10753 43ee 0E94 0000 		call strcat
 10754 43f2 00E0      		ldi r16,lo8(0)
 10755 43f4 10E0      		ldi r17,hi8(0)
 10756               	.LVL628:
 10757               	.LM1444:
 10758 43f6 F0E0      		ldi r31,lo8(statusMsg)
 10759 43f8 8F2E      		mov r8,r31
 10760 43fa F0E0      		ldi r31,hi8(statusMsg)
 10761 43fc 9F2E      		mov r9,r31
 10762 43fe 00C0      		rjmp .L578
 10763               	.L580:
 10764 4400 F401      		movw r30,r8
 10765 4402 0190      		ld __tmp_reg__,Z+
 10766 4404 0020      		tst __tmp_reg__
 10767 4406 01F4      		brne .-6
 10768 4408 3197      		sbiw r30,1
 10769 440a E050      		subi r30,lo8(statusMsg)
 10770 440c F040      		sbci r31,hi8(statusMsg)
 10771 440e 7F97      		sbiw r30,31
 10772 4410 00F0      		brlo .L579
 10773               	.LM1445:
 10774 4412 80E0      		ldi r24,lo8(statusMsg)
 10775 4414 90E0      		ldi r25,hi8(statusMsg)
 10776 4416 0E94 0000 		call sendMessage
 10777               	.LM1446:
 10778 441a 1092 0000 		sts statusMsg+6,__zero_reg__
 10779               	.L579:
 10780               	.LM1447:
 10781 441e 80E0      		ldi r24,lo8(statusMsg)
 10782 4420 90E0      		ldi r25,hi8(statusMsg)
 10783 4422 60E0      		ldi r22,lo8(.LC44)
 10784 4424 70E0      		ldi r23,hi8(.LC44)
 10785 4426 0E94 0000 		call strcat
 10786               	.LM1448:
 10787 442a F701      		movw r30,r14
 10788 442c E00F      		add r30,r16
 10789 442e F11F      		adc r31,r17
 10790 4430 8081      		ld r24,Z
 10791 4432 90E0      		ldi r25,lo8(0)
 10792 4434 60E0      		ldi r22,lo8(tempIntString)
 10793 4436 70E0      		ldi r23,hi8(tempIntString)
 10794 4438 4AE0      		ldi r20,lo8(10)
 10795 443a 50E0      		ldi r21,hi8(10)
 10796 443c 0E94 0000 		call itoa
 10797               	.LM1449:
 10798 4440 80E0      		ldi r24,lo8(statusMsg)
 10799 4442 90E0      		ldi r25,hi8(statusMsg)
 10800 4444 60E0      		ldi r22,lo8(tempIntString)
 10801 4446 70E0      		ldi r23,hi8(tempIntString)
 10802 4448 0E94 0000 		call strcat
 10803               	.LM1450:
 10804 444c 0F5F      		subi r16,lo8(-(1))
 10805 444e 1F4F      		sbci r17,hi8(-(1))
 10806               	.L578:
 10807 4450 0C15      		cp r16,r12
 10808 4452 1D05      		cpc r17,r13
 10809 4454 04F0      		brlt .L580
 10810               	.L577:
 10811               	.LBE121:
 10812               	.LM1451:
 10813 4456 80E0      		ldi r24,lo8(statusMsg)
 10814 4458 90E0      		ldi r25,hi8(statusMsg)
 10815 445a 0E94 0000 		call sendMessage
 10816               	.LM1452:
 10817 445e 1092 0000 		sts statusMsg,__zero_reg__
 10818               	.LM1453:
 10819 4462 8501      		movw r16,r10
 10820               	.LVL629:
 10821 4464 000F      		lsl r16
 10822 4466 111F      		rol r17
 10823 4468 C501      		movw r24,r10
 10824 446a 73E0      		ldi r23,3
 10825 446c 880F      	1:	lsl r24
 10826 446e 991F      		rol r25
 10827 4470 7A95      		dec r23
 10828 4472 01F4      		brne 1b
 10829 4474 080F      		add r16,r24
 10830 4476 191F      		adc r17,r25
 10831 4478 0050      		subi r16,lo8(-(weeklyProgram))
 10832 447a 1040      		sbci r17,hi8(-(weeklyProgram))
 10833               	.LM1454:
 10834 447c F801      		movw r30,r16
 10835 447e 9181      		ldd r25,Z+1
 10836               	.LVL630:
 10837 4480 80E0      		ldi r24,lo8(0)
 10838               	.LVL631:
 10839               	.LM1455:
 10840 4482 F501      		movw r30,r10
 10841 4484 EE0F      		lsl r30
 10842 4486 FF1F      		rol r31
 10843 4488 EE0F      		lsl r30
 10844 448a FF1F      		rol r31
 10845 448c EA0D      		add r30,r10
 10846 448e FB1D      		adc r31,r11
 10847 4490 EE0F      		lsl r30
 10848 4492 FF1F      		rol r31
 10849 4494 E050      		subi r30,lo8(-(weeklyProgram+2))
 10850 4496 F040      		sbci r31,hi8(-(weeklyProgram+2))
 10851 4498 C080      		ld r12,Z
 10852               	.LVL632:
 10853 449a DD24      		clr r13
 10854               	.LVL633:
 10855 449c C82A      		or r12,r24
 10856 449e D92A      		or r13,r25
 10857               	.LVL634:
 10858               	.LM1456:
 10859 44a0 C601      		movw r24,r12
 10860 44a2 6CE3      		ldi r22,lo8(60)
 10861 44a4 70E0      		ldi r23,hi8(60)
 10862 44a6 0E94 0000 		call __udivmodhi4
 10863 44aa 7B01      		movw r14,r22
 10864               	.LM1457:
 10865 44ac F801      		movw r30,r16
 10866 44ae 9381      		ldd r25,Z+3
 10867               	.LVL635:
 10868 44b0 80E0      		ldi r24,lo8(0)
 10869               	.LVL636:
 10870               	.LM1458:
 10871 44b2 2481      		ldd r18,Z+4
 10872 44b4 30E0      		ldi r19,lo8(0)
 10873 44b6 822B      		or r24,r18
 10874 44b8 932B      		or r25,r19
 10875               	.LVL637:
 10876 44ba 6CE3      		ldi r22,lo8(60)
 10877 44bc 70E0      		ldi r23,hi8(60)
 10878 44be 0E94 0000 		call __udivmodhi4
 10879 44c2 B62E      		mov r11,r22
 10880 44c4 A72E      		mov r10,r23
 10881               	.LVL638:
 10882               	.LM1459:
 10883 44c6 0081      		ld r16,Z
 10884               	.LVL639:
 10885               	.LM1460:
 10886 44c8 80E0      		ldi r24,lo8(statusMsg)
 10887 44ca 90E0      		ldi r25,hi8(statusMsg)
 10888 44cc 60E0      		ldi r22,lo8(.LC62)
 10889 44ce 70E0      		ldi r23,hi8(.LC62)
 10890 44d0 0E94 0000 		call strcat
 10891               	.LVL640:
 10892               	.LM1461:
 10893 44d4 C701      		movw r24,r14
 10894               	.LVL641:
 10895 44d6 60E0      		ldi r22,lo8(tempIntString)
 10896 44d8 70E0      		ldi r23,hi8(tempIntString)
 10897 44da 4AE0      		ldi r20,lo8(10)
 10898 44dc 50E0      		ldi r21,hi8(10)
 10899 44de 0E94 0000 		call itoa
 10900               	.LM1462:
 10901 44e2 80E0      		ldi r24,lo8(statusMsg)
 10902 44e4 90E0      		ldi r25,hi8(statusMsg)
 10903 44e6 60E0      		ldi r22,lo8(tempIntString)
 10904 44e8 70E0      		ldi r23,hi8(tempIntString)
 10905 44ea 0E94 0000 		call strcat
 10906               	.LM1463:
 10907 44ee 80E0      		ldi r24,lo8(statusMsg)
 10908 44f0 90E0      		ldi r25,hi8(statusMsg)
 10909 44f2 60E0      		ldi r22,lo8(.LC44)
 10910 44f4 70E0      		ldi r23,hi8(.LC44)
 10911 44f6 0E94 0000 		call strcat
 10912               	.LM1464:
 10913 44fa 8CE3      		ldi r24,lo8(60)
 10914 44fc 90E0      		ldi r25,hi8(60)
 10915 44fe 9C01      		movw r18,r24
 10916 4500 E29E      		mul r14,r18
 10917 4502 C001      		movw r24,r0
 10918 4504 E39E      		mul r14,r19
 10919 4506 900D      		add r25,r0
 10920 4508 F29E      		mul r15,r18
 10921 450a 900D      		add r25,r0
 10922 450c 1124      		clr r1
 10923 450e F601      		movw r30,r12
 10924               	.LVL642:
 10925 4510 E81B      		sub r30,r24
 10926 4512 F90B      		sbc r31,r25
 10927 4514 CF01      		movw r24,r30
 10928 4516 60E0      		ldi r22,lo8(tempIntString)
 10929 4518 70E0      		ldi r23,hi8(tempIntString)
 10930 451a 4AE0      		ldi r20,lo8(10)
 10931 451c 50E0      		ldi r21,hi8(10)
 10932 451e 0E94 0000 		call itoa
 10933               	.LM1465:
 10934 4522 80E0      		ldi r24,lo8(statusMsg)
 10935 4524 90E0      		ldi r25,hi8(statusMsg)
 10936 4526 60E0      		ldi r22,lo8(tempIntString)
 10937 4528 70E0      		ldi r23,hi8(tempIntString)
 10938 452a 0E94 0000 		call strcat
 10939               	.LM1466:
 10940 452e 80E0      		ldi r24,lo8(statusMsg)
 10941 4530 90E0      		ldi r25,hi8(statusMsg)
 10942 4532 60E0      		ldi r22,lo8(.LC63)
 10943 4534 70E0      		ldi r23,hi8(.LC63)
 10944 4536 0E94 0000 		call strcat
 10945               	.LM1467:
 10946 453a 8B2D      		mov r24,r11
 10947 453c 9A2D      		mov r25,r10
 10948 453e 60E0      		ldi r22,lo8(tempLongString)
 10949 4540 70E0      		ldi r23,hi8(tempLongString)
 10950 4542 4AE0      		ldi r20,lo8(10)
 10951 4544 50E0      		ldi r21,hi8(10)
 10952 4546 0E94 0000 		call itoa
 10953               	.LM1468:
 10954 454a 80E0      		ldi r24,lo8(statusMsg)
 10955 454c 90E0      		ldi r25,hi8(statusMsg)
 10956 454e 60E0      		ldi r22,lo8(tempLongString)
 10957 4550 70E0      		ldi r23,hi8(tempLongString)
 10958 4552 0E94 0000 		call strcat
 10959               	.LM1469:
 10960 4556 80E0      		ldi r24,lo8(statusMsg)
 10961 4558 90E0      		ldi r25,hi8(statusMsg)
 10962 455a 60E0      		ldi r22,lo8(.LC64)
 10963 455c 70E0      		ldi r23,hi8(.LC64)
 10964 455e 0E94 0000 		call strcat
 10965               	.LM1470:
 10966 4562 0F3F      		cpi r16,lo8(-1)
 10967 4564 01F4      		brne .L581
 10968               	.LM1471:
 10969 4566 80E0      		ldi r24,lo8(statusMsg)
 10970 4568 90E0      		ldi r25,hi8(statusMsg)
 10971 456a 60E0      		ldi r22,lo8(.LC65)
 10972 456c 70E0      		ldi r23,hi8(.LC65)
 10973 456e 00C0      		rjmp .L603
 10974               	.L581:
 10975               	.LM1472:
 10976 4570 06FF      		sbrs r16,6
 10977 4572 00C0      		rjmp .L582
 10978               	.LVL643:
 10979               	.LM1473:
 10980 4574 80E0      		ldi r24,lo8(statusMsg)
 10981 4576 90E0      		ldi r25,hi8(statusMsg)
 10982 4578 60E0      		ldi r22,lo8(.LC26)
 10983 457a 70E0      		ldi r23,hi8(.LC26)
 10984 457c 00C0      		rjmp .L597
 10985               	.L582:
 10986               	.LM1474:
 10987 457e 80E0      		ldi r24,lo8(statusMsg)
 10988 4580 90E0      		ldi r25,hi8(statusMsg)
 10989 4582 60E0      		ldi r22,lo8(.LC24)
 10990 4584 70E0      		ldi r23,hi8(.LC24)
 10991               	.L597:
 10992 4586 0E94 0000 		call strcat
 10993               	.LM1475:
 10994 458a 05FF      		sbrs r16,5
 10995 458c 00C0      		rjmp .L584
 10996               	.LM1476:
 10997 458e 80E0      		ldi r24,lo8(statusMsg)
 10998 4590 90E0      		ldi r25,hi8(statusMsg)
 10999 4592 60E0      		ldi r22,lo8(.LC66)
 11000 4594 70E0      		ldi r23,hi8(.LC66)
 11001 4596 00C0      		rjmp .L598
 11002               	.L584:
 11003               	.LM1477:
 11004 4598 80E0      		ldi r24,lo8(statusMsg)
 11005 459a 90E0      		ldi r25,hi8(statusMsg)
 11006 459c 60E0      		ldi r22,lo8(.LC24)
 11007 459e 70E0      		ldi r23,hi8(.LC24)
 11008               	.L598:
 11009 45a0 0E94 0000 		call strcat
 11010               	.LM1478:
 11011 45a4 04FF      		sbrs r16,4
 11012 45a6 00C0      		rjmp .L586
 11013               	.LM1479:
 11014 45a8 80E0      		ldi r24,lo8(statusMsg)
 11015 45aa 90E0      		ldi r25,hi8(statusMsg)
 11016 45ac 60E0      		ldi r22,lo8(.LC29)
 11017 45ae 70E0      		ldi r23,hi8(.LC29)
 11018 45b0 00C0      		rjmp .L599
 11019               	.L586:
 11020               	.LM1480:
 11021 45b2 80E0      		ldi r24,lo8(statusMsg)
 11022 45b4 90E0      		ldi r25,hi8(statusMsg)
 11023 45b6 60E0      		ldi r22,lo8(.LC24)
 11024 45b8 70E0      		ldi r23,hi8(.LC24)
 11025               	.L599:
 11026 45ba 0E94 0000 		call strcat
 11027               	.LM1481:
 11028 45be 03FF      		sbrs r16,3
 11029 45c0 00C0      		rjmp .L588
 11030               	.LM1482:
 11031 45c2 80E0      		ldi r24,lo8(statusMsg)
 11032 45c4 90E0      		ldi r25,hi8(statusMsg)
 11033 45c6 60E0      		ldi r22,lo8(.LC67)
 11034 45c8 70E0      		ldi r23,hi8(.LC67)
 11035 45ca 00C0      		rjmp .L600
 11036               	.L588:
 11037               	.LM1483:
 11038 45cc 80E0      		ldi r24,lo8(statusMsg)
 11039 45ce 90E0      		ldi r25,hi8(statusMsg)
 11040 45d0 60E0      		ldi r22,lo8(.LC24)
 11041 45d2 70E0      		ldi r23,hi8(.LC24)
 11042               	.L600:
 11043 45d4 0E94 0000 		call strcat
 11044               	.LM1484:
 11045 45d8 02FF      		sbrs r16,2
 11046 45da 00C0      		rjmp .L590
 11047               	.LM1485:
 11048 45dc 80E0      		ldi r24,lo8(statusMsg)
 11049 45de 90E0      		ldi r25,hi8(statusMsg)
 11050 45e0 60E0      		ldi r22,lo8(.LC29)
 11051 45e2 70E0      		ldi r23,hi8(.LC29)
 11052 45e4 00C0      		rjmp .L601
 11053               	.L590:
 11054               	.LM1486:
 11055 45e6 80E0      		ldi r24,lo8(statusMsg)
 11056 45e8 90E0      		ldi r25,hi8(statusMsg)
 11057 45ea 60E0      		ldi r22,lo8(.LC24)
 11058 45ec 70E0      		ldi r23,hi8(.LC24)
 11059               	.L601:
 11060 45ee 0E94 0000 		call strcat
 11061               	.LM1487:
 11062 45f2 01FF      		sbrs r16,1
 11063 45f4 00C0      		rjmp .L592
 11064               	.LM1488:
 11065 45f6 80E0      		ldi r24,lo8(statusMsg)
 11066 45f8 90E0      		ldi r25,hi8(statusMsg)
 11067 45fa 60E0      		ldi r22,lo8(.LC68)
 11068 45fc 70E0      		ldi r23,hi8(.LC68)
 11069 45fe 00C0      		rjmp .L602
 11070               	.L592:
 11071               	.LM1489:
 11072 4600 80E0      		ldi r24,lo8(statusMsg)
 11073 4602 90E0      		ldi r25,hi8(statusMsg)
 11074 4604 60E0      		ldi r22,lo8(.LC24)
 11075 4606 70E0      		ldi r23,hi8(.LC24)
 11076               	.L602:
 11077 4608 0E94 0000 		call strcat
 11078               	.LM1490:
 11079 460c 00FF      		sbrs r16,0
 11080 460e 00C0      		rjmp .L594
 11081               	.LM1491:
 11082 4610 80E0      		ldi r24,lo8(statusMsg)
 11083 4612 90E0      		ldi r25,hi8(statusMsg)
 11084 4614 60E0      		ldi r22,lo8(.LC26)
 11085 4616 70E0      		ldi r23,hi8(.LC26)
 11086 4618 00C0      		rjmp .L603
 11087               	.L594:
 11088               	.LM1492:
 11089 461a 80E0      		ldi r24,lo8(statusMsg)
 11090 461c 90E0      		ldi r25,hi8(statusMsg)
 11091 461e 60E0      		ldi r22,lo8(.LC24)
 11092 4620 70E0      		ldi r23,hi8(.LC24)
 11093               	.LVL644:
 11094               	.L603:
 11095 4622 0E94 0000 		call strcat
 11096               	.LM1493:
 11097 4626 80E0      		ldi r24,lo8(statusMsg)
 11098 4628 90E0      		ldi r25,hi8(statusMsg)
 11099 462a 0E94 0000 		call sendMessage
 11100               	/* epilogue start */
 11101               	.LM1494:
 11102 462e 6096      		adiw r28,16
 11103 4630 0FB6      		in __tmp_reg__,__SREG__
 11104 4632 F894      		cli
 11105 4634 DEBF      		out __SP_H__,r29
 11106 4636 0FBE      		out __SREG__,__tmp_reg__
 11107 4638 CDBF      		out __SP_L__,r28
 11108 463a CF91      		pop r28
 11109 463c DF91      		pop r29
 11110 463e 1F91      		pop r17
 11111 4640 0F91      		pop r16
 11112               	.LVL645:
 11113 4642 FF90      		pop r15
 11114 4644 EF90      		pop r14
 11115               	.LVL646:
 11116 4646 DF90      		pop r13
 11117 4648 CF90      		pop r12
 11118               	.LVL647:
 11119 464a BF90      		pop r11
 11120 464c AF90      		pop r10
 11121               	.LVL648:
 11122 464e 9F90      		pop r9
 11123 4650 8F90      		pop r8
 11124 4652 0895      		ret
 11125               	.LFE37:
 11127               	.global	programAddSwitch
 11129               	programAddSwitch:
 11130               	.LFB33:
 11131               	.LM1495:
 11132               	.LVL649:
 11133 4654 AF92      		push r10
 11134 4656 BF92      		push r11
 11135 4658 CF92      		push r12
 11136 465a DF92      		push r13
 11137 465c EF92      		push r14
 11138 465e FF92      		push r15
 11139 4660 0F93      		push r16
 11140 4662 1F93      		push r17
 11141 4664 DF93      		push r29
 11142 4666 CF93      		push r28
 11143 4668 CDB7      		in r28,__SP_L__
 11144 466a DEB7      		in r29,__SP_H__
 11145 466c 6097      		sbiw r28,16
 11146 466e 0FB6      		in __tmp_reg__,__SREG__
 11147 4670 F894      		cli
 11148 4672 DEBF      		out __SP_H__,r29
 11149 4674 0FBE      		out __SREG__,__tmp_reg__
 11150 4676 CDBF      		out __SP_L__,r28
 11151               	/* prologue: function */
 11152               	/* frame size = 16 */
 11153 4678 6C01      		movw r12,r24
 11154               	.LM1496:
 11155 467a FC01      		movw r30,r24
 11156 467c 8381      		ldd r24,Z+3
 11157               	.LVL650:
 11158 467e 8093 0000 		sts tempIntString,r24
 11159               	.LM1497:
 11160 4682 8481      		ldd r24,Z+4
 11161 4684 8093 0000 		sts tempIntString+1,r24
 11162               	.LM1498:
 11163 4688 80E0      		ldi r24,lo8(tempIntString)
 11164 468a 90E0      		ldi r25,hi8(tempIntString)
 11165 468c 0E94 0000 		call atoi
 11166 4690 7C01      		movw r14,r24
 11167               	.LVL651:
 11168               	.LM1499:
 11169 4692 F601      		movw r30,r12
 11170 4694 8581      		ldd r24,Z+5
 11171 4696 8093 0000 		sts tempIntString,r24
 11172               	.LM1500:
 11173 469a 8681      		ldd r24,Z+6
 11174 469c 8093 0000 		sts tempIntString+1,r24
 11175               	.LM1501:
 11176 46a0 80E0      		ldi r24,lo8(tempIntString)
 11177 46a2 90E0      		ldi r25,hi8(tempIntString)
 11178 46a4 0E94 0000 		call atoi
 11179 46a8 5C01      		movw r10,r24
 11180               	.LVL652:
 11181               	.LM1502:
 11182 46aa 1982      		std Y+1,__zero_reg__
 11183               	.LM1503:
 11184 46ac C701      		movw r24,r14
 11185 46ae 8E01      		movw r16,r28
 11186 46b0 0F5F      		subi r16,lo8(-(1))
 11187 46b2 1F4F      		sbci r17,hi8(-(1))
 11188 46b4 B801      		movw r22,r16
 11189 46b6 0E94 0000 		call programGetSwitches
 11190 46ba AC01      		movw r20,r24
 11191               	.LVL653:
 11192 46bc 20E0      		ldi r18,lo8(0)
 11193 46be 30E0      		ldi r19,hi8(0)
 11194               	.LVL654:
 11195               	.LM1504:
 11196 46c0 B801      		movw r22,r16
 11197 46c2 00C0      		rjmp .L606
 11198               	.L609:
 11199 46c4 FB01      		movw r30,r22
 11200 46c6 E20F      		add r30,r18
 11201 46c8 F31F      		adc r31,r19
 11202 46ca 8081      		ld r24,Z
 11203 46cc 90E0      		ldi r25,lo8(0)
 11204 46ce 8A15      		cp r24,r10
 11205 46d0 9B05      		cpc r25,r11
 11206 46d2 01F4      		brne .L607
 11207               	.LM1505:
 11208 46d4 8CE0      		ldi r24,lo8(12)
 11209 46d6 90E0      		ldi r25,hi8(12)
 11210 46d8 00C0      		rjmp .L626
 11211               	.L607:
 11212               	.LM1506:
 11213 46da 2F5F      		subi r18,lo8(-(1))
 11214 46dc 3F4F      		sbci r19,hi8(-(1))
 11215               	.L606:
 11216 46de 2417      		cp r18,r20
 11217 46e0 3507      		cpc r19,r21
 11218 46e2 04F0      		brlt .L609
 11219               	.LM1507:
 11220 46e4 F4E1      		ldi r31,lo8(20)
 11221 46e6 EF16      		cp r14,r31
 11222 46e8 F104      		cpc r15,__zero_reg__
 11223 46ea 04F4      		brge .L610
 11224 46ec E114      		cp r14,__zero_reg__
 11225 46ee F104      		cpc r15,__zero_reg__
 11226 46f0 01F4      		brne .L611
 11227 46f2 F601      		movw r30,r12
 11228 46f4 8481      		ldd r24,Z+4
 11229 46f6 8033      		cpi r24,lo8(48)
 11230 46f8 01F0      		breq .L611
 11231               	.L610:
 11232               	.LM1508:
 11233 46fa 82E0      		ldi r24,lo8(2)
 11234 46fc 90E0      		ldi r25,hi8(2)
 11235 46fe 00C0      		rjmp .L626
 11236               	.L611:
 11237               	.LM1509:
 11238 4700 F0E1      		ldi r31,lo8(16)
 11239 4702 AF16      		cp r10,r31
 11240 4704 B104      		cpc r11,__zero_reg__
 11241 4706 04F4      		brge .L612
 11242 4708 A114      		cp r10,__zero_reg__
 11243 470a B104      		cpc r11,__zero_reg__
 11244 470c 01F4      		brne .L613
 11245 470e F601      		movw r30,r12
 11246 4710 8681      		ldd r24,Z+6
 11247 4712 8033      		cpi r24,lo8(48)
 11248 4714 01F0      		breq .L613
 11249               	.L612:
 11250               	.LM1510:
 11251 4716 81E0      		ldi r24,lo8(1)
 11252 4718 90E0      		ldi r25,hi8(1)
 11253 471a 00C0      		rjmp .L626
 11254               	.L613:
 11255               	.LM1511:
 11256 471c F701      		movw r30,r14
 11257 471e EE0F      		lsl r30
 11258 4720 FF1F      		rol r31
 11259 4722 C701      		movw r24,r14
 11260 4724 43E0      		ldi r20,3
 11261 4726 880F      	1:	lsl r24
 11262 4728 991F      		rol r25
 11263 472a 4A95      		dec r20
 11264 472c 01F4      		brne 1b
 11265               	.LVL655:
 11266 472e E80F      		add r30,r24
 11267 4730 F91F      		adc r31,r25
 11268 4732 E050      		subi r30,lo8(-(weeklyProgram))
 11269 4734 F040      		sbci r31,hi8(-(weeklyProgram))
 11270 4736 8081      		ld r24,Z
 11271 4738 8F3F      		cpi r24,lo8(-1)
 11272 473a 01F4      		brne .L614
 11273 473c 8181      		ldd r24,Z+1
 11274 473e 8F3F      		cpi r24,lo8(-1)
 11275 4740 01F4      		brne .L614
 11276               	.LM1512:
 11277 4742 8DE0      		ldi r24,lo8(13)
 11278 4744 90E0      		ldi r25,hi8(13)
 11279 4746 00C0      		rjmp .L626
 11280               	.L614:
 11281               	.LM1513:
 11282 4748 C701      		movw r24,r14
 11283 474a 60E0      		ldi r22,lo8(tempIntString)
 11284 474c 70E0      		ldi r23,hi8(tempIntString)
 11285 474e 4AE0      		ldi r20,lo8(10)
 11286 4750 50E0      		ldi r21,hi8(10)
 11287 4752 0E94 0000 		call itoa
 11288               	.LVL656:
 11289 4756 F701      		movw r30,r14
 11290 4758 EE0F      		lsl r30
 11291 475a FF1F      		rol r31
 11292 475c C701      		movw r24,r14
 11293 475e 23E0      		ldi r18,3
 11294 4760 880F      	1:	lsl r24
 11295 4762 991F      		rol r25
 11296 4764 2A95      		dec r18
 11297 4766 01F4      		brne 1b
 11298 4768 E80F      		add r30,r24
 11299 476a F91F      		adc r31,r25
 11300 476c E050      		subi r30,lo8(-(weeklyProgram+5))
 11301 476e F040      		sbci r31,hi8(-(weeklyProgram+5))
 11302 4770 25E0      		ldi r18,lo8(5)
 11303 4772 30E0      		ldi r19,hi8(5)
 11304               	.LVL657:
 11305               	.L616:
 11306               	.LBB122:
 11307               	.LBB123:
 11308               	.LM1514:
 11309 4774 8081      		ld r24,Z
 11310 4776 8F3F      		cpi r24,lo8(-1)
 11311 4778 01F4      		brne .L615
 11312               	.LBE123:
 11313               	.LBE122:
 11314               	.LM1515:
 11315 477a F701      		movw r30,r14
 11316 477c 03E0      		ldi r16,3
 11317 477e EE0F      	1:	lsl r30
 11318 4780 FF1F      		rol r31
 11319 4782 0A95      		dec r16
 11320 4784 01F4      		brne 1b
 11321 4786 EE0C      		lsl r14
 11322 4788 FF1C      		rol r15
 11323 478a EE0D      		add r30,r14
 11324 478c FF1D      		adc r31,r15
 11325 478e E20F      		add r30,r18
 11326 4790 F31F      		adc r31,r19
 11327 4792 E050      		subi r30,lo8(-(weeklyProgram))
 11328 4794 F040      		sbci r31,hi8(-(weeklyProgram))
 11329 4796 A082      		st Z,r10
 11330               	.LM1516:
 11331 4798 0E94 0000 		call ok
 11332               	.LVL658:
 11333 479c 00C0      		rjmp .L622
 11334               	.LVL659:
 11335               	.L615:
 11336               	.LBB125:
 11337               	.LBB124:
 11338               	.LM1517:
 11339 479e 2F5F      		subi r18,lo8(-(1))
 11340 47a0 3F4F      		sbci r19,hi8(-(1))
 11341 47a2 3196      		adiw r30,1
 11342 47a4 2930      		cpi r18,9
 11343 47a6 3105      		cpc r19,__zero_reg__
 11344 47a8 01F4      		brne .L616
 11345               	.LVL660:
 11346               	.L625:
 11347               	.LBE124:
 11348               	.LBE125:
 11349               	.LM1518:
 11350 47aa F701      		movw r30,r14
 11351 47ac EE0F      		lsl r30
 11352 47ae FF1F      		rol r31
 11353 47b0 C701      		movw r24,r14
 11354               	.LVL661:
 11355 47b2 A3E0      		ldi r26,3
 11356 47b4 880F      	1:	lsl r24
 11357 47b6 991F      		rol r25
 11358 47b8 AA95      		dec r26
 11359 47ba 01F4      		brne 1b
 11360 47bc E80F      		add r30,r24
 11361 47be F91F      		adc r31,r25
 11362 47c0 E050      		subi r30,lo8(-(weeklyProgram))
 11363 47c2 F040      		sbci r31,hi8(-(weeklyProgram))
 11364 47c4 8185      		ldd r24,Z+9
 11365 47c6 90E0      		ldi r25,lo8(0)
 11366               	.LM1519:
 11367 47c8 8F3F      		cpi r24,255
 11368 47ca 9105      		cpc r25,__zero_reg__
 11369               	.LVL662:
 11370 47cc 01F0      		breq .L617
 11371 47ce 7C01      		movw r14,r24
 11372 47d0 00C0      		rjmp .L625
 11373               	.L617:
 11374 47d2 23E1      		ldi r18,lo8(19)
 11375 47d4 30E0      		ldi r19,hi8(19)
 11376               	.LVL663:
 11377 47d6 4FEF      		ldi r20,lo8(255)
 11378 47d8 50E0      		ldi r21,hi8(255)
 11379               	.L620:
 11380               	.LBB126:
 11381               	.LM1520:
 11382 47da F901      		movw r30,r18
 11383 47dc EE0F      		lsl r30
 11384 47de FF1F      		rol r31
 11385 47e0 C901      		movw r24,r18
 11386               	.LVL664:
 11387 47e2 63E0      		ldi r22,3
 11388 47e4 880F      	1:	lsl r24
 11389 47e6 991F      		rol r25
 11390 47e8 6A95      		dec r22
 11391 47ea 01F4      		brne 1b
 11392 47ec E80F      		add r30,r24
 11393 47ee F91F      		adc r31,r25
 11394 47f0 E050      		subi r30,lo8(-(weeklyProgram))
 11395 47f2 F040      		sbci r31,hi8(-(weeklyProgram))
 11396 47f4 8081      		ld r24,Z
 11397 47f6 8F3F      		cpi r24,lo8(-1)
 11398 47f8 01F4      		brne .L619
 11399 47fa 8581      		ldd r24,Z+5
 11400 47fc 8F3F      		cpi r24,lo8(-1)
 11401 47fe 01F4      		brne .L619
 11402 4800 A901      		movw r20,r18
 11403 4802 20E0      		ldi r18,lo8(0)
 11404 4804 30E0      		ldi r19,hi8(0)
 11405               	.L619:
 11406               	.LM1521:
 11407 4806 2150      		subi r18,lo8(-(-1))
 11408 4808 3040      		sbci r19,hi8(-(-1))
 11409 480a 1216      		cp __zero_reg__,r18
 11410 480c 1306      		cpc __zero_reg__,r19
 11411 480e 04F0      		brlt .L620
 11412               	.LM1522:
 11413 4810 4F3F      		cpi r20,255
 11414 4812 5105      		cpc r21,__zero_reg__
 11415 4814 01F4      		brne .L621
 11416               	.LM1523:
 11417 4816 8EE0      		ldi r24,lo8(14)
 11418 4818 90E0      		ldi r25,hi8(14)
 11419               	.LVL665:
 11420               	.L626:
 11421 481a 0E94 0000 		call fail
 11422               	.LVL666:
 11423 481e 00C0      		rjmp .L622
 11424               	.LVL667:
 11425               	.L621:
 11426               	.LM1524:
 11427 4820 F701      		movw r30,r14
 11428 4822 03E0      		ldi r16,3
 11429 4824 EE0F      	1:	lsl r30
 11430 4826 FF1F      		rol r31
 11431 4828 0A95      		dec r16
 11432 482a 01F4      		brne 1b
 11433 482c EE0C      		lsl r14
 11434 482e FF1C      		rol r15
 11435 4830 EE0D      		add r30,r14
 11436 4832 FF1D      		adc r31,r15
 11437 4834 E050      		subi r30,lo8(-(weeklyProgram))
 11438 4836 F040      		sbci r31,hi8(-(weeklyProgram))
 11439 4838 4187      		std Z+9,r20
 11440 483a 7A01      		movw r14,r20
 11441 483c 00C0      		rjmp .L625
 11442               	.LVL668:
 11443               	.L622:
 11444               	/* epilogue start */
 11445               	.LBE126:
 11446               	.LM1525:
 11447 483e 6096      		adiw r28,16
 11448 4840 0FB6      		in __tmp_reg__,__SREG__
 11449 4842 F894      		cli
 11450 4844 DEBF      		out __SP_H__,r29
 11451 4846 0FBE      		out __SREG__,__tmp_reg__
 11452 4848 CDBF      		out __SP_L__,r28
 11453 484a CF91      		pop r28
 11454 484c DF91      		pop r29
 11455 484e 1F91      		pop r17
 11456 4850 0F91      		pop r16
 11457 4852 FF90      		pop r15
 11458 4854 EF90      		pop r14
 11459               	.LVL669:
 11460 4856 DF90      		pop r13
 11461 4858 CF90      		pop r12
 11462               	.LVL670:
 11463 485a BF90      		pop r11
 11464 485c AF90      		pop r10
 11465               	.LVL671:
 11466 485e 0895      		ret
 11467               	.LFE33:
 11469               	.global	clearProgram
 11471               	clearProgram:
 11472               	.LFB31:
 11473               	.LM1526:
 11474               	.LVL672:
 11475 4860 0F93      		push r16
 11476 4862 1F93      		push r17
 11477 4864 CF93      		push r28
 11478 4866 DF93      		push r29
 11479               	/* prologue: function */
 11480               	/* frame size = 0 */
 11481 4868 8C01      		movw r16,r24
 11482               	.LM1527:
 11483 486a 0E94 0000 		call getSwitchNumber
 11484               	.LVL673:
 11485 486e EC01      		movw r28,r24
 11486               	.LVL674:
 11487               	.LM1528:
 11488 4870 8431      		cpi r24,20
 11489 4872 9105      		cpc r25,__zero_reg__
 11490 4874 04F4      		brge .L628
 11491               	.LVL675:
 11492 4876 0097      		sbiw r24,0
 11493 4878 01F4      		brne .L629
 11494 487a F801      		movw r30,r16
 11495 487c 8481      		ldd r24,Z+4
 11496               	.LVL676:
 11497 487e 8033      		cpi r24,lo8(48)
 11498 4880 01F0      		breq .L629
 11499               	.LVL677:
 11500               	.L628:
 11501               	.LM1529:
 11502 4882 82E0      		ldi r24,lo8(2)
 11503 4884 90E0      		ldi r25,hi8(2)
 11504 4886 0E94 0000 		call fail
 11505 488a 00C0      		rjmp .L632
 11506               	.LVL678:
 11507               	.L629:
 11508               	.LM1530:
 11509 488c CE01      		movw r24,r28
 11510 488e 60E0      		ldi r22,lo8(tempIntString)
 11511 4890 70E0      		ldi r23,hi8(tempIntString)
 11512 4892 4AE0      		ldi r20,lo8(10)
 11513 4894 50E0      		ldi r21,hi8(10)
 11514 4896 0E94 0000 		call itoa
 11515               	.LM1531:
 11516 489a 0E94 0000 		call ok
 11517 489e FE01      		movw r30,r28
 11518 48a0 73E0      		ldi r23,3
 11519 48a2 EE0F      	1:	lsl r30
 11520 48a4 FF1F      		rol r31
 11521 48a6 7A95      		dec r23
 11522 48a8 01F4      		brne 1b
 11523 48aa CC0F      		lsl r28
 11524 48ac DD1F      		rol r29
 11525 48ae EC0F      		add r30,r28
 11526 48b0 FD1F      		adc r31,r29
 11527 48b2 E050      		subi r30,lo8(-(weeklyProgram))
 11528 48b4 F040      		sbci r31,hi8(-(weeklyProgram))
 11529 48b6 80E0      		ldi r24,lo8(0)
 11530 48b8 90E0      		ldi r25,hi8(0)
 11531               	.LVL679:
 11532               	.LBB127:
 11533               	.LBB128:
 11534               	.LM1532:
 11535 48ba 2FEF      		ldi r18,lo8(-1)
 11536               	.L631:
 11537 48bc 2193      		st Z+,r18
 11538               	.LM1533:
 11539 48be 0196      		adiw r24,1
 11540 48c0 8A30      		cpi r24,10
 11541 48c2 9105      		cpc r25,__zero_reg__
 11542 48c4 01F4      		brne .L631
 11543               	.L632:
 11544               	/* epilogue start */
 11545               	.LBE128:
 11546               	.LBE127:
 11547               	.LM1534:
 11548 48c6 DF91      		pop r29
 11549 48c8 CF91      		pop r28
 11550               	.LVL680:
 11551 48ca 1F91      		pop r17
 11552 48cc 0F91      		pop r16
 11553               	.LVL681:
 11554 48ce 0895      		ret
 11555               	.LFE31:
 11557               		.data
 11558               	.LC69:
 11559 0169 5365 7420 		.string	"Set @"
 11559      4000 
 11560               	.LC70:
 11561 016f 4240 00   		.string	"B@"
 11562               		.text
 11563               	.global	brightnessSet
 11565               	brightnessSet:
 11566               	.LFB27:
 11567               	.LM1535:
 11568               	.LVL682:
 11569               	/* prologue: function */
 11570               	/* frame size = 0 */
 11571               	.LM1536:
 11572 48d0 0E94 0000 		call getSwitchNumber
 11573               	.LVL683:
 11574               	.LM1537:
 11575 48d4 0097      		sbiw r24,0
 11576               	.LVL684:
 11577 48d6 01F4      		brne .L635
 11578               	.LM1538:
 11579 48d8 8091 0000 		lds r24,oldBright
 11580               	.LVL685:
 11581 48dc 90E0      		ldi r25,lo8(0)
 11582 48de 60E0      		ldi r22,lo8(tempIntString)
 11583 48e0 70E0      		ldi r23,hi8(tempIntString)
 11584 48e2 4AE0      		ldi r20,lo8(10)
 11585 48e4 50E0      		ldi r21,hi8(10)
 11586 48e6 0E94 0000 		call itoa
 11587               	.LM1539:
 11588 48ea 1092 0000 		sts statusMsg,__zero_reg__
 11589               	.LM1540:
 11590 48ee 80E0      		ldi r24,lo8(statusMsg)
 11591 48f0 90E0      		ldi r25,hi8(statusMsg)
 11592 48f2 60E0      		ldi r22,lo8(.LC69)
 11593 48f4 70E0      		ldi r23,hi8(.LC69)
 11594 48f6 0E94 0000 		call strcat
 11595               	.LM1541:
 11596 48fa 80E0      		ldi r24,lo8(statusMsg)
 11597 48fc 90E0      		ldi r25,hi8(statusMsg)
 11598 48fe 60E0      		ldi r22,lo8(tempIntString)
 11599 4900 70E0      		ldi r23,hi8(tempIntString)
 11600 4902 0E94 0000 		call strcat
 11601               	.LM1542:
 11602 4906 80E0      		ldi r24,lo8(statusMsg)
 11603 4908 90E0      		ldi r25,hi8(statusMsg)
 11604 490a 60E0      		ldi r22,lo8(.LC70)
 11605 490c 70E0      		ldi r23,hi8(.LC70)
 11606 490e 0E94 0000 		call strcat
 11607               	.LM1543:
 11608 4912 8091 0000 		lds r24,bright
 11609 4916 9091 0000 		lds r25,(bright)+1
 11610 491a 60E0      		ldi r22,lo8(tempIntString)
 11611 491c 70E0      		ldi r23,hi8(tempIntString)
 11612 491e 4AE0      		ldi r20,lo8(10)
 11613 4920 50E0      		ldi r21,hi8(10)
 11614 4922 0E94 0000 		call itoa
 11615               	.LM1544:
 11616 4926 80E0      		ldi r24,lo8(statusMsg)
 11617 4928 90E0      		ldi r25,hi8(statusMsg)
 11618 492a 60E0      		ldi r22,lo8(tempIntString)
 11619 492c 70E0      		ldi r23,hi8(tempIntString)
 11620 492e 0E94 0000 		call strcat
 11621               	.LM1545:
 11622 4932 80E0      		ldi r24,lo8(statusMsg)
 11623 4934 90E0      		ldi r25,hi8(statusMsg)
 11624 4936 0E94 0000 		call sendMessage
 11625 493a 0895      		ret
 11626               	.LVL686:
 11627               	.L635:
 11628 493c AC01      		movw r20,r24
 11629 493e 8131      		cpi r24,17
 11630 4940 9105      		cpc r25,__zero_reg__
 11631 4942 04F0      		brlt .L637
 11632 4944 40E1      		ldi r20,lo8(16)
 11633 4946 50E0      		ldi r21,hi8(16)
 11634               	.LVL687:
 11635               	.L637:
 11636               	.LM1546:
 11637 4948 8091 0000 		lds r24,oldBright
 11638 494c 90E0      		ldi r25,lo8(0)
 11639 494e 2091 0000 		lds r18,bright
 11640 4952 3091 0000 		lds r19,(bright)+1
 11641 4956 8217      		cp r24,r18
 11642 4958 9307      		cpc r25,r19
 11643 495a 01F4      		brne .L638
 11644               	.LM1547:
 11645 495c 5093 0000 		sts (bright)+1,r21
 11646 4960 4093 0000 		sts bright,r20
 11647               	.L638:
 11648               	.LM1548:
 11649 4964 4093 0000 		sts oldBright,r20
 11650               	.LM1549:
 11651 4968 81E0      		ldi r24,lo8(1)
 11652 496a 8093 0000 		sts switchChanged,r24
 11653               	.LM1550:
 11654 496e 0E94 0000 		call ok
 11655               	.LVL688:
 11656 4972 0895      		ret
 11657               	.LFE27:
 11659               	.global	switchBrightness
 11661               	switchBrightness:
 11662               	.LFB17:
 11663               	.LM1551:
 11664               	.LVL689:
 11665 4974 FF92      		push r15
 11666 4976 0F93      		push r16
 11667 4978 1F93      		push r17
 11668 497a CF93      		push r28
 11669 497c DF93      		push r29
 11670               	/* prologue: function */
 11671               	/* frame size = 0 */
 11672 497e EC01      		movw r28,r24
 11673               	.LM1552:
 11674 4980 0E94 0000 		call getSwitchNumber
 11675               	.LVL690:
 11676 4984 8C01      		movw r16,r24
 11677               	.LVL691:
 11678               	.LM1553:
 11679 4986 8031      		cpi r24,16
 11680 4988 9105      		cpc r25,__zero_reg__
 11681 498a 04F0      		brlt .L641
 11682               	.LVL692:
 11683               	.LM1554:
 11684 498c 81E0      		ldi r24,lo8(1)
 11685 498e 90E0      		ldi r25,hi8(1)
 11686               	.LVL693:
 11687 4990 0E94 0000 		call fail
 11688 4994 00C0      		rjmp .L645
 11689               	.LVL694:
 11690               	.L641:
 11691               	.LM1555:
 11692 4996 8D81      		ldd r24,Y+5
 11693               	.LVL695:
 11694 4998 8093 0000 		sts tempIntString,r24
 11695               	.LM1556:
 11696 499c 8E81      		ldd r24,Y+6
 11697 499e 8093 0000 		sts tempIntString+1,r24
 11698               	.LM1557:
 11699 49a2 80E0      		ldi r24,lo8(tempIntString)
 11700 49a4 90E0      		ldi r25,hi8(tempIntString)
 11701 49a6 0E94 0000 		call atoi
 11702 49aa F82E      		mov r15,r24
 11703 49ac E801      		movw r28,r16
 11704               	.LVL696:
 11705 49ae C050      		subi r28,lo8(-(switchBright))
 11706 49b0 D040      		sbci r29,hi8(-(switchBright))
 11707               	.LM1558:
 11708 49b2 8823      		tst r24
 11709 49b4 01F4      		brne .L643
 11710               	.LM1559:
 11711 49b6 8881      		ld r24,Y
 11712 49b8 90E0      		ldi r25,lo8(0)
 11713 49ba 60E0      		ldi r22,lo8(tempIntString)
 11714 49bc 70E0      		ldi r23,hi8(tempIntString)
 11715 49be 4AE0      		ldi r20,lo8(10)
 11716 49c0 50E0      		ldi r21,hi8(10)
 11717 49c2 0E94 0000 		call itoa
 11718               	.LM1560:
 11719 49c6 1092 0000 		sts statusMsg,__zero_reg__
 11720               	.LM1561:
 11721 49ca 80E0      		ldi r24,lo8(statusMsg)
 11722 49cc 90E0      		ldi r25,hi8(statusMsg)
 11723 49ce 60E0      		ldi r22,lo8(.LC69)
 11724 49d0 70E0      		ldi r23,hi8(.LC69)
 11725 49d2 0E94 0000 		call strcat
 11726               	.LM1562:
 11727 49d6 80E0      		ldi r24,lo8(statusMsg)
 11728 49d8 90E0      		ldi r25,hi8(statusMsg)
 11729 49da 60E0      		ldi r22,lo8(tempIntString)
 11730 49dc 70E0      		ldi r23,hi8(tempIntString)
 11731 49de 0E94 0000 		call strcat
 11732               	.LM1563:
 11733 49e2 80E0      		ldi r24,lo8(statusMsg)
 11734 49e4 90E0      		ldi r25,hi8(statusMsg)
 11735 49e6 0E94 0000 		call sendMessage
 11736 49ea 00C0      		rjmp .L645
 11737               	.L643:
 11738               	.LM1564:
 11739 49ec C801      		movw r24,r16
 11740 49ee 0E94 0000 		call clearTheSwitch
 11741               	.LM1565:
 11742 49f2 0050      		subi r16,lo8(-(switchStuff))
 11743 49f4 1040      		sbci r17,hi8(-(switchStuff))
 11744 49f6 84ED      		ldi r24,lo8(-44)
 11745 49f8 F801      		movw r30,r16
 11746 49fa 8083      		st Z,r24
 11747               	.LM1566:
 11748 49fc 8F2D      		mov r24,r15
 11749               	.LVL697:
 11750 49fe 8131      		cpi r24,lo8(17)
 11751 4a00 00F0      		brlo .L644
 11752 4a02 80E1      		ldi r24,lo8(16)
 11753               	.L644:
 11754 4a04 8883      		st Y,r24
 11755               	.LM1567:
 11756 4a06 0E94 0000 		call ok
 11757               	.LVL698:
 11758               	.L645:
 11759               	/* epilogue start */
 11760               	.LM1568:
 11761 4a0a DF91      		pop r29
 11762 4a0c CF91      		pop r28
 11763               	.LVL699:
 11764 4a0e 1F91      		pop r17
 11765 4a10 0F91      		pop r16
 11766               	.LVL700:
 11767 4a12 FF90      		pop r15
 11768 4a14 0895      		ret
 11769               	.LFE17:
 11771               		.data
 11772               	.LC71:
 11773 0172 436F 4300 		.string	"CoC"
 11774               	.LC72:
 11775 0176 4272 7400 		.string	"Brt"
 11776               	.LC73:
 11777 017a 4669 7800 		.string	"Fix"
 11778               	.LC74:
 11779 017e 4875 6500 		.string	"Hue"
 11780               	.LC75:
 11781 0182 4C00      		.string	"L"
 11782               	.LC76:
 11783 0184 4800      		.string	"H"
 11784               		.text
 11785               	.global	switchDisplay
 11787               	switchDisplay:
 11788               	.LFB14:
 11789               	.LM1569:
 11790               	.LVL701:
 11791 4a16 0F93      		push r16
 11792 4a18 1F93      		push r17
 11793 4a1a DF93      		push r29
 11794 4a1c CF93      		push r28
 11795 4a1e CDB7      		in r28,__SP_L__
 11796 4a20 DEB7      		in r29,__SP_H__
 11797 4a22 A397      		sbiw r28,35
 11798 4a24 0FB6      		in __tmp_reg__,__SREG__
 11799 4a26 F894      		cli
 11800 4a28 DEBF      		out __SP_H__,r29
 11801 4a2a 0FBE      		out __SREG__,__tmp_reg__
 11802 4a2c CDBF      		out __SP_L__,r28
 11803               	/* prologue: function */
 11804               	/* frame size = 35 */
 11805               	.LM1570:
 11806 4a2e 1982      		std Y+1,__zero_reg__
 11807               	.LM1571:
 11808 4a30 1A82      		std Y+2,__zero_reg__
 11809               	.LM1572:
 11810 4a32 1B82      		std Y+3,__zero_reg__
 11811               	.LM1573:
 11812 4a34 0E94 0000 		call getSwitchNumber
 11813               	.LVL702:
 11814 4a38 9C01      		movw r18,r24
 11815               	.LVL703:
 11816               	.LM1574:
 11817 4a3a 1C82      		std Y+4,__zero_reg__
 11818               	.LM1575:
 11819 4a3c FC01      		movw r30,r24
 11820 4a3e E050      		subi r30,lo8(-(switchStuff))
 11821 4a40 F040      		sbci r31,hi8(-(switchStuff))
 11822 4a42 E081      		ld r30,Z
 11823 4a44 8E2F      		mov r24,r30
 11824 4a46 885C      		subi r24,lo8(-(56))
 11825 4a48 8531      		cpi r24,lo8(21)
 11826 4a4a 00F4      		brsh .L647
 11827               	.LM1576:
 11828 4a4c E0FD      		sbrc r30,0
 11829 4a4e 00C0      		rjmp .L648
 11830               	.LM1577:
 11831 4a50 EA3C      		cpi r30,lo8(-54)
 11832 4a52 01F4      		brne .L649
 11833               	.LM1578:
 11834 4a54 CE01      		movw r24,r28
 11835 4a56 0496      		adiw r24,4
 11836 4a58 60E0      		ldi r22,lo8(.LC71)
 11837 4a5a 70E0      		ldi r23,hi8(.LC71)
 11838 4a5c 00C0      		rjmp .L654
 11839               	.L649:
 11840 4a5e CE01      		movw r24,r28
 11841 4a60 0496      		adiw r24,4
 11842               	.LM1579:
 11843 4a62 E43D      		cpi r30,lo8(-44)
 11844 4a64 01F4      		brne .L651
 11845               	.LM1580:
 11846 4a66 60E0      		ldi r22,lo8(.LC72)
 11847 4a68 70E0      		ldi r23,hi8(.LC72)
 11848 4a6a 00C0      		rjmp .L654
 11849               	.L651:
 11850               	.LM1581:
 11851 4a6c 60E0      		ldi r22,lo8(.LC73)
 11852 4a6e 70E0      		ldi r23,hi8(.LC73)
 11853 4a70 00C0      		rjmp .L654
 11854               	.L648:
 11855               	.LM1582:
 11856 4a72 CE01      		movw r24,r28
 11857 4a74 0496      		adiw r24,4
 11858 4a76 60E0      		ldi r22,lo8(.LC74)
 11859 4a78 70E0      		ldi r23,hi8(.LC74)
 11860 4a7a 00C0      		rjmp .L654
 11861               	.L647:
 11862               	.LM1583:
 11863 4a7c C901      		movw r24,r18
 11864 4a7e BE01      		movw r22,r28
 11865 4a80 6F5F      		subi r22,lo8(-(1))
 11866 4a82 7F4F      		sbci r23,hi8(-(1))
 11867 4a84 AE01      		movw r20,r28
 11868 4a86 4E5F      		subi r20,lo8(-(2))
 11869 4a88 5F4F      		sbci r21,hi8(-(2))
 11870 4a8a 9E01      		movw r18,r28
 11871               	.LVL704:
 11872 4a8c 2D5F      		subi r18,lo8(-(3))
 11873 4a8e 3F4F      		sbci r19,hi8(-(3))
 11874 4a90 0E94 0000 		call getPort
 11875               	.LM1584:
 11876 4a94 8981      		ldd r24,Y+1
 11877 4a96 8093 0000 		sts tempIntString,r24
 11878               	.LM1585:
 11879 4a9a 1092 0000 		sts tempIntString+1,__zero_reg__
 11880               	.LM1586:
 11881 4a9e 8E01      		movw r16,r28
 11882 4aa0 0C5F      		subi r16,lo8(-(4))
 11883 4aa2 1F4F      		sbci r17,hi8(-(4))
 11884 4aa4 C801      		movw r24,r16
 11885 4aa6 60E0      		ldi r22,lo8(tempIntString)
 11886 4aa8 70E0      		ldi r23,hi8(tempIntString)
 11887 4aaa 0E94 0000 		call strcat
 11888               	.LM1587:
 11889 4aae 8A81      		ldd r24,Y+2
 11890 4ab0 90E0      		ldi r25,lo8(0)
 11891 4ab2 60E0      		ldi r22,lo8(tempIntString)
 11892 4ab4 70E0      		ldi r23,hi8(tempIntString)
 11893 4ab6 4AE0      		ldi r20,lo8(10)
 11894 4ab8 50E0      		ldi r21,hi8(10)
 11895 4aba 0E94 0000 		call itoa
 11896               	.LM1588:
 11897 4abe C801      		movw r24,r16
 11898 4ac0 60E0      		ldi r22,lo8(tempIntString)
 11899 4ac2 70E0      		ldi r23,hi8(tempIntString)
 11900 4ac4 0E94 0000 		call strcat
 11901               	.LM1589:
 11902 4ac8 8B81      		ldd r24,Y+3
 11903 4aca 8823      		tst r24
 11904 4acc 01F4      		brne .L652
 11905               	.LM1590:
 11906 4ace C801      		movw r24,r16
 11907 4ad0 60E0      		ldi r22,lo8(.LC75)
 11908 4ad2 70E0      		ldi r23,hi8(.LC75)
 11909 4ad4 00C0      		rjmp .L654
 11910               	.L652:
 11911               	.LM1591:
 11912 4ad6 C801      		movw r24,r16
 11913 4ad8 60E0      		ldi r22,lo8(.LC76)
 11914 4ada 70E0      		ldi r23,hi8(.LC76)
 11915               	.LVL705:
 11916               	.L654:
 11917 4adc 0E94 0000 		call strcat
 11918               	.LVL706:
 11919               	.LM1592:
 11920 4ae0 CE01      		movw r24,r28
 11921 4ae2 0496      		adiw r24,4
 11922 4ae4 0E94 0000 		call sendMessage
 11923               	/* epilogue start */
 11924               	.LM1593:
 11925 4ae8 A396      		adiw r28,35
 11926 4aea 0FB6      		in __tmp_reg__,__SREG__
 11927 4aec F894      		cli
 11928 4aee DEBF      		out __SP_H__,r29
 11929 4af0 0FBE      		out __SREG__,__tmp_reg__
 11930 4af2 CDBF      		out __SP_L__,r28
 11931 4af4 CF91      		pop r28
 11932 4af6 DF91      		pop r29
 11933 4af8 1F91      		pop r17
 11934 4afa 0F91      		pop r16
 11935 4afc 0895      		ret
 11936               	.LFE14:
 11938               	.global	clearEEPROM
 11940               	clearEEPROM:
 11941               	.LFB44:
 11942               	.LM1594:
 11943               	.LVL707:
 11944               	/* prologue: function */
 11945               	/* frame size = 0 */
 11946               	.LM1595:
 11947 4afe 60E0      		ldi r22,lo8(0)
 11948 4b00 70E0      		ldi r23,hi8(0)
 11949 4b02 0E94 0000 		call __eeupd_word_m328
 11950               	.LVL708:
 11951               	/* epilogue start */
 11952               	.LM1596:
 11953 4b06 0895      		ret
 11954               	.LFE44:
 11956               	.global	clearToEEPROM
 11958               	clearToEEPROM:
 11959               	.LFB48:
 11960               	.LM1597:
 11961 4b08 CF93      		push r28
 11962 4b0a DF93      		push r29
 11963               	/* prologue: function */
 11964               	/* frame size = 0 */
 11965               	.LBB129:
 11966               	.LBB130:
 11967               	.LM1598:
 11968 4b0c 86E0      		ldi r24,lo8(6)
 11969 4b0e 90E0      		ldi r25,hi8(6)
 11970 4b10 60E0      		ldi r22,lo8(0)
 11971 4b12 70E0      		ldi r23,hi8(0)
 11972 4b14 0E94 0000 		call __eeupd_word_m328
 11973               	.LBE130:
 11974               	.LBE129:
 11975               	.LBB131:
 11976               	.LBB132:
 11977 4b18 8EE0      		ldi r24,lo8(14)
 11978 4b1a 90E0      		ldi r25,hi8(14)
 11979 4b1c 60E0      		ldi r22,lo8(0)
 11980 4b1e 70E0      		ldi r23,hi8(0)
 11981 4b20 0E94 0000 		call __eeupd_word_m328
 11982               	.LBE132:
 11983               	.LBE131:
 11984               	.LBB133:
 11985               	.LBB134:
 11986 4b24 85E1      		ldi r24,lo8(21)
 11987 4b26 90E0      		ldi r25,hi8(21)
 11988 4b28 60E0      		ldi r22,lo8(0)
 11989 4b2a 70E0      		ldi r23,hi8(0)
 11990 4b2c 0E94 0000 		call __eeupd_word_m328
 11991               	.LBE134:
 11992               	.LBE133:
 11993               	.LBB135:
 11994               	.LBB136:
 11995 4b30 8CE1      		ldi r24,lo8(28)
 11996 4b32 90E0      		ldi r25,hi8(28)
 11997 4b34 60E0      		ldi r22,lo8(0)
 11998 4b36 70E0      		ldi r23,hi8(0)
 11999 4b38 0E94 0000 		call __eeupd_word_m328
 12000               	.LBE136:
 12001               	.LBE135:
 12002               	.LBB137:
 12003               	.LBB138:
 12004 4b3c 83E2      		ldi r24,lo8(35)
 12005 4b3e 90E0      		ldi r25,hi8(35)
 12006 4b40 60E0      		ldi r22,lo8(0)
 12007 4b42 70E0      		ldi r23,hi8(0)
 12008 4b44 0E94 0000 		call __eeupd_word_m328
 12009               	.LBE138:
 12010               	.LBE137:
 12011               	.LBB139:
 12012               	.LBB140:
 12013 4b48 86E2      		ldi r24,lo8(38)
 12014 4b4a 90E0      		ldi r25,hi8(38)
 12015 4b4c 60E0      		ldi r22,lo8(0)
 12016 4b4e 70E0      		ldi r23,hi8(0)
 12017 4b50 0E94 0000 		call __eeupd_word_m328
 12018               	.LBE140:
 12019               	.LBE139:
 12020               	.LBB141:
 12021               	.LBB142:
 12022 4b54 89E2      		ldi r24,lo8(41)
 12023 4b56 90E0      		ldi r25,hi8(41)
 12024 4b58 60E0      		ldi r22,lo8(0)
 12025 4b5a 70E0      		ldi r23,hi8(0)
 12026 4b5c 0E94 0000 		call __eeupd_word_m328
 12027               	.LBE142:
 12028               	.LBE141:
 12029               	.LBB143:
 12030               	.LBB144:
 12031 4b60 8CE2      		ldi r24,lo8(44)
 12032 4b62 90E0      		ldi r25,hi8(44)
 12033 4b64 60E0      		ldi r22,lo8(0)
 12034 4b66 70E0      		ldi r23,hi8(0)
 12035 4b68 0E94 0000 		call __eeupd_word_m328
 12036               	.LBE144:
 12037               	.LBE143:
 12038               	.LBB145:
 12039               	.LBB146:
 12040 4b6c 80E3      		ldi r24,lo8(48)
 12041 4b6e 90E0      		ldi r25,hi8(48)
 12042 4b70 60E0      		ldi r22,lo8(0)
 12043 4b72 70E0      		ldi r23,hi8(0)
 12044 4b74 0E94 0000 		call __eeupd_word_m328
 12045               	.LBE146:
 12046               	.LBE145:
 12047               	.LBB147:
 12048               	.LBB148:
 12049 4b78 85E9      		ldi r24,lo8(405)
 12050 4b7a 91E0      		ldi r25,hi8(405)
 12051 4b7c 60E0      		ldi r22,lo8(0)
 12052 4b7e 70E0      		ldi r23,hi8(0)
 12053 4b80 0E94 0000 		call __eeupd_word_m328
 12054               	.LBE148:
 12055               	.LBE147:
 12056               	.LBB149:
 12057               	.LBB150:
 12058 4b84 88E9      		ldi r24,lo8(408)
 12059 4b86 91E0      		ldi r25,hi8(408)
 12060 4b88 60E0      		ldi r22,lo8(0)
 12061 4b8a 70E0      		ldi r23,hi8(0)
 12062 4b8c 0E94 0000 		call __eeupd_word_m328
 12063               	.LBE150:
 12064               	.LBE149:
 12065               	.LBB151:
 12066               	.LBB152:
 12067 4b90 82E4      		ldi r24,lo8(66)
 12068 4b92 90E0      		ldi r25,hi8(66)
 12069 4b94 60E0      		ldi r22,lo8(0)
 12070 4b96 70E0      		ldi r23,hi8(0)
 12071 4b98 0E94 0000 		call __eeupd_word_m328
 12072 4b9c 8CE4      		ldi r24,lo8(76)
 12073 4b9e 90E0      		ldi r25,hi8(76)
 12074 4ba0 60E0      		ldi r22,lo8(0)
 12075 4ba2 70E0      		ldi r23,hi8(0)
 12076 4ba4 0E94 0000 		call __eeupd_word_m328
 12077 4ba8 86E5      		ldi r24,lo8(86)
 12078 4baa 90E0      		ldi r25,hi8(86)
 12079 4bac 60E0      		ldi r22,lo8(0)
 12080 4bae 70E0      		ldi r23,hi8(0)
 12081 4bb0 0E94 0000 		call __eeupd_word_m328
 12082 4bb4 80E6      		ldi r24,lo8(96)
 12083 4bb6 90E0      		ldi r25,hi8(96)
 12084 4bb8 60E0      		ldi r22,lo8(0)
 12085 4bba 70E0      		ldi r23,hi8(0)
 12086 4bbc 0E94 0000 		call __eeupd_word_m328
 12087               	.LBE152:
 12088               	.LBE151:
 12089               	.LBB153:
 12090               	.LBB154:
 12091 4bc0 8AE6      		ldi r24,lo8(106)
 12092 4bc2 90E0      		ldi r25,hi8(106)
 12093 4bc4 60E0      		ldi r22,lo8(0)
 12094 4bc6 70E0      		ldi r23,hi8(0)
 12095 4bc8 0E94 0000 		call __eeupd_word_m328
 12096 4bcc 8FE6      		ldi r24,lo8(111)
 12097 4bce 90E0      		ldi r25,hi8(111)
 12098 4bd0 60E0      		ldi r22,lo8(0)
 12099 4bd2 70E0      		ldi r23,hi8(0)
 12100 4bd4 0E94 0000 		call __eeupd_word_m328
 12101 4bd8 84E7      		ldi r24,lo8(116)
 12102 4bda 90E0      		ldi r25,hi8(116)
 12103 4bdc 60E0      		ldi r22,lo8(0)
 12104 4bde 70E0      		ldi r23,hi8(0)
 12105 4be0 0E94 0000 		call __eeupd_word_m328
 12106 4be4 89E7      		ldi r24,lo8(121)
 12107 4be6 90E0      		ldi r25,hi8(121)
 12108 4be8 60E0      		ldi r22,lo8(0)
 12109 4bea 70E0      		ldi r23,hi8(0)
 12110 4bec 0E94 0000 		call __eeupd_word_m328
 12111               	.LBE154:
 12112               	.LBE153:
 12113               	.LBB155:
 12114               	.LBB156:
 12115 4bf0 8EE7      		ldi r24,lo8(126)
 12116 4bf2 90E0      		ldi r25,hi8(126)
 12117 4bf4 60E0      		ldi r22,lo8(0)
 12118 4bf6 70E0      		ldi r23,hi8(0)
 12119 4bf8 0E94 0000 		call __eeupd_word_m328
 12120 4bfc C3E8      		ldi r28,lo8(131)
 12121 4bfe D0E0      		ldi r29,hi8(131)
 12122               	.L658:
 12123               	.LBE156:
 12124               	.LBE155:
 12125               	.LBB157:
 12126               	.LBB158:
 12127 4c00 CE01      		movw r24,r28
 12128 4c02 60E0      		ldi r22,lo8(0)
 12129 4c04 70E0      		ldi r23,hi8(0)
 12130 4c06 0E94 0000 		call __eeupd_word_m328
 12131 4c0a 2596      		adiw r28,5
 12132               	.LBE158:
 12133               	.LBE157:
 12134               	.LM1599:
 12135 4c0c C13A      		cpi r28,161
 12136 4c0e D105      		cpc r29,__zero_reg__
 12137 4c10 01F4      		brne .L658
 12138 4c12 C1EA      		ldi r28,lo8(161)
 12139 4c14 D0E0      		ldi r29,hi8(161)
 12140               	.L659:
 12141               	.LBB159:
 12142               	.LBB160:
 12143               	.LM1600:
 12144 4c16 CE01      		movw r24,r28
 12145 4c18 60E0      		ldi r22,lo8(0)
 12146 4c1a 70E0      		ldi r23,hi8(0)
 12147 4c1c 0E94 0000 		call __eeupd_word_m328
 12148 4c20 2C96      		adiw r28,12
 12149               	.LBE160:
 12150               	.LBE159:
 12151               	.LM1601:
 12152 4c22 81E0      		ldi r24,hi8(401)
 12153 4c24 C139      		cpi r28,lo8(401)
 12154 4c26 D807      		cpc r29,r24
 12155 4c28 01F4      		brne .L659
 12156               	.LBB161:
 12157               	.LBB162:
 12158               	.LM1602:
 12159 4c2a 81E9      		ldi r24,lo8(401)
 12160 4c2c 91E0      		ldi r25,hi8(401)
 12161 4c2e 60E0      		ldi r22,lo8(0)
 12162 4c30 70E0      		ldi r23,hi8(0)
 12163 4c32 0E94 0000 		call __eeupd_word_m328
 12164               	.LBE162:
 12165               	.LBE161:
 12166               	.LM1603:
 12167 4c36 0E94 0000 		call ok
 12168               	/* epilogue start */
 12169               	.LM1604:
 12170 4c3a DF91      		pop r29
 12171 4c3c CF91      		pop r28
 12172 4c3e 0895      		ret
 12173               	.LFE48:
 12175               	.global	writeEEPROM
 12177               	writeEEPROM:
 12178               	.LFB43:
 12179               	.LM1605:
 12180               	.LVL709:
 12181 4c40 0F93      		push r16
 12182 4c42 1F93      		push r17
 12183               	/* prologue: function */
 12184               	/* frame size = 0 */
 12185 4c44 8B01      		movw r16,r22
 12186               	.LM1606:
 12187 4c46 6E5F      		subi r22,lo8(-(2))
 12188 4c48 7F4F      		sbci r23,hi8(-(2))
 12189               	.LVL710:
 12190 4c4a 4250      		subi r20,lo8(-(-2))
 12191 4c4c 5040      		sbci r21,hi8(-(-2))
 12192               	.LVL711:
 12193 4c4e 0E94 0000 		call __eeupd_block_m328
 12194               	.LVL712:
 12195               	.LM1607:
 12196 4c52 C801      		movw r24,r16
 12197 4c54 67E5      		ldi r22,lo8(17495)
 12198 4c56 74E4      		ldi r23,hi8(17495)
 12199 4c58 0E94 0000 		call __eeupd_word_m328
 12200               	/* epilogue start */
 12201               	.LM1608:
 12202 4c5c 1F91      		pop r17
 12203 4c5e 0F91      		pop r16
 12204               	.LVL713:
 12205 4c60 0895      		ret
 12206               	.LFE43:
 12208               	.global	saveToEEPROM
 12210               	saveToEEPROM:
 12211               	.LFB45:
 12212               	.LM1609:
 12213 4c62 8F92      		push r8
 12214 4c64 9F92      		push r9
 12215 4c66 AF92      		push r10
 12216 4c68 BF92      		push r11
 12217 4c6a CF92      		push r12
 12218 4c6c DF92      		push r13
 12219 4c6e EF92      		push r14
 12220 4c70 FF92      		push r15
 12221 4c72 0F93      		push r16
 12222 4c74 1F93      		push r17
 12223 4c76 DF93      		push r29
 12224 4c78 CF93      		push r28
 12225 4c7a CDB7      		in r28,__SP_L__
 12226 4c7c DEB7      		in r29,__SP_H__
 12227 4c7e 2E97      		sbiw r28,14
 12228 4c80 0FB6      		in __tmp_reg__,__SREG__
 12229 4c82 F894      		cli
 12230 4c84 DEBF      		out __SP_H__,r29
 12231 4c86 0FBE      		out __SREG__,__tmp_reg__
 12232 4c88 CDBF      		out __SP_L__,r28
 12233               	/* prologue: function */
 12234               	/* frame size = 14 */
 12235               	.LM1610:
 12236 4c8a 2091 0000 		lds r18,tx_addr
 12237 4c8e 3091 0000 		lds r19,tx_addr+1
 12238 4c92 4091 0000 		lds r20,tx_addr+2
 12239 4c96 5091 0000 		lds r21,tx_addr+3
 12240 4c9a 6091 0000 		lds r22,tx_addr+4
 12241 4c9e 7091 0000 		lds r23,tx_addr+5
 12242 4ca2 E091 0000 		lds r30,tx_addr+6
 12243 4ca6 9091 0000 		lds r25,tx_addr+7
 12244 4caa 822F      		mov r24,r18
 12245 4cac 832B      		or r24,r19
 12246 4cae 842B      		or r24,r20
 12247 4cb0 852B      		or r24,r21
 12248 4cb2 862B      		or r24,r22
 12249 4cb4 872B      		or r24,r23
 12250 4cb6 8E2B      		or r24,r30
 12251 4cb8 892B      		or r24,r25
 12252 4cba 01F0      		breq .L666
 12253               	.LM1611:
 12254 4cbc 8E2F      		mov r24,r30
 12255 4cbe 7E01      		movw r14,r28
 12256 4cc0 0894      		sec
 12257 4cc2 E11C      		adc r14,__zero_reg__
 12258 4cc4 F11C      		adc r15,__zero_reg__
 12259 4cc6 8701      		movw r16,r14
 12260 4cc8 0E94 0000 		call unformatAddress
 12261               	.LM1612:
 12262 4ccc C701      		movw r24,r14
 12263 4cce 6EE0      		ldi r22,lo8(14)
 12264 4cd0 70E0      		ldi r23,hi8(14)
 12265 4cd2 47E0      		ldi r20,lo8(7)
 12266 4cd4 50E0      		ldi r21,hi8(7)
 12267 4cd6 0E94 0000 		call writeEEPROM
 12268               	.L666:
 12269               	.LM1613:
 12270 4cda 2091 0000 		lds r18,rx_addr_p0
 12271 4cde 3091 0000 		lds r19,rx_addr_p0+1
 12272 4ce2 4091 0000 		lds r20,rx_addr_p0+2
 12273 4ce6 5091 0000 		lds r21,rx_addr_p0+3
 12274 4cea 6091 0000 		lds r22,rx_addr_p0+4
 12275 4cee 7091 0000 		lds r23,rx_addr_p0+5
 12276 4cf2 E091 0000 		lds r30,rx_addr_p0+6
 12277 4cf6 9091 0000 		lds r25,rx_addr_p0+7
 12278 4cfa 822F      		mov r24,r18
 12279 4cfc 832B      		or r24,r19
 12280 4cfe 842B      		or r24,r20
 12281 4d00 852B      		or r24,r21
 12282 4d02 862B      		or r24,r22
 12283 4d04 872B      		or r24,r23
 12284 4d06 8E2B      		or r24,r30
 12285 4d08 892B      		or r24,r25
 12286 4d0a 01F0      		breq .L667
 12287               	.LM1614:
 12288 4d0c 8E2F      		mov r24,r30
 12289 4d0e 7E01      		movw r14,r28
 12290 4d10 0894      		sec
 12291 4d12 E11C      		adc r14,__zero_reg__
 12292 4d14 F11C      		adc r15,__zero_reg__
 12293 4d16 8701      		movw r16,r14
 12294 4d18 0E94 0000 		call unformatAddress
 12295               	.LM1615:
 12296 4d1c C701      		movw r24,r14
 12297 4d1e 65E1      		ldi r22,lo8(21)
 12298 4d20 70E0      		ldi r23,hi8(21)
 12299 4d22 47E0      		ldi r20,lo8(7)
 12300 4d24 50E0      		ldi r21,hi8(7)
 12301 4d26 0E94 0000 		call writeEEPROM
 12302               	.L667:
 12303               	.LM1616:
 12304 4d2a 2091 0000 		lds r18,rx_addr_p1
 12305 4d2e 3091 0000 		lds r19,rx_addr_p1+1
 12306 4d32 4091 0000 		lds r20,rx_addr_p1+2
 12307 4d36 5091 0000 		lds r21,rx_addr_p1+3
 12308 4d3a 6091 0000 		lds r22,rx_addr_p1+4
 12309 4d3e 7091 0000 		lds r23,rx_addr_p1+5
 12310 4d42 E091 0000 		lds r30,rx_addr_p1+6
 12311 4d46 9091 0000 		lds r25,rx_addr_p1+7
 12312 4d4a 822F      		mov r24,r18
 12313 4d4c 832B      		or r24,r19
 12314 4d4e 842B      		or r24,r20
 12315 4d50 852B      		or r24,r21
 12316 4d52 862B      		or r24,r22
 12317 4d54 872B      		or r24,r23
 12318 4d56 8E2B      		or r24,r30
 12319 4d58 892B      		or r24,r25
 12320 4d5a 01F0      		breq .L668
 12321               	.LM1617:
 12322 4d5c 8E2F      		mov r24,r30
 12323 4d5e 7E01      		movw r14,r28
 12324 4d60 0894      		sec
 12325 4d62 E11C      		adc r14,__zero_reg__
 12326 4d64 F11C      		adc r15,__zero_reg__
 12327 4d66 8701      		movw r16,r14
 12328 4d68 0E94 0000 		call unformatAddress
 12329               	.LM1618:
 12330 4d6c C701      		movw r24,r14
 12331 4d6e 6CE1      		ldi r22,lo8(28)
 12332 4d70 70E0      		ldi r23,hi8(28)
 12333 4d72 47E0      		ldi r20,lo8(7)
 12334 4d74 50E0      		ldi r21,hi8(7)
 12335 4d76 0E94 0000 		call writeEEPROM
 12336               	.L668:
 12337               	.LM1619:
 12338 4d7a 7091 0000 		lds r23,rx_addr_p2
 12339 4d7e 8091 0000 		lds r24,rx_addr_p2+1
 12340 4d82 9091 0000 		lds r25,rx_addr_p2+2
 12341 4d86 2091 0000 		lds r18,rx_addr_p2+3
 12342 4d8a 3091 0000 		lds r19,rx_addr_p2+4
 12343 4d8e 4091 0000 		lds r20,rx_addr_p2+5
 12344 4d92 5091 0000 		lds r21,rx_addr_p2+6
 12345 4d96 6091 0000 		lds r22,rx_addr_p2+7
 12346 4d9a 872B      		or r24,r23
 12347 4d9c 892B      		or r24,r25
 12348 4d9e 822B      		or r24,r18
 12349 4da0 832B      		or r24,r19
 12350 4da2 842B      		or r24,r20
 12351 4da4 852B      		or r24,r21
 12352 4da6 862B      		or r24,r22
 12353 4da8 01F0      		breq .L669
 12354               	.LM1620:
 12355 4daa 7983      		std Y+1,r23
 12356               	.LM1621:
 12357 4dac CE01      		movw r24,r28
 12358 4dae 0196      		adiw r24,1
 12359 4db0 63E2      		ldi r22,lo8(35)
 12360 4db2 70E0      		ldi r23,hi8(35)
 12361 4db4 43E0      		ldi r20,lo8(3)
 12362 4db6 50E0      		ldi r21,hi8(3)
 12363 4db8 0E94 0000 		call writeEEPROM
 12364               	.L669:
 12365               	.LM1622:
 12366 4dbc 7091 0000 		lds r23,rx_addr_p3
 12367 4dc0 8091 0000 		lds r24,rx_addr_p3+1
 12368 4dc4 9091 0000 		lds r25,rx_addr_p3+2
 12369 4dc8 2091 0000 		lds r18,rx_addr_p3+3
 12370 4dcc 3091 0000 		lds r19,rx_addr_p3+4
 12371 4dd0 4091 0000 		lds r20,rx_addr_p3+5
 12372 4dd4 5091 0000 		lds r21,rx_addr_p3+6
 12373 4dd8 6091 0000 		lds r22,rx_addr_p3+7
 12374 4ddc 872B      		or r24,r23
 12375 4dde 892B      		or r24,r25
 12376 4de0 822B      		or r24,r18
 12377 4de2 832B      		or r24,r19
 12378 4de4 842B      		or r24,r20
 12379 4de6 852B      		or r24,r21
 12380 4de8 862B      		or r24,r22
 12381 4dea 01F0      		breq .L670
 12382               	.LM1623:
 12383 4dec 7983      		std Y+1,r23
 12384               	.LM1624:
 12385 4dee CE01      		movw r24,r28
 12386 4df0 0196      		adiw r24,1
 12387 4df2 66E2      		ldi r22,lo8(38)
 12388 4df4 70E0      		ldi r23,hi8(38)
 12389 4df6 43E0      		ldi r20,lo8(3)
 12390 4df8 50E0      		ldi r21,hi8(3)
 12391 4dfa 0E94 0000 		call writeEEPROM
 12392               	.L670:
 12393               	.LM1625:
 12394 4dfe 7091 0000 		lds r23,rx_addr_p4
 12395 4e02 8091 0000 		lds r24,rx_addr_p4+1
 12396 4e06 9091 0000 		lds r25,rx_addr_p4+2
 12397 4e0a 2091 0000 		lds r18,rx_addr_p4+3
 12398 4e0e 3091 0000 		lds r19,rx_addr_p4+4
 12399 4e12 4091 0000 		lds r20,rx_addr_p4+5
 12400 4e16 5091 0000 		lds r21,rx_addr_p4+6
 12401 4e1a 6091 0000 		lds r22,rx_addr_p4+7
 12402 4e1e 872B      		or r24,r23
 12403 4e20 892B      		or r24,r25
 12404 4e22 822B      		or r24,r18
 12405 4e24 832B      		or r24,r19
 12406 4e26 842B      		or r24,r20
 12407 4e28 852B      		or r24,r21
 12408 4e2a 862B      		or r24,r22
 12409 4e2c 01F0      		breq .L671
 12410               	.LM1626:
 12411 4e2e 7983      		std Y+1,r23
 12412               	.LM1627:
 12413 4e30 CE01      		movw r24,r28
 12414 4e32 0196      		adiw r24,1
 12415 4e34 69E2      		ldi r22,lo8(41)
 12416 4e36 70E0      		ldi r23,hi8(41)
 12417 4e38 43E0      		ldi r20,lo8(3)
 12418 4e3a 50E0      		ldi r21,hi8(3)
 12419 4e3c 0E94 0000 		call writeEEPROM
 12420               	.L671:
 12421               	.LM1628:
 12422 4e40 7091 0000 		lds r23,rx_addr_p5
 12423 4e44 8091 0000 		lds r24,rx_addr_p5+1
 12424 4e48 9091 0000 		lds r25,rx_addr_p5+2
 12425 4e4c 2091 0000 		lds r18,rx_addr_p5+3
 12426 4e50 3091 0000 		lds r19,rx_addr_p5+4
 12427 4e54 4091 0000 		lds r20,rx_addr_p5+5
 12428 4e58 5091 0000 		lds r21,rx_addr_p5+6
 12429 4e5c 6091 0000 		lds r22,rx_addr_p5+7
 12430 4e60 872B      		or r24,r23
 12431 4e62 892B      		or r24,r25
 12432 4e64 822B      		or r24,r18
 12433 4e66 832B      		or r24,r19
 12434 4e68 842B      		or r24,r20
 12435 4e6a 852B      		or r24,r21
 12436 4e6c 862B      		or r24,r22
 12437 4e6e 01F0      		breq .L672
 12438               	.LM1629:
 12439 4e70 7983      		std Y+1,r23
 12440               	.LM1630:
 12441 4e72 CE01      		movw r24,r28
 12442 4e74 0196      		adiw r24,1
 12443 4e76 6CE2      		ldi r22,lo8(44)
 12444 4e78 70E0      		ldi r23,hi8(44)
 12445 4e7a 43E0      		ldi r20,lo8(3)
 12446 4e7c 50E0      		ldi r21,hi8(3)
 12447 4e7e 0E94 0000 		call writeEEPROM
 12448               	.L672:
 12449               	.LM1631:
 12450 4e82 2091 0000 		lds r18,tweakTimer
 12451 4e86 3091 0000 		lds r19,(tweakTimer)+1
 12452 4e8a 4091 0000 		lds r20,(tweakTimer)+2
 12453 4e8e 5091 0000 		lds r21,(tweakTimer)+3
 12454 4e92 2115      		cp r18,__zero_reg__
 12455 4e94 3105      		cpc r19,__zero_reg__
 12456 4e96 4105      		cpc r20,__zero_reg__
 12457 4e98 5105      		cpc r21,__zero_reg__
 12458 4e9a 01F0      		breq .L673
 12459               	.LM1632:
 12460 4e9c BB27      		clr r27
 12461 4e9e 57FD      		sbrc r21,7
 12462 4ea0 BA95      		dec r27
 12463 4ea2 A52F      		mov r26,r21
 12464 4ea4 942F      		mov r25,r20
 12465 4ea6 832F      		mov r24,r19
 12466 4ea8 8983      		std Y+1,r24
 12467               	.LM1633:
 12468 4eaa 2A83      		std Y+2,r18
 12469               	.LM1634:
 12470 4eac CE01      		movw r24,r28
 12471 4eae 0196      		adiw r24,1
 12472 4eb0 61E9      		ldi r22,lo8(401)
 12473 4eb2 71E0      		ldi r23,hi8(401)
 12474 4eb4 44E0      		ldi r20,lo8(4)
 12475 4eb6 50E0      		ldi r21,hi8(4)
 12476 4eb8 0E94 0000 		call writeEEPROM
 12477               	.L673:
 12478               	.LM1635:
 12479 4ebc 8091 0000 		lds r24,daylightSavings
 12480 4ec0 9091 0000 		lds r25,(daylightSavings)+1
 12481 4ec4 0097      		sbiw r24,0
 12482 4ec6 01F0      		breq .L674
 12483               	.LM1636:
 12484 4ec8 9983      		std Y+1,r25
 12485               	.LM1637:
 12486 4eca 8A83      		std Y+2,r24
 12487               	.LM1638:
 12488 4ecc 9091 0000 		lds r25,daylightSavings+2
 12489 4ed0 8091 0000 		lds r24,daylightSavings+3
 12490 4ed4 8B83      		std Y+3,r24
 12491               	.LM1639:
 12492 4ed6 9C83      		std Y+4,r25
 12493               	.LM1640:
 12494 4ed8 9091 0000 		lds r25,daylightSavings+4
 12495 4edc 8091 0000 		lds r24,daylightSavings+5
 12496 4ee0 8D83      		std Y+5,r24
 12497               	.LM1641:
 12498 4ee2 9E83      		std Y+6,r25
 12499               	.LM1642:
 12500 4ee4 9091 0000 		lds r25,daylightSavings+6
 12501 4ee8 8091 0000 		lds r24,daylightSavings+7
 12502 4eec 8F83      		std Y+7,r24
 12503               	.LM1643:
 12504 4eee 9887      		std Y+8,r25
 12505               	.LM1644:
 12506 4ef0 CE01      		movw r24,r28
 12507 4ef2 0196      		adiw r24,1
 12508 4ef4 66E0      		ldi r22,lo8(6)
 12509 4ef6 70E0      		ldi r23,hi8(6)
 12510 4ef8 4AE0      		ldi r20,lo8(10)
 12511 4efa 50E0      		ldi r21,hi8(10)
 12512 4efc 0E94 0000 		call writeEEPROM
 12513               	.L674:
 12514 4f00 E0E0      		ldi r30,lo8(switchStuff)
 12515 4f02 F0E0      		ldi r31,hi8(switchStuff)
 12516 4f04 90E0      		ldi r25,lo8(0)
 12517               	.LVL714:
 12518 4f06 10E0      		ldi r17,lo8(0)
 12519               	.LVL715:
 12520               	.L677:
 12521               	.LM1645:
 12522 4f08 8081      		ld r24,Z
 12523 4f0a 8F3F      		cpi r24,lo8(-1)
 12524 4f0c 01F0      		breq .L675
 12525 4f0e 91E0      		ldi r25,lo8(1)
 12526               	.L675:
 12527               	.LM1646:
 12528 4f10 885C      		subi r24,lo8(-(56))
 12529 4f12 8F31      		cpi r24,lo8(31)
 12530 4f14 00F4      		brsh .L676
 12531 4f16 11E0      		ldi r17,lo8(1)
 12532               	.L676:
 12533 4f18 3196      		adiw r30,1
 12534               	.LM1647:
 12535 4f1a 80E0      		ldi r24,hi8(switchStuff+16)
 12536 4f1c E030      		cpi r30,lo8(switchStuff+16)
 12537 4f1e F807      		cpc r31,r24
 12538 4f20 01F4      		brne .L677
 12539               	.LM1648:
 12540 4f22 9130      		cpi r25,lo8(1)
 12541 4f24 01F4      		brne .L678
 12542               	.LM1649:
 12543 4f26 CF01      		movw r24,r30
 12544 4f28 4097      		sbiw r24,16
 12545 4f2a 60E3      		ldi r22,lo8(48)
 12546 4f2c 70E0      		ldi r23,hi8(48)
 12547 4f2e 42E1      		ldi r20,lo8(18)
 12548 4f30 50E0      		ldi r21,hi8(18)
 12549 4f32 0E94 0000 		call writeEEPROM
 12550               	.LVL716:
 12551               	.LM1650:
 12552 4f36 80E0      		ldi r24,lo8(switchBright)
 12553 4f38 90E0      		ldi r25,hi8(switchBright)
 12554 4f3a 68E9      		ldi r22,lo8(408)
 12555 4f3c 71E0      		ldi r23,hi8(408)
 12556 4f3e 42E1      		ldi r20,lo8(18)
 12557 4f40 50E0      		ldi r21,hi8(18)
 12558 4f42 0E94 0000 		call writeEEPROM
 12559               	.LVL717:
 12560               	.L678:
 12561               	.LM1651:
 12562 4f46 8091 0000 		lds r24,pwmdir
 12563 4f4a 8983      		std Y+1,r24
 12564               	.LM1652:
 12565 4f4c 1130      		cpi r17,lo8(1)
 12566 4f4e 01F4      		brne .L679
 12567               	.LM1653:
 12568 4f50 CE01      		movw r24,r28
 12569 4f52 0196      		adiw r24,1
 12570 4f54 65E9      		ldi r22,lo8(405)
 12571 4f56 71E0      		ldi r23,hi8(405)
 12572 4f58 43E0      		ldi r20,lo8(3)
 12573 4f5a 50E0      		ldi r21,hi8(3)
 12574 4f5c 0E94 0000 		call writeEEPROM
 12575               	.LVL718:
 12576               	.L679:
 12577 4f60 A0E0      		ldi r26,lo8(weeklyProgram)
 12578 4f62 EA2E      		mov r14,r26
 12579 4f64 A0E0      		ldi r26,hi8(weeklyProgram)
 12580 4f66 FA2E      		mov r15,r26
 12581 4f68 00E0      		ldi r16,lo8(0)
 12582 4f6a 10E0      		ldi r17,hi8(0)
 12583               	.LVL719:
 12584 4f6c F1EA      		ldi r31,lo8(161)
 12585 4f6e CF2E      		mov r12,r31
 12586 4f70 D12C      		mov r13,__zero_reg__
 12587               	.LM1654:
 12588 4f72 5E01      		movw r10,r28
 12589 4f74 0894      		sec
 12590 4f76 A11C      		adc r10,__zero_reg__
 12591 4f78 B11C      		adc r11,__zero_reg__
 12592               	.LM1655:
 12593 4f7a EBE0      		ldi r30,lo8(11)
 12594 4f7c 8E2E      		mov r8,r30
 12595 4f7e 912C      		mov r9,__zero_reg__
 12596 4f80 8C0E      		add r8,r28
 12597 4f82 9D1E      		adc r9,r29
 12598               	.L684:
 12599               	.LM1656:
 12600 4f84 F701      		movw r30,r14
 12601 4f86 8081      		ld r24,Z
 12602 4f88 8F3F      		cpi r24,lo8(-1)
 12603 4f8a 01F0      		breq .L680
 12604               	.L682:
 12605 4f8c D801      		movw r26,r16
 12606 4f8e AA0F      		lsl r26
 12607 4f90 BB1F      		rol r27
 12608 4f92 C801      		movw r24,r16
 12609 4f94 63E0      		ldi r22,3
 12610 4f96 880F      	1:	lsl r24
 12611 4f98 991F      		rol r25
 12612 4f9a 6A95      		dec r22
 12613 4f9c 01F4      		brne 1b
 12614 4f9e A80F      		add r26,r24
 12615 4fa0 B91F      		adc r27,r25
 12616 4fa2 A050      		subi r26,lo8(-(weeklyProgram))
 12617 4fa4 B040      		sbci r27,hi8(-(weeklyProgram))
 12618 4fa6 F501      		movw r30,r10
 12619 4fa8 00C0      		rjmp .L681
 12620               	.L680:
 12621 4faa F701      		movw r30,r14
 12622 4fac 8181      		ldd r24,Z+1
 12623 4fae 8F3F      		cpi r24,lo8(-1)
 12624 4fb0 01F4      		brne .L682
 12625 4fb2 00C0      		rjmp .L683
 12626               	.L681:
 12627               	.LM1657:
 12628 4fb4 8D91      		ld r24,X+
 12629 4fb6 8193      		st Z+,r24
 12630               	.LM1658:
 12631 4fb8 E815      		cp r30,r8
 12632 4fba F905      		cpc r31,r9
 12633 4fbc 01F4      		brne .L681
 12634               	.LM1659:
 12635 4fbe C501      		movw r24,r10
 12636 4fc0 B601      		movw r22,r12
 12637 4fc2 4CE0      		ldi r20,lo8(12)
 12638 4fc4 50E0      		ldi r21,hi8(12)
 12639 4fc6 0E94 0000 		call writeEEPROM
 12640               	.LVL720:
 12641               	.L683:
 12642               	.LM1660:
 12643 4fca 0F5F      		subi r16,lo8(-(1))
 12644 4fcc 1F4F      		sbci r17,hi8(-(1))
 12645 4fce 8AE0      		ldi r24,lo8(10)
 12646 4fd0 90E0      		ldi r25,hi8(10)
 12647 4fd2 E80E      		add r14,r24
 12648 4fd4 F91E      		adc r15,r25
 12649 4fd6 ECE0      		ldi r30,lo8(12)
 12650 4fd8 F0E0      		ldi r31,hi8(12)
 12651 4fda CE0E      		add r12,r30
 12652 4fdc DF1E      		adc r13,r31
 12653 4fde 0431      		cpi r16,20
 12654 4fe0 1105      		cpc r17,__zero_reg__
 12655 4fe2 01F4      		brne .L684
 12656 4fe4 50E0      		ldi r21,lo8(inputs)
 12657 4fe6 C52E      		mov r12,r21
 12658 4fe8 50E0      		ldi r21,hi8(inputs)
 12659 4fea D52E      		mov r13,r21
 12660 4fec 00E0      		ldi r16,lo8(0)
 12661 4fee 10E0      		ldi r17,hi8(0)
 12662               	.LVL721:
 12663 4ff0 42E4      		ldi r20,lo8(66)
 12664 4ff2 E42E      		mov r14,r20
 12665 4ff4 F12C      		mov r15,__zero_reg__
 12666               	.LM1661:
 12667 4ff6 5E01      		movw r10,r28
 12668 4ff8 0894      		sec
 12669 4ffa A11C      		adc r10,__zero_reg__
 12670 4ffc B11C      		adc r11,__zero_reg__
 12671               	.LM1662:
 12672 4ffe 39E0      		ldi r19,lo8(9)
 12673 5000 832E      		mov r8,r19
 12674 5002 912C      		mov r9,__zero_reg__
 12675 5004 8C0E      		add r8,r28
 12676 5006 9D1E      		adc r9,r29
 12677               	.L687:
 12678               	.LM1663:
 12679 5008 F601      		movw r30,r12
 12680 500a 8081      		ld r24,Z
 12681 500c 8F3F      		cpi r24,lo8(-1)
 12682 500e 01F0      		breq .L685
 12683 5010 D801      		movw r26,r16
 12684 5012 23E0      		ldi r18,3
 12685 5014 AA0F      	1:	lsl r26
 12686 5016 BB1F      		rol r27
 12687 5018 2A95      		dec r18
 12688 501a 01F4      		brne 1b
 12689 501c A050      		subi r26,lo8(-(inputs))
 12690 501e B040      		sbci r27,hi8(-(inputs))
 12691 5020 F501      		movw r30,r10
 12692               	.L686:
 12693               	.LM1664:
 12694 5022 8D91      		ld r24,X+
 12695 5024 8193      		st Z+,r24
 12696               	.LM1665:
 12697 5026 E815      		cp r30,r8
 12698 5028 F905      		cpc r31,r9
 12699 502a 01F4      		brne .L686
 12700               	.LM1666:
 12701 502c C501      		movw r24,r10
 12702 502e B701      		movw r22,r14
 12703 5030 4AE0      		ldi r20,lo8(10)
 12704 5032 50E0      		ldi r21,hi8(10)
 12705 5034 0E94 0000 		call writeEEPROM
 12706               	.LVL722:
 12707               	.L685:
 12708               	.LM1667:
 12709 5038 0F5F      		subi r16,lo8(-(1))
 12710 503a 1F4F      		sbci r17,hi8(-(1))
 12711 503c 88E0      		ldi r24,lo8(8)
 12712 503e 90E0      		ldi r25,hi8(8)
 12713 5040 C80E      		add r12,r24
 12714 5042 D91E      		adc r13,r25
 12715 5044 EAE0      		ldi r30,lo8(10)
 12716 5046 F0E0      		ldi r31,hi8(10)
 12717 5048 EE0E      		add r14,r30
 12718 504a FF1E      		adc r15,r31
 12719 504c 0430      		cpi r16,4
 12720 504e 1105      		cpc r17,__zero_reg__
 12721 5050 01F4      		brne .L687
 12722 5052 90E0      		ldi r25,lo8(timeLimits+4)
 12723 5054 E92E      		mov r14,r25
 12724 5056 90E0      		ldi r25,hi8(timeLimits+4)
 12725 5058 F92E      		mov r15,r25
 12726               	.LVL723:
 12727 505a 00E0      		ldi r16,lo8(0)
 12728 505c 10E0      		ldi r17,hi8(0)
 12729               	.LVL724:
 12730 505e 8AE6      		ldi r24,lo8(106)
 12731 5060 C82E      		mov r12,r24
 12732 5062 D12C      		mov r13,__zero_reg__
 12733               	.LM1668:
 12734 5064 5E01      		movw r10,r28
 12735 5066 0894      		sec
 12736 5068 A11C      		adc r10,__zero_reg__
 12737 506a B11C      		adc r11,__zero_reg__
 12738               	.L689:
 12739               	.LM1669:
 12740 506c F701      		movw r30,r14
 12741 506e 8481      		ldd r24,Z+4
 12742 5070 9581      		ldd r25,Z+5
 12743 5072 A681      		ldd r26,Z+6
 12744 5074 B781      		ldd r27,Z+7
 12745 5076 0097      		sbiw r24,0
 12746 5078 A105      		cpc r26,__zero_reg__
 12747 507a B105      		cpc r27,__zero_reg__
 12748 507c 01F0      		breq .L688
 12749               	.LM1670:
 12750 507e F801      		movw r30,r16
 12751 5080 EE0F      		lsl r30
 12752 5082 FF1F      		rol r31
 12753 5084 E00F      		add r30,r16
 12754 5086 F11F      		adc r31,r17
 12755 5088 EE0F      		lsl r30
 12756 508a FF1F      		rol r31
 12757 508c EE0F      		lsl r30
 12758 508e FF1F      		rol r31
 12759 5090 E050      		subi r30,lo8(-(timeLimits))
 12760 5092 F040      		sbci r31,hi8(-(timeLimits))
 12761 5094 8081      		ld r24,Z
 12762 5096 8983      		std Y+1,r24
 12763 5098 F701      		movw r30,r14
 12764 509a 8081      		ld r24,Z
 12765 509c 8A83      		std Y+2,r24
 12766 509e 8481      		ldd r24,Z+4
 12767 50a0 8B83      		std Y+3,r24
 12768               	.LM1671:
 12769 50a2 C501      		movw r24,r10
 12770 50a4 B601      		movw r22,r12
 12771 50a6 4AE0      		ldi r20,lo8(10)
 12772 50a8 50E0      		ldi r21,hi8(10)
 12773 50aa 0E94 0000 		call writeEEPROM
 12774               	.L688:
 12775               	.LM1672:
 12776 50ae 0F5F      		subi r16,lo8(-(1))
 12777 50b0 1F4F      		sbci r17,hi8(-(1))
 12778 50b2 8CE0      		ldi r24,lo8(12)
 12779 50b4 90E0      		ldi r25,hi8(12)
 12780 50b6 E80E      		add r14,r24
 12781 50b8 F91E      		adc r15,r25
 12782 50ba E5E0      		ldi r30,lo8(5)
 12783 50bc F0E0      		ldi r31,hi8(5)
 12784 50be CE0E      		add r12,r30
 12785 50c0 DF1E      		adc r13,r31
 12786 50c2 0430      		cpi r16,4
 12787 50c4 1105      		cpc r17,__zero_reg__
 12788 50c6 01F4      		brne .L689
 12789               	.LM1673:
 12790 50c8 9091 0000 		lds r25,pwmValues
 12791 50cc 9923      		tst r25
 12792 50ce 01F4      		brne .L690
 12793 50d0 8091 0000 		lds r24,pwmValues+1
 12794 50d4 8823      		tst r24
 12795 50d6 01F0      		breq .L691
 12796               	.L690:
 12797               	.LM1674:
 12798 50d8 9983      		std Y+1,r25
 12799 50da 8091 0000 		lds r24,pwmValues+1
 12800 50de 8A83      		std Y+2,r24
 12801 50e0 8091 0000 		lds r24,pwmValues+2
 12802 50e4 8B83      		std Y+3,r24
 12803               	.LM1675:
 12804 50e6 CE01      		movw r24,r28
 12805 50e8 0196      		adiw r24,1
 12806 50ea 6EE7      		ldi r22,lo8(126)
 12807 50ec 70E0      		ldi r23,hi8(126)
 12808 50ee 45E0      		ldi r20,lo8(5)
 12809 50f0 50E0      		ldi r21,hi8(5)
 12810 50f2 0E94 0000 		call writeEEPROM
 12811 50f6 00C0      		rjmp .L692
 12812               	.L691:
 12813               	.LM1676:
 12814 50f8 8091 0000 		lds r24,pwmValues+2
 12815 50fc 8823      		tst r24
 12816 50fe 01F4      		brne .L690
 12817               	.L692:
 12818 5100 00E0      		ldi r16,lo8(colorChanges)
 12819 5102 10E0      		ldi r17,hi8(colorChanges)
 12820               	.LVL725:
 12821 5104 E3E8      		ldi r30,lo8(131)
 12822 5106 EE2E      		mov r14,r30
 12823 5108 F12C      		mov r15,__zero_reg__
 12824               	.LM1677:
 12825 510a 6E01      		movw r12,r28
 12826 510c 0894      		sec
 12827 510e C11C      		adc r12,__zero_reg__
 12828 5110 D11C      		adc r13,__zero_reg__
 12829               	.L696:
 12830               	.LM1678:
 12831 5112 8091 0000 		lds r24,colorChanges
 12832 5116 8823      		tst r24
 12833 5118 01F4      		brne .L693
 12834 511a 8091 0000 		lds r24,colorChanges+1
 12835 511e 8130      		cpi r24,lo8(1)
 12836 5120 01F0      		breq .L694
 12837               	.L693:
 12838               	.LM1679:
 12839 5122 F801      		movw r30,r16
 12840 5124 8081      		ld r24,Z
 12841 5126 8983      		std Y+1,r24
 12842 5128 8181      		ldd r24,Z+1
 12843 512a 8A83      		std Y+2,r24
 12844 512c 8281      		ldd r24,Z+2
 12845 512e 8B83      		std Y+3,r24
 12846               	.LM1680:
 12847 5130 C601      		movw r24,r12
 12848 5132 B701      		movw r22,r14
 12849 5134 45E0      		ldi r20,lo8(5)
 12850 5136 50E0      		ldi r21,hi8(5)
 12851 5138 0E94 0000 		call writeEEPROM
 12852 513c 00C0      		rjmp .L695
 12853               	.L694:
 12854               	.LM1681:
 12855 513e 8091 0000 		lds r24,colorChanges+2
 12856 5142 8823      		tst r24
 12857 5144 01F4      		brne .L693
 12858               	.L695:
 12859 5146 0D5F      		subi r16,lo8(-(3))
 12860 5148 1F4F      		sbci r17,hi8(-(3))
 12861 514a 85E0      		ldi r24,lo8(5)
 12862 514c 90E0      		ldi r25,hi8(5)
 12863 514e E80E      		add r14,r24
 12864 5150 F91E      		adc r15,r25
 12865               	.LM1682:
 12866 5152 90E0      		ldi r25,hi8(colorChanges+18)
 12867 5154 0030      		cpi r16,lo8(colorChanges+18)
 12868 5156 1907      		cpc r17,r25
 12869 5158 01F4      		brne .L696
 12870               	.LM1683:
 12871 515a 0E94 0000 		call ok
 12872               	/* epilogue start */
 12873               	.LM1684:
 12874 515e 2E96      		adiw r28,14
 12875 5160 0FB6      		in __tmp_reg__,__SREG__
 12876 5162 F894      		cli
 12877 5164 DEBF      		out __SP_H__,r29
 12878 5166 0FBE      		out __SREG__,__tmp_reg__
 12879 5168 CDBF      		out __SP_L__,r28
 12880 516a CF91      		pop r28
 12881 516c DF91      		pop r29
 12882 516e 1F91      		pop r17
 12883               	.LVL726:
 12884 5170 0F91      		pop r16
 12885 5172 FF90      		pop r15
 12886 5174 EF90      		pop r14
 12887 5176 DF90      		pop r13
 12888 5178 CF90      		pop r12
 12889 517a BF90      		pop r11
 12890 517c AF90      		pop r10
 12891 517e 9F90      		pop r9
 12892 5180 8F90      		pop r8
 12893 5182 0895      		ret
 12894               	.LFE45:
 12896               	.global	readEEPROM
 12898               	readEEPROM:
 12899               	.LFB42:
 12900               	.LM1685:
 12901               	.LVL727:
 12902 5184 EF92      		push r14
 12903 5186 FF92      		push r15
 12904 5188 0F93      		push r16
 12905 518a 1F93      		push r17
 12906 518c CF93      		push r28
 12907 518e DF93      		push r29
 12908               	/* prologue: function */
 12909               	/* frame size = 0 */
 12910 5190 7C01      		movw r14,r24
 12911 5192 EB01      		movw r28,r22
 12912 5194 8A01      		movw r16,r20
 12913               	.LM1686:
 12914 5196 80E0      		ldi r24,lo8(0)
 12915 5198 90E0      		ldi r25,hi8(0)
 12916               	.LVL728:
 12917               	.L706:
 12918               	.LM1687:
 12919 519a F701      		movw r30,r14
 12920 519c E80F      		add r30,r24
 12921 519e F91F      		adc r31,r25
 12922 51a0 1082      		st Z,__zero_reg__
 12923               	.LM1688:
 12924 51a2 0196      		adiw r24,1
 12925 51a4 8E30      		cpi r24,14
 12926 51a6 9105      		cpc r25,__zero_reg__
 12927 51a8 01F4      		brne .L706
 12928               	.LM1689:
 12929 51aa CE01      		movw r24,r28
 12930               	.LVL729:
 12931 51ac 0E94 0000 		call __eerd_word_m328
 12932               	.LM1690:
 12933 51b0 8755      		subi r24,lo8(17495)
 12934 51b2 9444      		sbci r25,hi8(17495)
 12935 51b4 01F0      		breq .L707
 12936 51b6 20E0      		ldi r18,lo8(0)
 12937 51b8 30E0      		ldi r19,hi8(0)
 12938 51ba 00C0      		rjmp .L708
 12939               	.L707:
 12940               	.LM1691:
 12941 51bc 2296      		adiw r28,2
 12942 51be 0250      		subi r16,lo8(-(-2))
 12943 51c0 1040      		sbci r17,hi8(-(-2))
 12944 51c2 C701      		movw r24,r14
 12945 51c4 BE01      		movw r22,r28
 12946 51c6 A801      		movw r20,r16
 12947 51c8 0E94 0000 		call __eerd_block_m328
 12948 51cc 21E0      		ldi r18,lo8(1)
 12949 51ce 30E0      		ldi r19,hi8(1)
 12950               	.L708:
 12951               	.LM1692:
 12952 51d0 C901      		movw r24,r18
 12953               	/* epilogue start */
 12954 51d2 DF91      		pop r29
 12955 51d4 CF91      		pop r28
 12956               	.LVL730:
 12957 51d6 1F91      		pop r17
 12958 51d8 0F91      		pop r16
 12959               	.LVL731:
 12960 51da FF90      		pop r15
 12961 51dc EF90      		pop r14
 12962               	.LVL732:
 12963 51de 0895      		ret
 12964               	.LFE42:
 12966               	.global	generalInit
 12968               	generalInit:
 12969               	.LFB41:
 12970               	.LM1693:
 12971 51e0 AF92      		push r10
 12972 51e2 BF92      		push r11
 12973 51e4 CF92      		push r12
 12974 51e6 DF92      		push r13
 12975 51e8 EF92      		push r14
 12976 51ea FF92      		push r15
 12977 51ec 0F93      		push r16
 12978 51ee 1F93      		push r17
 12979 51f0 DF93      		push r29
 12980 51f2 CF93      		push r28
 12981 51f4 CDB7      		in r28,__SP_L__
 12982 51f6 DEB7      		in r29,__SP_H__
 12983 51f8 2E97      		sbiw r28,14
 12984 51fa 0FB6      		in __tmp_reg__,__SREG__
 12985 51fc F894      		cli
 12986 51fe DEBF      		out __SP_H__,r29
 12987 5200 0FBE      		out __SREG__,__tmp_reg__
 12988 5202 CDBF      		out __SP_L__,r28
 12989               	/* prologue: function */
 12990               	/* frame size = 14 */
 12991               	.LM1694:
 12992 5204 8E01      		movw r16,r28
 12993 5206 0F5F      		subi r16,lo8(-(1))
 12994 5208 1F4F      		sbci r17,hi8(-(1))
 12995 520a C801      		movw r24,r16
 12996 520c 6EE0      		ldi r22,lo8(14)
 12997 520e 70E0      		ldi r23,hi8(14)
 12998 5210 47E0      		ldi r20,lo8(7)
 12999 5212 50E0      		ldi r21,hi8(7)
 13000 5214 0E94 0000 		call readEEPROM
 13001 5218 0197      		sbiw r24,1
 13002 521a 01F4      		brne .L712
 13003               	.LM1695:
 13004 521c C801      		movw r24,r16
 13005 521e 0E94 0000 		call formatAddress
 13006 5222 E82F      		mov r30,r24
 13007 5224 2093 0000 		sts tx_addr,r18
 13008 5228 3093 0000 		sts tx_addr+1,r19
 13009 522c 4093 0000 		sts tx_addr+2,r20
 13010 5230 5093 0000 		sts tx_addr+3,r21
 13011 5234 6093 0000 		sts tx_addr+4,r22
 13012 5238 7093 0000 		sts tx_addr+5,r23
 13013 523c 8093 0000 		sts tx_addr+6,r24
 13014 5240 9093 0000 		sts tx_addr+7,r25
 13015               	.LM1696:
 13016 5244 80E1      		ldi r24,lo8(16)
 13017 5246 8901      		movw r16,r18
 13018 5248 9A01      		movw r18,r20
 13019 524a AB01      		movw r20,r22
 13020 524c 6E2F      		mov r22,r30
 13021 524e 792F      		mov r23,r25
 13022 5250 0E94 0000 		call writeAddr
 13023               	.L712:
 13024               	.LM1697:
 13025 5254 8E01      		movw r16,r28
 13026 5256 0F5F      		subi r16,lo8(-(1))
 13027 5258 1F4F      		sbci r17,hi8(-(1))
 13028 525a C801      		movw r24,r16
 13029 525c 65E1      		ldi r22,lo8(21)
 13030 525e 70E0      		ldi r23,hi8(21)
 13031 5260 47E0      		ldi r20,lo8(7)
 13032 5262 50E0      		ldi r21,hi8(7)
 13033 5264 0E94 0000 		call readEEPROM
 13034 5268 0197      		sbiw r24,1
 13035 526a 01F4      		brne .L713
 13036               	.LM1698:
 13037 526c C801      		movw r24,r16
 13038 526e 0E94 0000 		call formatAddress
 13039 5272 E82F      		mov r30,r24
 13040 5274 2093 0000 		sts rx_addr_p0,r18
 13041 5278 3093 0000 		sts rx_addr_p0+1,r19
 13042 527c 4093 0000 		sts rx_addr_p0+2,r20
 13043 5280 5093 0000 		sts rx_addr_p0+3,r21
 13044 5284 6093 0000 		sts rx_addr_p0+4,r22
 13045 5288 7093 0000 		sts rx_addr_p0+5,r23
 13046 528c 8093 0000 		sts rx_addr_p0+6,r24
 13047 5290 9093 0000 		sts rx_addr_p0+7,r25
 13048               	.LM1699:
 13049 5294 8AE0      		ldi r24,lo8(10)
 13050 5296 8901      		movw r16,r18
 13051 5298 9A01      		movw r18,r20
 13052 529a AB01      		movw r20,r22
 13053 529c 6E2F      		mov r22,r30
 13054 529e 792F      		mov r23,r25
 13055 52a0 0E94 0000 		call writeAddr
 13056               	.L713:
 13057               	.LM1700:
 13058 52a4 8E01      		movw r16,r28
 13059 52a6 0F5F      		subi r16,lo8(-(1))
 13060 52a8 1F4F      		sbci r17,hi8(-(1))
 13061 52aa C801      		movw r24,r16
 13062 52ac 6CE1      		ldi r22,lo8(28)
 13063 52ae 70E0      		ldi r23,hi8(28)
 13064 52b0 47E0      		ldi r20,lo8(7)
 13065 52b2 50E0      		ldi r21,hi8(7)
 13066 52b4 0E94 0000 		call readEEPROM
 13067 52b8 0197      		sbiw r24,1
 13068 52ba 01F4      		brne .L714
 13069               	.LM1701:
 13070 52bc C801      		movw r24,r16
 13071 52be 0E94 0000 		call formatAddress
 13072 52c2 E82F      		mov r30,r24
 13073 52c4 2093 0000 		sts rx_addr_p1,r18
 13074 52c8 3093 0000 		sts rx_addr_p1+1,r19
 13075 52cc 4093 0000 		sts rx_addr_p1+2,r20
 13076 52d0 5093 0000 		sts rx_addr_p1+3,r21
 13077 52d4 6093 0000 		sts rx_addr_p1+4,r22
 13078 52d8 7093 0000 		sts rx_addr_p1+5,r23
 13079 52dc 8093 0000 		sts rx_addr_p1+6,r24
 13080 52e0 9093 0000 		sts rx_addr_p1+7,r25
 13081               	.LM1702:
 13082 52e4 8BE0      		ldi r24,lo8(11)
 13083 52e6 8901      		movw r16,r18
 13084 52e8 9A01      		movw r18,r20
 13085 52ea AB01      		movw r20,r22
 13086 52ec 6E2F      		mov r22,r30
 13087 52ee 792F      		mov r23,r25
 13088 52f0 0E94 0000 		call writeAddr
 13089               	.L714:
 13090               	.LM1703:
 13091 52f4 CE01      		movw r24,r28
 13092 52f6 0196      		adiw r24,1
 13093 52f8 63E2      		ldi r22,lo8(35)
 13094 52fa 70E0      		ldi r23,hi8(35)
 13095 52fc 43E0      		ldi r20,lo8(3)
 13096 52fe 50E0      		ldi r21,hi8(3)
 13097 5300 0E94 0000 		call readEEPROM
 13098 5304 0197      		sbiw r24,1
 13099 5306 01F4      		brne .L715
 13100               	.LM1704:
 13101 5308 0981      		ldd r16,Y+1
 13102 530a 0093 0000 		sts rx_addr_p2,r16
 13103 530e 1092 0000 		sts rx_addr_p2+1,__zero_reg__
 13104 5312 1092 0000 		sts rx_addr_p2+2,__zero_reg__
 13105 5316 1092 0000 		sts rx_addr_p2+3,__zero_reg__
 13106 531a 1092 0000 		sts rx_addr_p2+4,__zero_reg__
 13107 531e 1092 0000 		sts rx_addr_p2+5,__zero_reg__
 13108 5322 1092 0000 		sts rx_addr_p2+6,__zero_reg__
 13109 5326 1092 0000 		sts rx_addr_p2+7,__zero_reg__
 13110               	.LM1705:
 13111 532a 8CE0      		ldi r24,lo8(12)
 13112 532c 10E0      		ldi r17,lo8(0)
 13113 532e 20E0      		ldi r18,lo8(0)
 13114 5330 30E0      		ldi r19,lo8(0)
 13115 5332 40E0      		ldi r20,lo8(0)
 13116 5334 50E0      		ldi r21,lo8(0)
 13117 5336 60E0      		ldi r22,lo8(0)
 13118 5338 70E0      		ldi r23,lo8(0)
 13119 533a 0E94 0000 		call writeAddr
 13120               	.L715:
 13121               	.LM1706:
 13122 533e CE01      		movw r24,r28
 13123 5340 0196      		adiw r24,1
 13124 5342 66E2      		ldi r22,lo8(38)
 13125 5344 70E0      		ldi r23,hi8(38)
 13126 5346 43E0      		ldi r20,lo8(3)
 13127 5348 50E0      		ldi r21,hi8(3)
 13128 534a 0E94 0000 		call readEEPROM
 13129 534e 0197      		sbiw r24,1
 13130 5350 01F4      		brne .L716
 13131               	.LM1707:
 13132 5352 0981      		ldd r16,Y+1
 13133 5354 0093 0000 		sts rx_addr_p3,r16
 13134 5358 1092 0000 		sts rx_addr_p3+1,__zero_reg__
 13135 535c 1092 0000 		sts rx_addr_p3+2,__zero_reg__
 13136 5360 1092 0000 		sts rx_addr_p3+3,__zero_reg__
 13137 5364 1092 0000 		sts rx_addr_p3+4,__zero_reg__
 13138 5368 1092 0000 		sts rx_addr_p3+5,__zero_reg__
 13139 536c 1092 0000 		sts rx_addr_p3+6,__zero_reg__
 13140 5370 1092 0000 		sts rx_addr_p3+7,__zero_reg__
 13141               	.LM1708:
 13142 5374 8DE0      		ldi r24,lo8(13)
 13143 5376 10E0      		ldi r17,lo8(0)
 13144 5378 20E0      		ldi r18,lo8(0)
 13145 537a 30E0      		ldi r19,lo8(0)
 13146 537c 40E0      		ldi r20,lo8(0)
 13147 537e 50E0      		ldi r21,lo8(0)
 13148 5380 60E0      		ldi r22,lo8(0)
 13149 5382 70E0      		ldi r23,lo8(0)
 13150 5384 0E94 0000 		call writeAddr
 13151               	.L716:
 13152               	.LM1709:
 13153 5388 CE01      		movw r24,r28
 13154 538a 0196      		adiw r24,1
 13155 538c 69E2      		ldi r22,lo8(41)
 13156 538e 70E0      		ldi r23,hi8(41)
 13157 5390 43E0      		ldi r20,lo8(3)
 13158 5392 50E0      		ldi r21,hi8(3)
 13159 5394 0E94 0000 		call readEEPROM
 13160 5398 0197      		sbiw r24,1
 13161 539a 01F4      		brne .L717
 13162               	.LM1710:
 13163 539c 0981      		ldd r16,Y+1
 13164 539e 0093 0000 		sts rx_addr_p4,r16
 13165 53a2 1092 0000 		sts rx_addr_p4+1,__zero_reg__
 13166 53a6 1092 0000 		sts rx_addr_p4+2,__zero_reg__
 13167 53aa 1092 0000 		sts rx_addr_p4+3,__zero_reg__
 13168 53ae 1092 0000 		sts rx_addr_p4+4,__zero_reg__
 13169 53b2 1092 0000 		sts rx_addr_p4+5,__zero_reg__
 13170 53b6 1092 0000 		sts rx_addr_p4+6,__zero_reg__
 13171 53ba 1092 0000 		sts rx_addr_p4+7,__zero_reg__
 13172               	.LM1711:
 13173 53be 8EE0      		ldi r24,lo8(14)
 13174 53c0 10E0      		ldi r17,lo8(0)
 13175 53c2 20E0      		ldi r18,lo8(0)
 13176 53c4 30E0      		ldi r19,lo8(0)
 13177 53c6 40E0      		ldi r20,lo8(0)
 13178 53c8 50E0      		ldi r21,lo8(0)
 13179 53ca 60E0      		ldi r22,lo8(0)
 13180 53cc 70E0      		ldi r23,lo8(0)
 13181 53ce 0E94 0000 		call writeAddr
 13182               	.L717:
 13183               	.LM1712:
 13184 53d2 CE01      		movw r24,r28
 13185 53d4 0196      		adiw r24,1
 13186 53d6 6CE2      		ldi r22,lo8(44)
 13187 53d8 70E0      		ldi r23,hi8(44)
 13188 53da 43E0      		ldi r20,lo8(3)
 13189 53dc 50E0      		ldi r21,hi8(3)
 13190 53de 0E94 0000 		call readEEPROM
 13191 53e2 0197      		sbiw r24,1
 13192 53e4 01F4      		brne .L718
 13193               	.LM1713:
 13194 53e6 0981      		ldd r16,Y+1
 13195 53e8 0093 0000 		sts rx_addr_p5,r16
 13196 53ec 1092 0000 		sts rx_addr_p5+1,__zero_reg__
 13197 53f0 1092 0000 		sts rx_addr_p5+2,__zero_reg__
 13198 53f4 1092 0000 		sts rx_addr_p5+3,__zero_reg__
 13199 53f8 1092 0000 		sts rx_addr_p5+4,__zero_reg__
 13200 53fc 1092 0000 		sts rx_addr_p5+5,__zero_reg__
 13201 5400 1092 0000 		sts rx_addr_p5+6,__zero_reg__
 13202 5404 1092 0000 		sts rx_addr_p5+7,__zero_reg__
 13203               	.LM1714:
 13204 5408 8FE0      		ldi r24,lo8(15)
 13205 540a 10E0      		ldi r17,lo8(0)
 13206 540c 20E0      		ldi r18,lo8(0)
 13207 540e 30E0      		ldi r19,lo8(0)
 13208 5410 40E0      		ldi r20,lo8(0)
 13209 5412 50E0      		ldi r21,lo8(0)
 13210 5414 60E0      		ldi r22,lo8(0)
 13211 5416 70E0      		ldi r23,lo8(0)
 13212 5418 0E94 0000 		call writeAddr
 13213               	.L718:
 13214               	.LM1715:
 13215 541c CE01      		movw r24,r28
 13216 541e 0196      		adiw r24,1
 13217 5420 61E9      		ldi r22,lo8(401)
 13218 5422 71E0      		ldi r23,hi8(401)
 13219 5424 44E0      		ldi r20,lo8(4)
 13220 5426 50E0      		ldi r21,hi8(4)
 13221 5428 0E94 0000 		call readEEPROM
 13222 542c 0197      		sbiw r24,1
 13223 542e 01F4      		brne .L719
 13224               	.LM1716:
 13225 5430 8981      		ldd r24,Y+1
 13226 5432 90E0      		ldi r25,lo8(0)
 13227 5434 A0E0      		ldi r26,lo8(0)
 13228 5436 B0E0      		ldi r27,hi8(0)
 13229 5438 BA2F      		mov r27,r26
 13230 543a A92F      		mov r26,r25
 13231 543c 982F      		mov r25,r24
 13232 543e 8827      		clr r24
 13233               	.LM1717:
 13234 5440 2A81      		ldd r18,Y+2
 13235 5442 30E0      		ldi r19,lo8(0)
 13236 5444 40E0      		ldi r20,lo8(0)
 13237 5446 50E0      		ldi r21,hi8(0)
 13238 5448 822B      		or r24,r18
 13239 544a 932B      		or r25,r19
 13240 544c A42B      		or r26,r20
 13241 544e B52B      		or r27,r21
 13242 5450 8093 0000 		sts tweakTimer,r24
 13243 5454 9093 0000 		sts (tweakTimer)+1,r25
 13244 5458 A093 0000 		sts (tweakTimer)+2,r26
 13245 545c B093 0000 		sts (tweakTimer)+3,r27
 13246               	.L719:
 13247               	.LM1718:
 13248 5460 CE01      		movw r24,r28
 13249 5462 0196      		adiw r24,1
 13250 5464 66E0      		ldi r22,lo8(6)
 13251 5466 70E0      		ldi r23,hi8(6)
 13252 5468 4AE0      		ldi r20,lo8(10)
 13253 546a 50E0      		ldi r21,hi8(10)
 13254 546c 0E94 0000 		call readEEPROM
 13255 5470 0197      		sbiw r24,1
 13256 5472 01F4      		brne .L720
 13257               	.LM1719:
 13258 5474 9981      		ldd r25,Y+1
 13259 5476 80E0      		ldi r24,lo8(0)
 13260 5478 2A81      		ldd r18,Y+2
 13261 547a 30E0      		ldi r19,lo8(0)
 13262 547c 822B      		or r24,r18
 13263 547e 932B      		or r25,r19
 13264 5480 9093 0000 		sts (daylightSavings)+1,r25
 13265 5484 8093 0000 		sts daylightSavings,r24
 13266               	.LM1720:
 13267 5488 9B81      		ldd r25,Y+3
 13268 548a 80E0      		ldi r24,lo8(0)
 13269 548c 2C81      		ldd r18,Y+4
 13270 548e 30E0      		ldi r19,lo8(0)
 13271 5490 822B      		or r24,r18
 13272 5492 932B      		or r25,r19
 13273 5494 9093 0000 		sts (daylightSavings+2)+1,r25
 13274 5498 8093 0000 		sts daylightSavings+2,r24
 13275               	.LM1721:
 13276 549c 9D81      		ldd r25,Y+5
 13277 549e 80E0      		ldi r24,lo8(0)
 13278 54a0 2E81      		ldd r18,Y+6
 13279 54a2 30E0      		ldi r19,lo8(0)
 13280 54a4 822B      		or r24,r18
 13281 54a6 932B      		or r25,r19
 13282 54a8 9093 0000 		sts (daylightSavings+4)+1,r25
 13283 54ac 8093 0000 		sts daylightSavings+4,r24
 13284               	.LM1722:
 13285 54b0 9F81      		ldd r25,Y+7
 13286 54b2 80E0      		ldi r24,lo8(0)
 13287 54b4 2885      		ldd r18,Y+8
 13288 54b6 30E0      		ldi r19,lo8(0)
 13289 54b8 822B      		or r24,r18
 13290 54ba 932B      		or r25,r19
 13291 54bc 9093 0000 		sts (daylightSavings+6)+1,r25
 13292 54c0 8093 0000 		sts daylightSavings+6,r24
 13293               	.L720:
 13294               	.LM1723:
 13295 54c4 80E0      		ldi r24,lo8(switchStuff)
 13296 54c6 90E0      		ldi r25,hi8(switchStuff)
 13297 54c8 60E3      		ldi r22,lo8(48)
 13298 54ca 70E0      		ldi r23,hi8(48)
 13299 54cc 42E1      		ldi r20,lo8(18)
 13300 54ce 50E0      		ldi r21,hi8(18)
 13301 54d0 0E94 0000 		call readEEPROM
 13302 54d4 0197      		sbiw r24,1
 13303 54d6 01F0      		breq .+2
 13304 54d8 00C0      		rjmp .L721
 13305               	.LBB163:
 13306               	.LM1724:
 13307 54da 80E0      		ldi r24,lo8(switchBright)
 13308 54dc 90E0      		ldi r25,hi8(switchBright)
 13309 54de 68E9      		ldi r22,lo8(408)
 13310 54e0 71E0      		ldi r23,hi8(408)
 13311 54e2 42E1      		ldi r20,lo8(18)
 13312 54e4 50E0      		ldi r21,hi8(18)
 13313 54e6 0E94 0000 		call readEEPROM
 13314 54ea 40E0      		ldi r20,lo8(switchStuff)
 13315 54ec 50E0      		ldi r21,hi8(switchStuff)
 13316               	.LM1725:
 13317 54ee 61E0      		ldi r22,lo8(1)
 13318 54f0 70E0      		ldi r23,hi8(1)
 13319               	.LVL733:
 13320               	.L727:
 13321               	.LM1726:
 13322 54f2 FA01      		movw r30,r20
 13323               	.LVL734:
 13324 54f4 8081      		ld r24,Z
 13325               	.LVL735:
 13326               	.LM1727:
 13327 54f6 382F      		mov r19,r24
 13328 54f8 3051      		subi r19,lo8(-(-16))
 13329               	.LVL736:
 13330 54fa 3031      		cpi r19,lo8(16)
 13331 54fc 00F4      		brsh .L722
 13332 54fe A5E2      		ldi r26,lo8(37)
 13333 5500 B0E0      		ldi r27,hi8(37)
 13334 5502 E4E2      		ldi r30,lo8(36)
 13335 5504 F0E0      		ldi r31,hi8(36)
 13336               	.LVL737:
 13337 5506 00C0      		rjmp .L723
 13338               	.LVL738:
 13339               	.L722:
 13340               	.LM1728:
 13341 5508 8033      		cpi r24,lo8(48)
 13342 550a 00F4      		brsh .L724
 13343               	.LVL739:
 13344               	.LM1729:
 13345 550c 382F      		mov r19,r24
 13346 550e 3052      		subi r19,lo8(-(-32))
 13347               	.LVL740:
 13348 5510 A8E2      		ldi r26,lo8(40)
 13349 5512 B0E0      		ldi r27,hi8(40)
 13350 5514 E7E2      		ldi r30,lo8(39)
 13351 5516 F0E0      		ldi r31,hi8(39)
 13352               	.LVL741:
 13353 5518 00C0      		rjmp .L723
 13354               	.LVL742:
 13355               	.L724:
 13356               	.LM1730:
 13357 551a 8034      		cpi r24,lo8(64)
 13358 551c 00F4      		brsh .L725
 13359               	.LM1731:
 13360 551e 382F      		mov r19,r24
 13361 5520 3053      		subi r19,lo8(-(-48))
 13362               	.LVL743:
 13363 5522 ABE2      		ldi r26,lo8(43)
 13364 5524 B0E0      		ldi r27,hi8(43)
 13365 5526 EAE2      		ldi r30,lo8(42)
 13366 5528 F0E0      		ldi r31,hi8(42)
 13367               	.LVL744:
 13368               	.L723:
 13369               	.LM1732:
 13370 552a 2081      		ld r18,Z
 13371 552c 832F      		mov r24,r19
 13372 552e 8695      		lsr r24
 13373 5530 8B01      		movw r16,r22
 13374 5532 00C0      		rjmp 2f
 13375 5534 000F      	1:	lsl r16
 13376 5536 111F      		rol r17
 13377 5538 8A95      	2:	dec r24
 13378 553a 02F4      		brpl 1b
 13379 553c 902F      		mov r25,r16
 13380 553e 202B      		or r18,r16
 13381 5540 2083      		st Z,r18
 13382               	.LM1733:
 13383 5542 30FD      		sbrc r19,0
 13384 5544 00C0      		rjmp .L726
 13385               	.LM1734:
 13386 5546 8C91      		ld r24,X
 13387 5548 982B      		or r25,r24
 13388 554a 00C0      		rjmp .L753
 13389               	.L726:
 13390               	.LM1735:
 13391 554c 8C91      		ld r24,X
 13392 554e 9095      		com r25
 13393 5550 9823      		and r25,r24
 13394               	.L753:
 13395 5552 9C93      		st X,r25
 13396               	.LVL745:
 13397               	.L725:
 13398 5554 4F5F      		subi r20,lo8(-(1))
 13399 5556 5F4F      		sbci r21,hi8(-(1))
 13400               	.LM1736:
 13401 5558 10E0      		ldi r17,hi8(switchStuff+16)
 13402 555a 4030      		cpi r20,lo8(switchStuff+16)
 13403 555c 5107      		cpc r21,r17
 13404 555e 01F4      		brne .L727
 13405               	.L730:
 13406 5560 00E0      		ldi r16,lo8(0)
 13407 5562 10E0      		ldi r17,hi8(0)
 13408               	.LVL746:
 13409 5564 51EA      		ldi r21,lo8(161)
 13410 5566 E52E      		mov r14,r21
 13411 5568 F12C      		mov r15,__zero_reg__
 13412               	.LBE163:
 13413               	.LM1737:
 13414 556a 6E01      		movw r12,r28
 13415 556c 0894      		sec
 13416 556e C11C      		adc r12,__zero_reg__
 13417 5570 D11C      		adc r13,__zero_reg__
 13418               	.LM1738:
 13419 5572 4BE0      		ldi r20,lo8(11)
 13420 5574 A42E      		mov r10,r20
 13421 5576 B12C      		mov r11,__zero_reg__
 13422 5578 AC0E      		add r10,r28
 13423 557a BD1E      		adc r11,r29
 13424 557c 00C0      		rjmp .L728
 13425               	.LVL747:
 13426               	.L721:
 13427               	.LBB164:
 13428               	.LM1739:
 13429 557e E0E0      		ldi r30,lo8(switchStuff)
 13430 5580 F0E0      		ldi r31,hi8(switchStuff)
 13431               	.LBE164:
 13432               	.LM1740:
 13433 5582 8FEF      		ldi r24,lo8(-1)
 13434               	.L729:
 13435 5584 8193      		st Z+,r24
 13436               	.LM1741:
 13437 5586 90E0      		ldi r25,hi8(switchStuff+16)
 13438 5588 E030      		cpi r30,lo8(switchStuff+16)
 13439 558a F907      		cpc r31,r25
 13440 558c 01F4      		brne .L729
 13441 558e 00C0      		rjmp .L730
 13442               	.LVL748:
 13443               	.L728:
 13444               	.LM1742:
 13445 5590 C601      		movw r24,r12
 13446 5592 B701      		movw r22,r14
 13447 5594 4CE0      		ldi r20,lo8(12)
 13448 5596 50E0      		ldi r21,hi8(12)
 13449 5598 0E94 0000 		call readEEPROM
 13450               	.LVL749:
 13451 559c 0197      		sbiw r24,1
 13452 559e 01F4      		brne .L731
 13453 55a0 D601      		movw r26,r12
 13454 55a2 F801      		movw r30,r16
 13455 55a4 EE0F      		lsl r30
 13456 55a6 FF1F      		rol r31
 13457 55a8 C801      		movw r24,r16
 13458 55aa 23E0      		ldi r18,3
 13459 55ac 880F      	1:	lsl r24
 13460 55ae 991F      		rol r25
 13461 55b0 2A95      		dec r18
 13462 55b2 01F4      		brne 1b
 13463 55b4 E80F      		add r30,r24
 13464 55b6 F91F      		adc r31,r25
 13465 55b8 E050      		subi r30,lo8(-(weeklyProgram))
 13466 55ba F040      		sbci r31,hi8(-(weeklyProgram))
 13467               	.L732:
 13468               	.LM1743:
 13469 55bc 8D91      		ld r24,X+
 13470 55be 8193      		st Z+,r24
 13471               	.LM1744:
 13472 55c0 AA15      		cp r26,r10
 13473 55c2 BB05      		cpc r27,r11
 13474 55c4 01F4      		brne .L732
 13475               	.L731:
 13476               	.LM1745:
 13477 55c6 0F5F      		subi r16,lo8(-(1))
 13478 55c8 1F4F      		sbci r17,hi8(-(1))
 13479 55ca ECE0      		ldi r30,lo8(12)
 13480 55cc F0E0      		ldi r31,hi8(12)
 13481 55ce EE0E      		add r14,r30
 13482 55d0 FF1E      		adc r15,r31
 13483 55d2 0431      		cpi r16,20
 13484 55d4 1105      		cpc r17,__zero_reg__
 13485 55d6 01F4      		brne .L728
 13486 55d8 00E0      		ldi r16,lo8(0)
 13487 55da 10E0      		ldi r17,hi8(0)
 13488               	.LVL750:
 13489 55dc F2E4      		ldi r31,lo8(66)
 13490 55de EF2E      		mov r14,r31
 13491 55e0 F12C      		mov r15,__zero_reg__
 13492               	.LM1746:
 13493 55e2 6E01      		movw r12,r28
 13494 55e4 0894      		sec
 13495 55e6 C11C      		adc r12,__zero_reg__
 13496 55e8 D11C      		adc r13,__zero_reg__
 13497               	.LM1747:
 13498 55ea E9E0      		ldi r30,lo8(9)
 13499 55ec AE2E      		mov r10,r30
 13500 55ee B12C      		mov r11,__zero_reg__
 13501 55f0 AC0E      		add r10,r28
 13502 55f2 BD1E      		adc r11,r29
 13503               	.L735:
 13504               	.LM1748:
 13505 55f4 C601      		movw r24,r12
 13506 55f6 B701      		movw r22,r14
 13507 55f8 4AE0      		ldi r20,lo8(10)
 13508 55fa 50E0      		ldi r21,hi8(10)
 13509 55fc 0E94 0000 		call readEEPROM
 13510 5600 0197      		sbiw r24,1
 13511 5602 01F4      		brne .L733
 13512 5604 D601      		movw r26,r12
 13513 5606 F801      		movw r30,r16
 13514 5608 73E0      		ldi r23,3
 13515 560a EE0F      	1:	lsl r30
 13516 560c FF1F      		rol r31
 13517 560e 7A95      		dec r23
 13518 5610 01F4      		brne 1b
 13519 5612 E050      		subi r30,lo8(-(inputs))
 13520 5614 F040      		sbci r31,hi8(-(inputs))
 13521               	.L734:
 13522               	.LM1749:
 13523 5616 8D91      		ld r24,X+
 13524 5618 8193      		st Z+,r24
 13525               	.LM1750:
 13526 561a AA15      		cp r26,r10
 13527 561c BB05      		cpc r27,r11
 13528 561e 01F4      		brne .L734
 13529               	.L733:
 13530               	.LM1751:
 13531 5620 0F5F      		subi r16,lo8(-(1))
 13532 5622 1F4F      		sbci r17,hi8(-(1))
 13533 5624 8AE0      		ldi r24,lo8(10)
 13534 5626 90E0      		ldi r25,hi8(10)
 13535 5628 E80E      		add r14,r24
 13536 562a F91E      		adc r15,r25
 13537 562c 0430      		cpi r16,4
 13538 562e 1105      		cpc r17,__zero_reg__
 13539 5630 01F4      		brne .L735
 13540 5632 60E0      		ldi r22,lo8(timeLimits+4)
 13541 5634 E62E      		mov r14,r22
 13542 5636 60E0      		ldi r22,hi8(timeLimits+4)
 13543 5638 F62E      		mov r15,r22
 13544 563a 00E0      		ldi r16,lo8(0)
 13545 563c 10E0      		ldi r17,hi8(0)
 13546               	.LVL751:
 13547 563e 5AE6      		ldi r21,lo8(106)
 13548 5640 C52E      		mov r12,r21
 13549 5642 D12C      		mov r13,__zero_reg__
 13550               	.LM1752:
 13551 5644 5E01      		movw r10,r28
 13552 5646 0894      		sec
 13553 5648 A11C      		adc r10,__zero_reg__
 13554 564a B11C      		adc r11,__zero_reg__
 13555               	.L737:
 13556 564c C501      		movw r24,r10
 13557 564e B601      		movw r22,r12
 13558 5650 45E0      		ldi r20,lo8(5)
 13559 5652 50E0      		ldi r21,hi8(5)
 13560 5654 0E94 0000 		call readEEPROM
 13561 5658 0197      		sbiw r24,1
 13562 565a 01F4      		brne .L736
 13563               	.LM1753:
 13564 565c F801      		movw r30,r16
 13565 565e EE0F      		lsl r30
 13566 5660 FF1F      		rol r31
 13567 5662 E00F      		add r30,r16
 13568 5664 F11F      		adc r31,r17
 13569 5666 EE0F      		lsl r30
 13570 5668 FF1F      		rol r31
 13571 566a EE0F      		lsl r30
 13572 566c FF1F      		rol r31
 13573 566e E050      		subi r30,lo8(-(timeLimits))
 13574 5670 F040      		sbci r31,hi8(-(timeLimits))
 13575 5672 8981      		ldd r24,Y+1
 13576 5674 90E0      		ldi r25,lo8(0)
 13577 5676 A0E0      		ldi r26,lo8(0)
 13578 5678 B0E0      		ldi r27,hi8(0)
 13579 567a 8083      		st Z,r24
 13580 567c 9183      		std Z+1,r25
 13581 567e A283      		std Z+2,r26
 13582 5680 B383      		std Z+3,r27
 13583 5682 8A81      		ldd r24,Y+2
 13584 5684 90E0      		ldi r25,lo8(0)
 13585 5686 A0E0      		ldi r26,lo8(0)
 13586 5688 B0E0      		ldi r27,hi8(0)
 13587 568a F701      		movw r30,r14
 13588 568c 8083      		st Z,r24
 13589 568e 9183      		std Z+1,r25
 13590 5690 A283      		std Z+2,r26
 13591 5692 B383      		std Z+3,r27
 13592 5694 8B81      		ldd r24,Y+3
 13593 5696 90E0      		ldi r25,lo8(0)
 13594 5698 A0E0      		ldi r26,lo8(0)
 13595 569a B0E0      		ldi r27,hi8(0)
 13596 569c 8483      		std Z+4,r24
 13597 569e 9583      		std Z+5,r25
 13598 56a0 A683      		std Z+6,r26
 13599 56a2 B783      		std Z+7,r27
 13600               	.L736:
 13601               	.LM1754:
 13602 56a4 0F5F      		subi r16,lo8(-(1))
 13603 56a6 1F4F      		sbci r17,hi8(-(1))
 13604 56a8 85E0      		ldi r24,lo8(5)
 13605 56aa 90E0      		ldi r25,hi8(5)
 13606 56ac C80E      		add r12,r24
 13607 56ae D91E      		adc r13,r25
 13608 56b0 ECE0      		ldi r30,lo8(12)
 13609 56b2 F0E0      		ldi r31,hi8(12)
 13610 56b4 EE0E      		add r14,r30
 13611 56b6 FF1E      		adc r15,r31
 13612 56b8 0430      		cpi r16,4
 13613 56ba 1105      		cpc r17,__zero_reg__
 13614 56bc 01F4      		brne .L737
 13615               	.LM1755:
 13616 56be CE01      		movw r24,r28
 13617 56c0 0196      		adiw r24,1
 13618 56c2 65E9      		ldi r22,lo8(405)
 13619 56c4 71E0      		ldi r23,hi8(405)
 13620 56c6 43E0      		ldi r20,lo8(3)
 13621 56c8 50E0      		ldi r21,hi8(3)
 13622 56ca 0E94 0000 		call readEEPROM
 13623 56ce 0197      		sbiw r24,1
 13624 56d0 01F4      		brne .L738
 13625               	.LM1756:
 13626 56d2 8AB1      		in r24,42-32
 13627 56d4 8866      		ori r24,lo8(104)
 13628 56d6 8AB9      		out 42-32,r24
 13629               	.LM1757:
 13630 56d8 1092 B400 		sts 180,__zero_reg__
 13631               	.LM1758:
 13632 56dc 18BC      		out 72-32,__zero_reg__
 13633               	.LM1759:
 13634 56de 17BC      		out 71-32,__zero_reg__
 13635               	.LM1760:
 13636 56e0 8981      		ldd r24,Y+1
 13637 56e2 8823      		tst r24
 13638 56e4 01F4      		brne .L739
 13639               	.LM1761:
 13640 56e6 81EF      		ldi r24,lo8(-15)
 13641 56e8 84BD      		out 68-32,r24
 13642               	.LM1762:
 13643 56ea 81E3      		ldi r24,lo8(49)
 13644 56ec 8093 B000 		sts 176,r24
 13645               	.LM1763:
 13646 56f0 1092 0000 		sts pwmdir,__zero_reg__
 13647 56f4 00C0      		rjmp .L740
 13648               	.L739:
 13649               	.LM1764:
 13650 56f6 81EA      		ldi r24,lo8(-95)
 13651 56f8 84BD      		out 68-32,r24
 13652               	.LM1765:
 13653 56fa 81E2      		ldi r24,lo8(33)
 13654 56fc 8093 B000 		sts 176,r24
 13655               	.LM1766:
 13656 5700 81E0      		ldi r24,lo8(1)
 13657 5702 8093 0000 		sts pwmdir,r24
 13658               	.L740:
 13659               	.LM1767:
 13660 5706 83E0      		ldi r24,lo8(3)
 13661 5708 85BD      		out 69-32,r24
 13662               	.LM1768:
 13663 570a 84E0      		ldi r24,lo8(4)
 13664 570c 8093 B100 		sts 177,r24
 13665               	.L738:
 13666               	.LM1769:
 13667 5710 CE01      		movw r24,r28
 13668 5712 0196      		adiw r24,1
 13669 5714 6EE7      		ldi r22,lo8(126)
 13670 5716 70E0      		ldi r23,hi8(126)
 13671 5718 45E0      		ldi r20,lo8(5)
 13672 571a 50E0      		ldi r21,hi8(5)
 13673 571c 0E94 0000 		call readEEPROM
 13674 5720 0197      		sbiw r24,1
 13675 5722 01F4      		brne .L741
 13676               	.LM1770:
 13677 5724 8981      		ldd r24,Y+1
 13678 5726 8093 0000 		sts pwmValues,r24
 13679               	.LM1771:
 13680 572a 8A81      		ldd r24,Y+2
 13681 572c 8093 0000 		sts pwmValues+1,r24
 13682               	.LM1772:
 13683 5730 8B81      		ldd r24,Y+3
 13684 5732 8093 0000 		sts pwmValues+2,r24
 13685               	.L741:
 13686 5736 20E0      		ldi r18,lo8(colorChanges+1)
 13687 5738 E22E      		mov r14,r18
 13688 573a 20E0      		ldi r18,hi8(colorChanges+1)
 13689 573c F22E      		mov r15,r18
 13690 573e 00E0      		ldi r16,lo8(0)
 13691 5740 10E0      		ldi r17,hi8(0)
 13692               	.LVL752:
 13693 5742 93E8      		ldi r25,lo8(131)
 13694 5744 C92E      		mov r12,r25
 13695 5746 D12C      		mov r13,__zero_reg__
 13696               	.LM1773:
 13697 5748 5E01      		movw r10,r28
 13698 574a 0894      		sec
 13699 574c A11C      		adc r10,__zero_reg__
 13700 574e B11C      		adc r11,__zero_reg__
 13701               	.L743:
 13702 5750 C501      		movw r24,r10
 13703 5752 B601      		movw r22,r12
 13704 5754 45E0      		ldi r20,lo8(5)
 13705 5756 50E0      		ldi r21,hi8(5)
 13706 5758 0E94 0000 		call readEEPROM
 13707 575c 0197      		sbiw r24,1
 13708 575e 01F4      		brne .L742
 13709               	.LM1774:
 13710 5760 F801      		movw r30,r16
 13711 5762 EE0F      		lsl r30
 13712 5764 FF1F      		rol r31
 13713 5766 E00F      		add r30,r16
 13714 5768 F11F      		adc r31,r17
 13715 576a E050      		subi r30,lo8(-(colorChanges))
 13716 576c F040      		sbci r31,hi8(-(colorChanges))
 13717 576e 8981      		ldd r24,Y+1
 13718 5770 8083      		st Z,r24
 13719 5772 8A81      		ldd r24,Y+2
 13720 5774 F701      		movw r30,r14
 13721 5776 8083      		st Z,r24
 13722 5778 8B81      		ldd r24,Y+3
 13723 577a 8183      		std Z+1,r24
 13724               	.L742:
 13725               	.LM1775:
 13726 577c 0F5F      		subi r16,lo8(-(1))
 13727 577e 1F4F      		sbci r17,hi8(-(1))
 13728 5780 85E0      		ldi r24,lo8(5)
 13729 5782 90E0      		ldi r25,hi8(5)
 13730 5784 C80E      		add r12,r24
 13731 5786 D91E      		adc r13,r25
 13732 5788 E3E0      		ldi r30,lo8(3)
 13733 578a F0E0      		ldi r31,hi8(3)
 13734 578c EE0E      		add r14,r30
 13735 578e FF1E      		adc r15,r31
 13736 5790 0630      		cpi r16,6
 13737 5792 1105      		cpc r17,__zero_reg__
 13738 5794 01F4      		brne .L743
 13739               	/* epilogue start */
 13740               	.LM1776:
 13741 5796 2E96      		adiw r28,14
 13742 5798 0FB6      		in __tmp_reg__,__SREG__
 13743 579a F894      		cli
 13744 579c DEBF      		out __SP_H__,r29
 13745 579e 0FBE      		out __SREG__,__tmp_reg__
 13746 57a0 CDBF      		out __SP_L__,r28
 13747 57a2 CF91      		pop r28
 13748 57a4 DF91      		pop r29
 13749 57a6 1F91      		pop r17
 13750 57a8 0F91      		pop r16
 13751               	.LVL753:
 13752 57aa FF90      		pop r15
 13753 57ac EF90      		pop r14
 13754 57ae DF90      		pop r13
 13755 57b0 CF90      		pop r12
 13756 57b2 BF90      		pop r11
 13757 57b4 AF90      		pop r10
 13758 57b6 0895      		ret
 13759               	.LFE41:
 13761               	.global	startProgram
 13763               	startProgram:
 13764               	.LFB39:
 13765               	.LM1777:
 13766               	.LVL754:
 13767 57b8 0F93      		push r16
 13768 57ba 1F93      		push r17
 13769 57bc CF93      		push r28
 13770 57be DF93      		push r29
 13771               	/* prologue: function */
 13772               	/* frame size = 0 */
 13773 57c0 EC01      		movw r28,r24
 13774               	.LM1778:
 13775 57c2 8B81      		ldd r24,Y+3
 13776               	.LVL755:
 13777 57c4 8093 0000 		sts tempIntString,r24
 13778               	.LM1779:
 13779 57c8 8C81      		ldd r24,Y+4
 13780 57ca 8093 0000 		sts tempIntString+1,r24
 13781               	.LM1780:
 13782 57ce 80E0      		ldi r24,lo8(tempIntString)
 13783 57d0 90E0      		ldi r25,hi8(tempIntString)
 13784 57d2 0E94 0000 		call atoi
 13785 57d6 8C01      		movw r16,r24
 13786               	.LVL756:
 13787               	.LM1781:
 13788 57d8 8431      		cpi r24,20
 13789 57da 9105      		cpc r25,__zero_reg__
 13790 57dc 04F0      		brlt .L755
 13791               	.LVL757:
 13792               	.LM1782:
 13793 57de 82E0      		ldi r24,lo8(2)
 13794 57e0 90E0      		ldi r25,hi8(2)
 13795               	.LVL758:
 13796 57e2 0E94 0000 		call fail
 13797 57e6 00C0      		rjmp .L757
 13798               	.LVL759:
 13799               	.L755:
 13800               	.LM1783:
 13801 57e8 8D81      		ldd r24,Y+5
 13802               	.LVL760:
 13803 57ea 8093 0000 		sts tempHugeString,r24
 13804               	.LM1784:
 13805 57ee 8E81      		ldd r24,Y+6
 13806 57f0 8093 0000 		sts tempHugeString+1,r24
 13807               	.LM1785:
 13808 57f4 8F81      		ldd r24,Y+7
 13809 57f6 8093 0000 		sts tempHugeString+2,r24
 13810               	.LM1786:
 13811 57fa 8885      		ldd r24,Y+8
 13812 57fc 8093 0000 		sts tempHugeString+3,r24
 13813               	.LM1787:
 13814 5800 8985      		ldd r24,Y+9
 13815 5802 8093 0000 		sts tempHugeString+4,r24
 13816               	.LM1788:
 13817 5806 8A85      		ldd r24,Y+10
 13818 5808 8093 0000 		sts tempHugeString+5,r24
 13819               	.LM1789:
 13820 580c 80E0      		ldi r24,lo8(tempHugeString)
 13821 580e 90E0      		ldi r25,hi8(tempHugeString)
 13822 5810 0E94 0000 		call atol
 13823 5814 9B01      		movw r18,r22
 13824 5816 AC01      		movw r20,r24
 13825               	.LM1790:
 13826 5818 C801      		movw r24,r16
 13827 581a B901      		movw r22,r18
 13828 581c 20E0      		ldi r18,lo8(0)
 13829 581e 30E0      		ldi r19,hi8(0)
 13830 5820 40E0      		ldi r20,hlo8(0)
 13831 5822 50E0      		ldi r21,hhi8(0)
 13832 5824 0E94 0000 		call startTheProgram
 13833               	.LM1791:
 13834 5828 0E94 0000 		call ok
 13835               	.L757:
 13836               	/* epilogue start */
 13837               	.LM1792:
 13838 582c DF91      		pop r29
 13839 582e CF91      		pop r28
 13840               	.LVL761:
 13841 5830 1F91      		pop r17
 13842 5832 0F91      		pop r16
 13843               	.LVL762:
 13844 5834 0895      		ret
 13845               	.LFE39:
 13847               	.global	startSwitch
 13849               	startSwitch:
 13850               	.LFB15:
 13851               	.LM1793:
 13852               	.LVL763:
 13853 5836 BF92      		push r11
 13854 5838 CF92      		push r12
 13855 583a DF92      		push r13
 13856 583c EF92      		push r14
 13857 583e FF92      		push r15
 13858 5840 0F93      		push r16
 13859 5842 1F93      		push r17
 13860 5844 DF93      		push r29
 13861 5846 CF93      		push r28
 13862 5848 00D0      		rcall .
 13863 584a 0F92      		push __tmp_reg__
 13864 584c CDB7      		in r28,__SP_L__
 13865 584e DEB7      		in r29,__SP_H__
 13866               	/* prologue: function */
 13867               	/* frame size = 3 */
 13868 5850 8C01      		movw r16,r24
 13869               	.LM1794:
 13870 5852 0E94 0000 		call getSwitchNumber
 13871               	.LVL764:
 13872 5856 6C01      		movw r12,r24
 13873               	.LVL765:
 13874               	.LM1795:
 13875 5858 80E1      		ldi r24,lo8(16)
 13876 585a C816      		cp r12,r24
 13877 585c D104      		cpc r13,__zero_reg__
 13878 585e 04F4      		brge .L759
 13879 5860 F601      		movw r30,r12
 13880 5862 E050      		subi r30,lo8(-(switchStuff))
 13881 5864 F040      		sbci r31,hi8(-(switchStuff))
 13882 5866 B080      		ld r11,Z
 13883 5868 9FEF      		ldi r25,lo8(-1)
 13884 586a B916      		cp r11,r25
 13885 586c 01F4      		brne .L760
 13886               	.L759:
 13887               	.LM1796:
 13888 586e 81E0      		ldi r24,lo8(1)
 13889 5870 90E0      		ldi r25,hi8(1)
 13890 5872 00C0      		rjmp .L776
 13891               	.L760:
 13892               	.LM1797:
 13893 5874 F801      		movw r30,r16
 13894 5876 8581      		ldd r24,Z+5
 13895 5878 8093 0000 		sts tempHugeString,r24
 13896               	.LM1798:
 13897 587c 8681      		ldd r24,Z+6
 13898 587e 8093 0000 		sts tempHugeString+1,r24
 13899               	.LM1799:
 13900 5882 8781      		ldd r24,Z+7
 13901 5884 8093 0000 		sts tempHugeString+2,r24
 13902               	.LM1800:
 13903 5888 8085      		ldd r24,Z+8
 13904 588a 8093 0000 		sts tempHugeString+3,r24
 13905               	.LM1801:
 13906 588e 8185      		ldd r24,Z+9
 13907 5890 8093 0000 		sts tempHugeString+4,r24
 13908               	.LM1802:
 13909 5894 8285      		ldd r24,Z+10
 13910 5896 8093 0000 		sts tempHugeString+5,r24
 13911               	.LM1803:
 13912 589a 80E0      		ldi r24,lo8(tempHugeString)
 13913 589c 90E0      		ldi r25,hi8(tempHugeString)
 13914 589e 0E94 0000 		call atol
 13915 58a2 9B01      		movw r18,r22
 13916 58a4 AC01      		movw r20,r24
 13917               	.LM1804:
 13918 58a6 2115      		cp r18,__zero_reg__
 13919 58a8 3105      		cpc r19,__zero_reg__
 13920 58aa 4105      		cpc r20,__zero_reg__
 13921 58ac 5105      		cpc r21,__zero_reg__
 13922               	.LVL766:
 13923 58ae 01F4      		brne .L762
 13924               	.LM1805:
 13925 58b0 85E0      		ldi r24,lo8(5)
 13926 58b2 90E0      		ldi r25,hi8(5)
 13927               	.L776:
 13928 58b4 0E94 0000 		call fail
 13929               	.LVL767:
 13930 58b8 00C0      		rjmp .L774
 13931               	.LVL768:
 13932               	.L762:
 13933               	.LM1806:
 13934 58ba E090 0000 		lds r14,weeklySeconds
 13935 58be F090 0000 		lds r15,(weeklySeconds)+1
 13936 58c2 0091 0000 		lds r16,(weeklySeconds)+2
 13937 58c6 1091 0000 		lds r17,(weeklySeconds)+3
 13938 58ca E20E      		add r14,r18
 13939 58cc F31E      		adc r15,r19
 13940 58ce 041F      		adc r16,r20
 13941 58d0 151F      		adc r17,r21
 13942 58d2 F601      		movw r30,r12
 13943 58d4 EE0F      		lsl r30
 13944 58d6 FF1F      		rol r31
 13945 58d8 EE0F      		lsl r30
 13946 58da FF1F      		rol r31
 13947 58dc E050      		subi r30,lo8(-(switchStatus))
 13948 58de F040      		sbci r31,hi8(-(switchStatus))
 13949 58e0 8081      		ld r24,Z
 13950 58e2 9181      		ldd r25,Z+1
 13951 58e4 A281      		ldd r26,Z+2
 13952 58e6 B381      		ldd r27,Z+3
 13953 58e8 8E15      		cp r24,r14
 13954 58ea 9F05      		cpc r25,r15
 13955 58ec A007      		cpc r26,r16
 13956 58ee B107      		cpc r27,r17
 13957 58f0 00F4      		brsh .L763
 13958               	.LM1807:
 13959 58f2 E082      		st Z,r14
 13960 58f4 F182      		std Z+1,r15
 13961 58f6 0283      		std Z+2,r16
 13962 58f8 1383      		std Z+3,r17
 13963               	.L763:
 13964               	.LM1808:
 13965 58fa 8B2D      		mov r24,r11
 13966 58fc 885C      		subi r24,lo8(-(56))
 13967 58fe 8531      		cpi r24,lo8(21)
 13968 5900 00F0      		brlo .+2
 13969 5902 00C0      		rjmp .L764
 13970 5904 8091 0000 		lds r24,immediateChange
 13971 5908 9091 0000 		lds r25,(immediateChange)+1
 13972 590c A091 0000 		lds r26,(immediateChange)+2
 13973 5910 B091 0000 		lds r27,(immediateChange)+3
 13974 5914 0097      		sbiw r24,0
 13975 5916 A105      		cpc r26,__zero_reg__
 13976 5918 B105      		cpc r27,__zero_reg__
 13977 591a 01F0      		breq .+2
 13978 591c 00C0      		rjmp .L764
 13979               	.LM1809:
 13980 591e F8EC      		ldi r31,lo8(-56)
 13981 5920 BF16      		cp r11,r31
 13982 5922 01F0      		breq .+2
 13983 5924 00C0      		rjmp .L765
 13984               	.LM1810:
 13985 5926 8091 0000 		lds r24,pwmValues
 13986 592a 90E0      		ldi r25,lo8(0)
 13987               	.LM1811:
 13988 592c 2091 0000 		lds r18,pwmValues+1
 13989               	.LVL769:
 13990 5930 30E0      		ldi r19,lo8(0)
 13991               	.LM1812:
 13992 5932 E091 0000 		lds r30,pwmValues+2
 13993 5936 F0E0      		ldi r31,lo8(0)
 13994               	.LM1813:
 13995 5938 4091 0000 		lds r20,bright
 13996 593c 5091 0000 		lds r21,(bright)+1
 13997 5940 849F      		mul r24,r20
 13998 5942 B001      		movw r22,r0
 13999 5944 859F      		mul r24,r21
 14000 5946 700D      		add r23,r0
 14001 5948 949F      		mul r25,r20
 14002 594a 700D      		add r23,r0
 14003 594c 1124      		clr r1
 14004 594e B4E0      		ldi r27,4
 14005 5950 7695      	1:	lsr r23
 14006 5952 6795      		ror r22
 14007 5954 BA95      		dec r27
 14008 5956 01F4      		brne 1b
 14009 5958 7093 0000 		sts (red)+1,r23
 14010 595c 6093 0000 		sts red,r22
 14011               	.LM1814:
 14012 5960 C901      		movw r24,r18
 14013 5962 849F      		mul r24,r20
 14014 5964 9001      		movw r18,r0
 14015 5966 859F      		mul r24,r21
 14016 5968 300D      		add r19,r0
 14017 596a 949F      		mul r25,r20
 14018 596c 300D      		add r19,r0
 14019 596e 1124      		clr r1
 14020 5970 A4E0      		ldi r26,4
 14021 5972 3695      	1:	lsr r19
 14022 5974 2795      		ror r18
 14023 5976 AA95      		dec r26
 14024 5978 01F4      		brne 1b
 14025 597a 3093 0000 		sts (green)+1,r19
 14026 597e 2093 0000 		sts green,r18
 14027               	.LM1815:
 14028 5982 E49F      		mul r30,r20
 14029 5984 C001      		movw r24,r0
 14030 5986 E59F      		mul r30,r21
 14031 5988 900D      		add r25,r0
 14032 598a F49F      		mul r31,r20
 14033 598c 900D      		add r25,r0
 14034 598e 1124      		clr r1
 14035 5990 74E0      		ldi r23,4
 14036 5992 9695      	1:	lsr r25
 14037 5994 8795      		ror r24
 14038 5996 7A95      		dec r23
 14039 5998 01F4      		brne 1b
 14040 599a 9093 0000 		sts (blue)+1,r25
 14041 599e 8093 0000 		sts blue,r24
 14042               	.LM1816:
 14043 59a2 6093 B400 		sts 180,r22
 14044               	.LM1817:
 14045 59a6 28BD      		out 72-32,r18
 14046               	.LM1818:
 14047 59a8 87BD      		out 71-32,r24
 14048 59aa 00C0      		rjmp .L766
 14049               	.LVL770:
 14050               	.L765:
 14051               	.LM1819:
 14052 59ac 9AEC      		ldi r25,lo8(-54)
 14053 59ae B916      		cp r11,r25
 14054 59b0 01F4      		brne .L767
 14055               	.LM1820:
 14056 59b2 81E0      		ldi r24,lo8(1)
 14057 59b4 8093 0000 		sts runColorChanges,r24
 14058 59b8 00C0      		rjmp .L766
 14059               	.L767:
 14060               	.LM1821:
 14061 59ba E4ED      		ldi r30,lo8(-44)
 14062 59bc BE16      		cp r11,r30
 14063 59be 01F4      		brne .L768
 14064               	.LM1822:
 14065 59c0 80E0      		ldi r24,lo8(switchBright)
 14066 59c2 90E0      		ldi r25,hi8(switchBright)
 14067 59c4 C80E      		add r12,r24
 14068 59c6 D91E      		adc r13,r25
 14069 59c8 F601      		movw r30,r12
 14070 59ca 8081      		ld r24,Z
 14071 59cc 8093 0000 		sts bright,r24
 14072 59d0 1092 0000 		sts bright+1,__zero_reg__
 14073 59d4 00C0      		rjmp .L766
 14074               	.L768:
 14075               	.LM1823:
 14076 59d6 81E0      		ldi r24,lo8(1)
 14077 59d8 8093 0000 		sts runHue,r24
 14078 59dc 00C0      		rjmp .L766
 14079               	.L764:
 14080               	.LBB165:
 14081               	.LM1824:
 14082 59de C601      		movw r24,r12
 14083 59e0 BE01      		movw r22,r28
 14084 59e2 6F5F      		subi r22,lo8(-(1))
 14085 59e4 7F4F      		sbci r23,hi8(-(1))
 14086 59e6 AE01      		movw r20,r28
 14087 59e8 4E5F      		subi r20,lo8(-(2))
 14088 59ea 5F4F      		sbci r21,hi8(-(2))
 14089 59ec 9E01      		movw r18,r28
 14090               	.LVL771:
 14091 59ee 2D5F      		subi r18,lo8(-(3))
 14092 59f0 3F4F      		sbci r19,hi8(-(3))
 14093 59f2 0E94 0000 		call getPort
 14094               	.LM1825:
 14095 59f6 3A81      		ldd r19,Y+2
 14096               	.LVL772:
 14097               	.LM1826:
 14098 59f8 8981      		ldd r24,Y+1
 14099 59fa 8234      		cpi r24,lo8(66)
 14100 59fc 01F4      		brne .L769
 14101 59fe E5E2      		ldi r30,lo8(37)
 14102 5a00 F0E0      		ldi r31,hi8(37)
 14103               	.LVL773:
 14104 5a02 00C0      		rjmp .L770
 14105               	.LVL774:
 14106               	.L769:
 14107               	.LM1827:
 14108 5a04 8334      		cpi r24,lo8(67)
 14109 5a06 01F4      		brne .L771
 14110 5a08 E8E2      		ldi r30,lo8(40)
 14111 5a0a F0E0      		ldi r31,hi8(40)
 14112               	.LVL775:
 14113 5a0c 00C0      		rjmp .L770
 14114               	.LVL776:
 14115               	.L771:
 14116               	.LM1828:
 14117 5a0e 8434      		cpi r24,lo8(68)
 14118 5a10 01F4      		brne .L772
 14119 5a12 EBE2      		ldi r30,lo8(43)
 14120 5a14 F0E0      		ldi r31,hi8(43)
 14121               	.LVL777:
 14122 5a16 00C0      		rjmp .L770
 14123               	.LVL778:
 14124               	.L772:
 14125 5a18 E0E0      		ldi r30,lo8(0)
 14126 5a1a F0E0      		ldi r31,hi8(0)
 14127               	.LVL779:
 14128               	.L770:
 14129               	.LM1829:
 14130 5a1c 8B81      		ldd r24,Y+3
 14131 5a1e 8823      		tst r24
 14132 5a20 01F4      		brne .L773
 14133               	.LM1830:
 14134 5a22 2081      		ld r18,Z
 14135 5a24 81E0      		ldi r24,lo8(1)
 14136 5a26 90E0      		ldi r25,hi8(1)
 14137 5a28 00C0      		rjmp 2f
 14138 5a2a 880F      	1:	lsl r24
 14139 5a2c 991F      		rol r25
 14140 5a2e 3A95      	2:	dec r19
 14141 5a30 02F4      		brpl 1b
 14142 5a32 8095      		com r24
 14143 5a34 2823      		and r18,r24
 14144 5a36 00C0      		rjmp .L775
 14145               	.L773:
 14146               	.LM1831:
 14147 5a38 2081      		ld r18,Z
 14148 5a3a 81E0      		ldi r24,lo8(1)
 14149 5a3c 90E0      		ldi r25,hi8(1)
 14150 5a3e 00C0      		rjmp 2f
 14151 5a40 880F      	1:	lsl r24
 14152 5a42 991F      		rol r25
 14153 5a44 3A95      	2:	dec r19
 14154 5a46 02F4      		brpl 1b
 14155 5a48 282B      		or r18,r24
 14156               	.L775:
 14157 5a4a 2083      		st Z,r18
 14158               	.LVL780:
 14159               	.L766:
 14160               	.LBE165:
 14161               	.LM1832:
 14162 5a4c 0E94 0000 		call ok
 14163               	.LVL781:
 14164               	.L774:
 14165               	/* epilogue start */
 14166               	.LM1833:
 14167 5a50 0F90      		pop __tmp_reg__
 14168 5a52 0F90      		pop __tmp_reg__
 14169 5a54 0F90      		pop __tmp_reg__
 14170 5a56 CF91      		pop r28
 14171 5a58 DF91      		pop r29
 14172 5a5a 1F91      		pop r17
 14173 5a5c 0F91      		pop r16
 14174               	.LVL782:
 14175 5a5e FF90      		pop r15
 14176 5a60 EF90      		pop r14
 14177 5a62 DF90      		pop r13
 14178 5a64 CF90      		pop r12
 14179               	.LVL783:
 14180 5a66 BF90      		pop r11
 14181 5a68 0895      		ret
 14182               	.LFE15:
 14184               	.global	checkCommand
 14186               	checkCommand:
 14187               	.LFB7:
 14188               	.LM1834:
 14189               	.LVL784:
 14190               	/* prologue: function */
 14191               	/* frame size = 0 */
 14192 5a6a FC01      		movw r30,r24
 14193               	.LM1835:
 14194 5a6c 8081      		ld r24,Z
 14195               	.LVL785:
 14196 5a6e 8136      		cpi r24,lo8(97)
 14197 5a70 00F0      		brlo .L778
 14198               	.LM1836:
 14199 5a72 8052      		subi r24,lo8(-(-32))
 14200 5a74 8083      		st Z,r24
 14201               	.L778:
 14202               	.LM1837:
 14203 5a76 8181      		ldd r24,Z+1
 14204 5a78 8136      		cpi r24,lo8(97)
 14205 5a7a 00F0      		brlo .L779
 14206               	.LM1838:
 14207 5a7c 8052      		subi r24,lo8(-(-32))
 14208 5a7e 8183      		std Z+1,r24
 14209               	.L779:
 14210               	.LM1839:
 14211 5a80 9081      		ld r25,Z
 14212               	.LVL786:
 14213 5a82 80E0      		ldi r24,lo8(0)
 14214               	.LVL787:
 14215               	.LM1840:
 14216 5a84 2181      		ldd r18,Z+1
 14217 5a86 30E0      		ldi r19,lo8(0)
 14218 5a88 282B      		or r18,r24
 14219 5a8a 392B      		or r19,r25
 14220 5a8c 80E5      		ldi r24,hi8(20548)
 14221 5a8e 2434      		cpi r18,lo8(20548)
 14222 5a90 3807      		cpc r19,r24
 14223               	.LVL788:
 14224 5a92 01F4      		brne .+2
 14225 5a94 00C0      		rjmp .L799
 14226 5a96 80E5      		ldi r24,hi8(20549)
 14227 5a98 2534      		cpi r18,lo8(20549)
 14228 5a9a 3807      		cpc r19,r24
 14229 5a9c 04F0      		brlt .+2
 14230 5a9e 00C0      		rjmp .L818
 14231 5aa0 84E4      		ldi r24,hi8(17481)
 14232 5aa2 2934      		cpi r18,lo8(17481)
 14233 5aa4 3807      		cpc r19,r24
 14234 5aa6 01F4      		brne .+2
 14235 5aa8 00C0      		rjmp .L789
 14236 5aaa 84E4      		ldi r24,hi8(17482)
 14237 5aac 2A34      		cpi r18,lo8(17482)
 14238 5aae 3807      		cpc r19,r24
 14239 5ab0 04F4      		brge .L819
 14240 5ab2 83E4      		ldi r24,hi8(17224)
 14241 5ab4 2834      		cpi r18,lo8(17224)
 14242 5ab6 3807      		cpc r19,r24
 14243 5ab8 01F4      		brne .+2
 14244 5aba 00C0      		rjmp .L784
 14245 5abc 83E4      		ldi r24,hi8(17225)
 14246 5abe 2934      		cpi r18,lo8(17225)
 14247 5ac0 3807      		cpc r19,r24
 14248 5ac2 04F4      		brge .L820
 14249 5ac4 82E4      		ldi r24,hi8(16979)
 14250 5ac6 2335      		cpi r18,lo8(16979)
 14251 5ac8 3807      		cpc r19,r24
 14252 5aca 01F4      		brne .+2
 14253 5acc 00C0      		rjmp .L782
 14254 5ace 83E4      		ldi r24,hi8(17219)
 14255 5ad0 2334      		cpi r18,lo8(17219)
 14256 5ad2 3807      		cpc r19,r24
 14257 5ad4 01F4      		brne .+2
 14258 5ad6 00C0      		rjmp .L783
 14259 5ad8 2954      		subi r18,lo8(16713)
 14260 5ada 3144      		sbci r19,hi8(16713)
 14261 5adc 01F0      		breq .+2
 14262 5ade 00C0      		rjmp .L780
 14263 5ae0 00C0      		rjmp .L832
 14264               	.L820:
 14265 5ae2 83E4      		ldi r24,hi8(17228)
 14266 5ae4 2C34      		cpi r18,lo8(17228)
 14267 5ae6 3807      		cpc r19,r24
 14268 5ae8 01F4      		brne .+2
 14269 5aea 00C0      		rjmp .L786
 14270 5aec 83E4      		ldi r24,hi8(17229)
 14271 5aee 2D34      		cpi r18,lo8(17229)
 14272 5af0 3807      		cpc r19,r24
 14273 5af2 04F4      		brge .L821
 14274 5af4 2954      		subi r18,lo8(17225)
 14275 5af6 3344      		sbci r19,hi8(17225)
 14276 5af8 01F0      		breq .+2
 14277 5afa 00C0      		rjmp .L780
 14278 5afc 00C0      		rjmp .L833
 14279               	.L821:
 14280 5afe 83E4      		ldi r24,hi8(17232)
 14281 5b00 2035      		cpi r18,lo8(17232)
 14282 5b02 3807      		cpc r19,r24
 14283 5b04 01F4      		brne .+2
 14284 5b06 00C0      		rjmp .L787
 14285 5b08 2455      		subi r18,lo8(17236)
 14286 5b0a 3344      		sbci r19,hi8(17236)
 14287 5b0c 01F0      		breq .+2
 14288 5b0e 00C0      		rjmp .L780
 14289 5b10 00C0      		rjmp .L834
 14290               	.L819:
 14291 5b12 89E4      		ldi r24,hi8(18755)
 14292 5b14 2334      		cpi r18,lo8(18755)
 14293 5b16 3807      		cpc r19,r24
 14294 5b18 01F4      		brne .+2
 14295 5b1a 00C0      		rjmp .L794
 14296 5b1c 89E4      		ldi r24,hi8(18756)
 14297 5b1e 2434      		cpi r18,lo8(18756)
 14298 5b20 3807      		cpc r19,r24
 14299 5b22 04F4      		brge .L822
 14300 5b24 87E4      		ldi r24,hi8(18249)
 14301 5b26 2934      		cpi r18,lo8(18249)
 14302 5b28 3807      		cpc r19,r24
 14303 5b2a 01F4      		brne .+2
 14304 5b2c 00C0      		rjmp .L791
 14305 5b2e 87E4      		ldi r24,hi8(18250)
 14306 5b30 2A34      		cpi r18,lo8(18250)
 14307 5b32 3807      		cpc r19,r24
 14308 5b34 04F4      		brge .L823
 14309 5b36 2355      		subi r18,lo8(17491)
 14310 5b38 3444      		sbci r19,hi8(17491)
 14311 5b3a 01F0      		breq .+2
 14312 5b3c 00C0      		rjmp .L780
 14313 5b3e 00C0      		rjmp .L835
 14314               	.L823:
 14315 5b40 87E4      		ldi r24,hi8(18259)
 14316 5b42 2335      		cpi r18,lo8(18259)
 14317 5b44 3807      		cpc r19,r24
 14318 5b46 01F4      		brne .+2
 14319 5b48 00C0      		rjmp .L792
 14320 5b4a 2456      		subi r18,lo8(18532)
 14321 5b4c 3844      		sbci r19,hi8(18532)
 14322 5b4e 01F0      		breq .+2
 14323 5b50 00C0      		rjmp .L780
 14324 5b52 00C0      		rjmp .L836
 14325               	.L822:
 14326 5b54 8EE4      		ldi r24,hi8(20048)
 14327 5b56 2035      		cpi r18,lo8(20048)
 14328 5b58 3807      		cpc r19,r24
 14329 5b5a 01F4      		brne .+2
 14330 5b5c 00C0      		rjmp .L796
 14331 5b5e 8EE4      		ldi r24,hi8(20049)
 14332 5b60 2135      		cpi r18,lo8(20049)
 14333 5b62 3807      		cpc r19,r24
 14334 5b64 04F4      		brge .L824
 14335 5b66 2055      		subi r18,lo8(18768)
 14336 5b68 3944      		sbci r19,hi8(18768)
 14337 5b6a 01F0      		breq .+2
 14338 5b6c 00C0      		rjmp .L780
 14339 5b6e 00C0      		rjmp .L837
 14340               	.L824:
 14341 5b70 8EE4      		ldi r24,hi8(20051)
 14342 5b72 2335      		cpi r18,lo8(20051)
 14343 5b74 3807      		cpc r19,r24
 14344 5b76 01F4      		brne .+2
 14345 5b78 00C0      		rjmp .L797
 14346 5b7a 2154      		subi r18,lo8(20545)
 14347 5b7c 3045      		sbci r19,hi8(20545)
 14348 5b7e 01F0      		breq .+2
 14349 5b80 00C0      		rjmp .L780
 14350 5b82 00C0      		rjmp .L838
 14351               	.L818:
 14352 5b84 83E5      		ldi r24,hi8(21313)
 14353 5b86 2134      		cpi r18,lo8(21313)
 14354 5b88 3807      		cpc r19,r24
 14355 5b8a 01F4      		brne .+2
 14356 5b8c 00C0      		rjmp .L808
 14357 5b8e 83E5      		ldi r24,hi8(21314)
 14358 5b90 2234      		cpi r18,lo8(21314)
 14359 5b92 3807      		cpc r19,r24
 14360 5b94 04F4      		brge .L825
 14361 5b96 80E5      		ldi r24,hi8(20564)
 14362 5b98 2435      		cpi r18,lo8(20564)
 14363 5b9a 3807      		cpc r19,r24
 14364 5b9c 01F4      		brne .+2
 14365 5b9e 00C0      		rjmp .L803
 14366 5ba0 80E5      		ldi r24,hi8(20565)
 14367 5ba2 2535      		cpi r18,lo8(20565)
 14368 5ba4 3807      		cpc r19,r24
 14369 5ba6 04F4      		brge .L826
 14370 5ba8 80E5      		ldi r24,hi8(20560)
 14371 5baa 2035      		cpi r18,lo8(20560)
 14372 5bac 3807      		cpc r19,r24
 14373 5bae 01F4      		brne .+2
 14374 5bb0 00C0      		rjmp .L801
 14375 5bb2 80E5      		ldi r24,hi8(20563)
 14376 5bb4 2335      		cpi r18,lo8(20563)
 14377 5bb6 3807      		cpc r19,r24
 14378 5bb8 01F4      		brne .+2
 14379 5bba 00C0      		rjmp .L802
 14380 5bbc 2954      		subi r18,lo8(20553)
 14381 5bbe 3045      		sbci r19,hi8(20553)
 14382 5bc0 01F0      		breq .+2
 14383 5bc2 00C0      		rjmp .L780
 14384 5bc4 00C0      		rjmp .L839
 14385               	.L826:
 14386 5bc6 80E5      		ldi r24,hi8(20567)
 14387 5bc8 2735      		cpi r18,lo8(20567)
 14388 5bca 3807      		cpc r19,r24
 14389 5bcc 01F4      		brne .+2
 14390 5bce 00C0      		rjmp .L805
 14391 5bd0 80E5      		ldi r24,hi8(20568)
 14392 5bd2 2835      		cpi r18,lo8(20568)
 14393 5bd4 3807      		cpc r19,r24
 14394 5bd6 04F4      		brge .L827
 14395 5bd8 2655      		subi r18,lo8(20566)
 14396 5bda 3045      		sbci r19,hi8(20566)
 14397 5bdc 01F0      		breq .+2
 14398 5bde 00C0      		rjmp .L780
 14399 5be0 00C0      		rjmp .L840
 14400               	.L827:
 14401 5be2 82E5      		ldi r24,hi8(21059)
 14402 5be4 2334      		cpi r18,lo8(21059)
 14403 5be6 3807      		cpc r19,r24
 14404 5be8 01F4      		brne .+2
 14405 5bea 00C0      		rjmp .L806
 14406 5bec 2454      		subi r18,lo8(21060)
 14407 5bee 3245      		sbci r19,hi8(21060)
 14408 5bf0 01F0      		breq .+2
 14409 5bf2 00C0      		rjmp .L780
 14410 5bf4 00C0      		rjmp .L841
 14411               	.L825:
 14412 5bf6 83E5      		ldi r24,hi8(21328)
 14413 5bf8 2035      		cpi r18,lo8(21328)
 14414 5bfa 3807      		cpc r19,r24
 14415 5bfc 01F4      		brne .+2
 14416 5bfe 00C0      		rjmp .L813
 14417 5c00 83E5      		ldi r24,hi8(21329)
 14418 5c02 2135      		cpi r18,lo8(21329)
 14419 5c04 3807      		cpc r19,r24
 14420 5c06 04F4      		brge .L828
 14421 5c08 83E5      		ldi r24,hi8(21315)
 14422 5c0a 2334      		cpi r18,lo8(21315)
 14423 5c0c 3807      		cpc r19,r24
 14424 5c0e 01F0      		breq .L810
 14425 5c10 83E5      		ldi r24,hi8(21315)
 14426 5c12 2334      		cpi r18,lo8(21315)
 14427 5c14 3807      		cpc r19,r24
 14428 5c16 04F4      		brge .+2
 14429 5c18 00C0      		rjmp .L809
 14430 5c1a 83E5      		ldi r24,hi8(21316)
 14431 5c1c 2434      		cpi r18,lo8(21316)
 14432 5c1e 3807      		cpc r19,r24
 14433 5c20 01F0      		breq .L811
 14434 5c22 2F54      		subi r18,lo8(21327)
 14435 5c24 3345      		sbci r19,hi8(21327)
 14436 5c26 01F0      		breq .+2
 14437 5c28 00C0      		rjmp .L780
 14438 5c2a 00C0      		rjmp .L842
 14439               	.L828:
 14440 5c2c 83E5      		ldi r24,hi8(21335)
 14441 5c2e 2735      		cpi r18,lo8(21335)
 14442 5c30 3807      		cpc r19,r24
 14443 5c32 01F4      		brne .+2
 14444 5c34 00C0      		rjmp .L815
 14445 5c36 83E5      		ldi r24,hi8(21336)
 14446 5c38 2835      		cpi r18,lo8(21336)
 14447 5c3a 3807      		cpc r19,r24
 14448 5c3c 04F4      		brge .L829
 14449 5c3e 2355      		subi r18,lo8(21331)
 14450 5c40 3345      		sbci r19,hi8(21331)
 14451 5c42 01F0      		breq .+2
 14452 5c44 00C0      		rjmp .L780
 14453 5c46 00C0      		rjmp .L843
 14454               	.L829:
 14455 5c48 84E5      		ldi r24,hi8(21577)
 14456 5c4a 2934      		cpi r18,lo8(21577)
 14457 5c4c 3807      		cpc r19,r24
 14458 5c4e 01F0      		breq .L816
 14459 5c50 2C54      		subi r18,lo8(21580)
 14460 5c52 3445      		sbci r19,hi8(21580)
 14461 5c54 01F0      		breq .+2
 14462 5c56 00C0      		rjmp .L780
 14463 5c58 00C0      		rjmp .L844
 14464               	.L816:
 14465               	.LM1841:
 14466 5c5a CF01      		movw r24,r30
 14467 5c5c 0E94 0000 		call setClock
 14468               	.LVL789:
 14469 5c60 0895      		ret
 14470               	.LVL790:
 14471               	.L835:
 14472               	.LM1842:
 14473 5c62 CF01      		movw r24,r30
 14474 5c64 0E94 0000 		call setDaylightSavings
 14475               	.LVL791:
 14476 5c68 0895      		ret
 14477               	.LVL792:
 14478               	.L844:
 14479               	.LM1843:
 14480 5c6a CF01      		movw r24,r30
 14481 5c6c 0E94 0000 		call setTimeLimits
 14482               	.LVL793:
 14483 5c70 0895      		ret
 14484               	.LVL794:
 14485               	.L797:
 14486               	.LM1844:
 14487 5c72 CF01      		movw r24,r30
 14488 5c74 0E94 0000 		call setNewSwitch
 14489               	.LVL795:
 14490 5c78 0895      		ret
 14491               	.LVL796:
 14492               	.L810:
 14493               	.LM1845:
 14494 5c7a CF01      		movw r24,r30
 14495 5c7c 0E94 0000 		call switchClear
 14496               	.LVL797:
 14497 5c80 0895      		ret
 14498               	.LVL798:
 14499               	.L811:
 14500               	.LM1846:
 14501 5c82 CF01      		movw r24,r30
 14502 5c84 0E94 0000 		call switchDisplay
 14503               	.LVL799:
 14504 5c88 0895      		ret
 14505               	.LVL800:
 14506               	.L802:
 14507               	.LM1847:
 14508 5c8a CF01      		movw r24,r30
 14509 5c8c 0E94 0000 		call pwmSetup
 14510               	.LVL801:
 14511 5c90 0895      		ret
 14512               	.LVL802:
 14513               	.L784:
 14514               	.LM1848:
 14515 5c92 CF01      		movw r24,r30
 14516 5c94 0E94 0000 		call cycleHue
 14517               	.LVL803:
 14518 5c98 0895      		ret
 14519               	.LVL804:
 14520               	.L836:
 14521               	.LM1849:
 14522 5c9a CF01      		movw r24,r30
 14523 5c9c 0E94 0000 		call setHueSpeed
 14524               	.LVL805:
 14525 5ca0 0895      		ret
 14526               	.LVL806:
 14527               	.L840:
 14528               	.LM1850:
 14529 5ca2 CF01      		movw r24,r30
 14530 5ca4 0E94 0000 		call pwmValueSet
 14531               	.LVL807:
 14532 5ca8 0895      		ret
 14533               	.LVL808:
 14534               	.L796:
 14535               	.LM1851:
 14536 5caa CF01      		movw r24,r30
 14537 5cac 0E94 0000 		call newProgram
 14538               	.LVL809:
 14539 5cb0 0895      		ret
 14540               	.LVL810:
 14541               	.L787:
 14542               	.LM1852:
 14543 5cb2 CF01      		movw r24,r30
 14544 5cb4 0E94 0000 		call clearProgram
 14545               	.LVL811:
 14546 5cb8 0895      		ret
 14547               	.LVL812:
 14548               	.L838:
 14549               	.LM1853:
 14550 5cba CF01      		movw r24,r30
 14551 5cbc 0E94 0000 		call programAddSwitch
 14552               	.LVL813:
 14553 5cc0 0895      		ret
 14554               	.LVL814:
 14555               	.L799:
 14556               	.LM1854:
 14557 5cc2 CF01      		movw r24,r30
 14558 5cc4 0E94 0000 		call programSetDays
 14559               	.LVL815:
 14560 5cc8 0895      		ret
 14561               	.LVL816:
 14562               	.L803:
 14563               	.LM1855:
 14564 5cca CF01      		movw r24,r30
 14565 5ccc 0E94 0000 		call programSetTime
 14566               	.LVL817:
 14567 5cd0 0895      		ret
 14568               	.LVL818:
 14569               	.L839:
 14570               	.LM1856:
 14571 5cd2 CF01      		movw r24,r30
 14572 5cd4 0E94 0000 		call programDisplay
 14573               	.LVL819:
 14574 5cd8 0895      		ret
 14575               	.LVL820:
 14576               	.L843:
 14577               	.LM1857:
 14578 5cda CF01      		movw r24,r30
 14579 5cdc 0E94 0000 		call startSwitch
 14580               	.LVL821:
 14581 5ce0 0895      		ret
 14582               	.LVL822:
 14583               	.L813:
 14584               	.LM1858:
 14585 5ce2 CF01      		movw r24,r30
 14586 5ce4 0E94 0000 		call startProgram
 14587               	.LVL823:
 14588 5ce8 0895      		ret
 14589               	.LVL824:
 14590               	.L808:
 14591               	.LM1859:
 14592 5cea 0E94 0000 		call saveToEEPROM
 14593               	.LVL825:
 14594 5cee 0895      		ret
 14595               	.LVL826:
 14596               	.L786:
 14597               	.LM1860:
 14598 5cf0 0E94 0000 		call clearToEEPROM
 14599               	.LVL827:
 14600 5cf4 0895      		ret
 14601               	.LVL828:
 14602               	.L841:
 14603               	.LM1861:
 14604 5cf6 CF01      		movw r24,r30
 14605 5cf8 0E94 0000 		call radioDisplayAddress
 14606               	.LVL829:
 14607 5cfc 0895      		ret
 14608               	.LVL830:
 14609               	.L806:
 14610               	.LM1862:
 14611 5cfe CF01      		movw r24,r30
 14612 5d00 0E94 0000 		call radioChangeAddress
 14613               	.LVL831:
 14614 5d04 0895      		ret
 14615               	.LVL832:
 14616               	.L832:
 14617               	.LM1863:
 14618 5d06 CF01      		movw r24,r30
 14619 5d08 0E94 0000 		call setAnalogInput
 14620               	.LVL833:
 14621 5d0c 0895      		ret
 14622               	.LVL834:
 14623               	.L789:
 14624               	.LM1864:
 14625 5d0e CF01      		movw r24,r30
 14626 5d10 0E94 0000 		call setDigitalInput
 14627               	.LVL835:
 14628 5d14 0895      		ret
 14629               	.LVL836:
 14630               	.L833:
 14631               	.LM1865:
 14632 5d16 CF01      		movw r24,r30
 14633 5d18 0E94 0000 		call clearInput
 14634               	.LVL837:
 14635 5d1c 0895      		ret
 14636               	.LVL838:
 14637               	.L834:
 14638               	.LM1866:
 14639 5d1e CF01      		movw r24,r30
 14640 5d20 0E94 0000 		call clockTweak
 14641               	.LVL839:
 14642 5d24 0895      		ret
 14643               	.LVL840:
 14644               	.L805:
 14645               	.LM1867:
 14646 5d26 0E94 0000 		call pwmSummary
 14647               	.LVL841:
 14648 5d2a 0895      		ret
 14649               	.LVL842:
 14650               	.L792:
 14651               	.LM1868:
 14652 5d2c CF01      		movw r24,r30
 14653 5d2e 0E94 0000 		call generalStatus
 14654               	.LVL843:
 14655 5d32 0895      		ret
 14656               	.LVL844:
 14657               	.L783:
 14658               	.LM1869:
 14659 5d34 CF01      		movw r24,r30
 14660 5d36 0E94 0000 		call colorChangeSet
 14661               	.LVL845:
 14662 5d3a 0895      		ret
 14663               	.LVL846:
 14664               	.L809:
 14665               	.LM1870:
 14666 5d3c CF01      		movw r24,r30
 14667 5d3e 0E94 0000 		call switchBrightness
 14668               	.LVL847:
 14669 5d42 0895      		ret
 14670               	.LVL848:
 14671               	.L782:
 14672               	.LM1871:
 14673 5d44 CF01      		movw r24,r30
 14674 5d46 0E94 0000 		call brightnessSet
 14675               	.LVL849:
 14676 5d4a 0895      		ret
 14677               	.LVL850:
 14678               	.L791:
 14679               	.LM1872:
 14680 5d4c 0E94 0000 		call generalInformation
 14681               	.LVL851:
 14682 5d50 0895      		ret
 14683               	.LVL852:
 14684               	.L801:
 14685               	.LM1873:
 14686 5d52 0E94 0000 		call programsProgrammed
 14687               	.LVL853:
 14688 5d56 0895      		ret
 14689               	.LVL854:
 14690               	.L815:
 14691               	.LM1874:
 14692 5d58 0E94 0000 		call switchesProgrammed
 14693               	.LVL855:
 14694 5d5c 0895      		ret
 14695               	.LVL856:
 14696               	.L837:
 14697               	.LM1875:
 14698 5d5e 0E94 0000 		call inputsProgrammed
 14699               	.LVL857:
 14700 5d62 0895      		ret
 14701               	.LVL858:
 14702               	.L842:
 14703               	.LM1876:
 14704 5d64 0E94 0000 		call switchesOn
 14705               	.LVL859:
 14706 5d68 0895      		ret
 14707               	.LVL860:
 14708               	.L794:
 14709               	.LM1877:
 14710 5d6a CF01      		movw r24,r30
 14711 5d6c 0E94 0000 		call setImmediateChange
 14712               	.LVL861:
 14713 5d70 0895      		ret
 14714               	.LVL862:
 14715               	.L780:
 14716               	.LM1878:
 14717 5d72 0E94 0000 		call memoryDump
 14718               	.LVL863:
 14719 5d76 0895      		ret
 14720               	.LFE7:
 14722               		.data
 14723               	.LC77:
 14724 0186 6773 7100 		.string	"gsq"
 14725               		.text
 14726               	.global	main
 14728               	main:
 14729               	.LFB6:
 14730               	.LM1879:
 14731 5d78 0F93      		push r16
 14732 5d7a 1F93      		push r17
 14733 5d7c CF93      		push r28
 14734 5d7e DF93      		push r29
 14735               	/* prologue: function */
 14736               	/* frame size = 0 */
 14737               	.LM1880:
 14738 5d80 1092 0000 		sts receiveBuffer,__zero_reg__
 14739               	.LM1881:
 14740 5d84 1092 0000 		sts radioReceiveBuffer,__zero_reg__
 14741               	.LM1882:
 14742 5d88 529A      		sbi 42-32,2
 14743 5d8a 20E0      		ldi r18,lo8(0)
 14744 5d8c 30E0      		ldi r19,hi8(0)
 14745               	.LVL864:
 14746               	.LBB166:
 14747               	.LBB167:
 14748               	.LBB168:
 14749               	.LBB169:
 14750               	.LM1883:
 14751 5d8e 40E9      		ldi r20,lo8(400)
 14752 5d90 51E0      		ldi r21,hi8(400)
 14753               	.LVL865:
 14754               	.L848:
 14755               	.LBE169:
 14756               	.LBE168:
 14757               	.LBE167:
 14758               	.LBE166:
 14759               	.LM1884:
 14760 5d92 5A9A      		sbi 43-32,2
 14761 5d94 84EF      		ldi r24,lo8(500)
 14762 5d96 91E0      		ldi r25,hi8(500)
 14763               	.LVL866:
 14764               	.L846:
 14765               	.LBB173:
 14766               	.LBB172:
 14767               	.LBB171:
 14768               	.LBB170:
 14769               	.LM1885:
 14770 5d98 FA01      		movw r30,r20
 14771               	.LVL867:
 14772               	/* #APP */
 14773               	 ;  105 "c:/winavr-20100110/lib/gcc/../../avr/include/util/delay_basic.h" 1
 14774 5d9a 3197      		1: sbiw r30,1
 14775 5d9c 01F4      		brne 1b
 14776               	 ;  0 "" 2
 14777               	/* #NOAPP */
 14778               	.LBE170:
 14779               	.LBE171:
 14780               	.LM1886:
 14781 5d9e 0197      		sbiw r24,1
 14782               	.LM1887:
 14783 5da0 01F4      		brne .L846
 14784               	.LBE172:
 14785               	.LBE173:
 14786               	.LM1888:
 14787 5da2 5A98      		cbi 43-32,2
 14788 5da4 88EE      		ldi r24,lo8(1000)
 14789 5da6 93E0      		ldi r25,hi8(1000)
 14790               	.LVL868:
 14791               	.L847:
 14792               	.LBB174:
 14793               	.LBB175:
 14794               	.LBB176:
 14795               	.LBB177:
 14796               	.LM1889:
 14797 5da8 FA01      		movw r30,r20
 14798               	.LVL869:
 14799               	/* #APP */
 14800               	 ;  105 "c:/winavr-20100110/lib/gcc/../../avr/include/util/delay_basic.h" 1
 14801 5daa 3197      		1: sbiw r30,1
 14802 5dac 01F4      		brne 1b
 14803               	 ;  0 "" 2
 14804               	/* #NOAPP */
 14805               	.LBE177:
 14806               	.LBE176:
 14807               	.LM1890:
 14808 5dae 0197      		sbiw r24,1
 14809               	.LM1891:
 14810 5db0 01F4      		brne .L847
 14811               	.LBE175:
 14812               	.LBE174:
 14813               	.LM1892:
 14814 5db2 2F5F      		subi r18,lo8(-(1))
 14815 5db4 3F4F      		sbci r19,hi8(-(1))
 14816 5db6 2430      		cpi r18,4
 14817 5db8 3105      		cpc r19,__zero_reg__
 14818 5dba 01F4      		brne .L848
 14819               	.LM1893:
 14820 5dbc 5A9A      		sbi 43-32,2
 14821 5dbe E0E0      		ldi r30,lo8(colorChanges)
 14822 5dc0 F0E0      		ldi r31,hi8(colorChanges)
 14823               	.LVL870:
 14824               	.LM1894:
 14825 5dc2 81E0      		ldi r24,lo8(1)
 14826               	.LVL871:
 14827               	.L849:
 14828               	.LM1895:
 14829 5dc4 1082      		st Z,__zero_reg__
 14830               	.LM1896:
 14831 5dc6 8183      		std Z+1,r24
 14832               	.LM1897:
 14833 5dc8 1282      		std Z+2,__zero_reg__
 14834 5dca 3396      		adiw r30,3
 14835               	.LM1898:
 14836 5dcc 90E0      		ldi r25,hi8(colorChanges+18)
 14837 5dce E030      		cpi r30,lo8(colorChanges+18)
 14838 5dd0 F907      		cpc r31,r25
 14839 5dd2 01F4      		brne .L849
 14840               	.LM1899:
 14841 5dd4 1092 0000 		sts (dow)+1,__zero_reg__
 14842 5dd8 1092 0000 		sts dow,__zero_reg__
 14843 5ddc 1092 0000 		sts (globalSecond)+1,__zero_reg__
 14844 5de0 1092 0000 		sts globalSecond,__zero_reg__
 14845 5de4 1092 0000 		sts (globalMinute)+1,__zero_reg__
 14846 5de8 1092 0000 		sts globalMinute,__zero_reg__
 14847 5dec 1092 0000 		sts (globalHour)+1,__zero_reg__
 14848 5df0 1092 0000 		sts globalHour,__zero_reg__
 14849 5df4 1092 0000 		sts (globalDay)+1,__zero_reg__
 14850 5df8 1092 0000 		sts globalDay,__zero_reg__
 14851 5dfc 1092 0000 		sts (globalMonth)+1,__zero_reg__
 14852 5e00 1092 0000 		sts globalMonth,__zero_reg__
 14853 5e04 1092 0000 		sts (globalYear)+1,__zero_reg__
 14854 5e08 1092 0000 		sts globalYear,__zero_reg__
 14855 5e0c A0E0      		ldi r26,lo8(switchStatus)
 14856 5e0e B0E0      		ldi r27,hi8(switchStatus)
 14857 5e10 80E0      		ldi r24,lo8(0)
 14858 5e12 90E0      		ldi r25,hi8(0)
 14859               	.LVL872:
 14860               	.LM1900:
 14861 5e14 2FEF      		ldi r18,lo8(-1)
 14862               	.LM1901:
 14863 5e16 30E1      		ldi r19,lo8(16)
 14864               	.L850:
 14865               	.LM1902:
 14866 5e18 1D92      		st X+,__zero_reg__
 14867 5e1a 1D92      		st X+,__zero_reg__
 14868 5e1c 1D92      		st X+,__zero_reg__
 14869 5e1e 1D92      		st X+,__zero_reg__
 14870               	.LM1903:
 14871 5e20 FC01      		movw r30,r24
 14872 5e22 E050      		subi r30,lo8(-(switchStuff))
 14873 5e24 F040      		sbci r31,hi8(-(switchStuff))
 14874 5e26 2083      		st Z,r18
 14875               	.LM1904:
 14876 5e28 FC01      		movw r30,r24
 14877 5e2a E050      		subi r30,lo8(-(switchBright))
 14878 5e2c F040      		sbci r31,hi8(-(switchBright))
 14879 5e2e 3083      		st Z,r19
 14880               	.LM1905:
 14881 5e30 0196      		adiw r24,1
 14882 5e32 8031      		cpi r24,16
 14883 5e34 9105      		cpc r25,__zero_reg__
 14884 5e36 01F4      		brne .L850
 14885               	.LM1906:
 14886 5e38 2093 0000 		sts inputs,r18
 14887 5e3c 2093 0000 		sts inputs+8,r18
 14888 5e40 2093 0000 		sts inputs+16,r18
 14889 5e44 2093 0000 		sts inputs+24,r18
 14890               	.LM1907:
 14891               	/* #APP */
 14892               	 ;  156 "switcherator.c" 1
 14893 5e48 7894      		sei
 14894               	 ;  0 "" 2
 14895               	/* #NOAPP */
 14896 5e4a 20E0      		ldi r18,lo8(0)
 14897 5e4c 30E0      		ldi r19,hi8(0)
 14898               	.LVL873:
 14899               	.LBB178:
 14900               	.LBB179:
 14901               	.LM1908:
 14902 5e4e 4FEF      		ldi r20,lo8(-1)
 14903 5e50 00C0      		rjmp .L851
 14904               	.LVL874:
 14905               	.L852:
 14906 5e52 4193      		st Z+,r20
 14907               	.LM1909:
 14908 5e54 0196      		adiw r24,1
 14909 5e56 8A30      		cpi r24,10
 14910 5e58 9105      		cpc r25,__zero_reg__
 14911 5e5a 01F4      		brne .L852
 14912               	.LBE179:
 14913               	.LBE178:
 14914               	.LM1910:
 14915 5e5c 2F5F      		subi r18,lo8(-(1))
 14916 5e5e 3F4F      		sbci r19,hi8(-(1))
 14917 5e60 2431      		cpi r18,20
 14918 5e62 3105      		cpc r19,__zero_reg__
 14919 5e64 01F0      		breq .L853
 14920               	.L851:
 14921 5e66 F901      		movw r30,r18
 14922 5e68 EE0F      		lsl r30
 14923 5e6a FF1F      		rol r31
 14924 5e6c C901      		movw r24,r18
 14925               	.LVL875:
 14926 5e6e 53E0      		ldi r21,3
 14927 5e70 880F      	1:	lsl r24
 14928 5e72 991F      		rol r25
 14929 5e74 5A95      		dec r21
 14930 5e76 01F4      		brne 1b
 14931 5e78 E80F      		add r30,r24
 14932 5e7a F91F      		adc r31,r25
 14933 5e7c E050      		subi r30,lo8(-(weeklyProgram))
 14934 5e7e F040      		sbci r31,hi8(-(weeklyProgram))
 14935 5e80 80E0      		ldi r24,lo8(0)
 14936 5e82 90E0      		ldi r25,hi8(0)
 14937               	.LVL876:
 14938 5e84 00C0      		rjmp .L852
 14939               	.L853:
 14940               	.LBB180:
 14941               	.LBB181:
 14942               	.LM1911:
 14943 5e86 1092 8000 		sts 128,__zero_reg__
 14944               	.LM1912:
 14945 5e8a 88E0      		ldi r24,lo8(8)
 14946               	.LVL877:
 14947 5e8c 8093 8100 		sts 129,r24
 14948               	.LM1913:
 14949 5e90 1092 8900 		sts (136)+1,__zero_reg__
 14950 5e94 1092 8800 		sts 136,__zero_reg__
 14951               	.LM1914:
 14952 5e98 82E0      		ldi r24,lo8(2)
 14953 5e9a 8093 6F00 		sts 111,r24
 14954               	.LBE181:
 14955               	.LBE180:
 14956               	.LM1915:
 14957 5e9e 0E94 0000 		call radioInit
 14958               	.LVL878:
 14959               	.LM1916:
 14960 5ea2 0E94 0000 		call startRx
 14961               	.LM1917:
 14962 5ea6 0E94 0000 		call generalInit
 14963               	.LBB182:
 14964               	.LBB183:
 14965               	.LM1918:
 14966 5eaa 8FEF      		ldi r24,lo8(-1)
 14967 5eac 9FEF      		ldi r25,hi8(-1)
 14968 5eae 9093 8500 		sts (132)+1,r25
 14969 5eb2 8093 8400 		sts 132,r24
 14970               	.LM1919:
 14971 5eb6 8091 8100 		lds r24,129
 14972 5eba 8560      		ori r24,lo8(5)
 14973 5ebc 8093 8100 		sts 129,r24
 14974               	.LBE183:
 14975               	.LBE182:
 14976               	.LBB184:
 14977               	.LBB185:
 14978               	.LM1920:
 14979 5ec0 01E0      		ldi r16,lo8(1)
 14980               	.LBE185:
 14981               	.LBE184:
 14982               	.LBB187:
 14983               	.LBB188:
 14984               	.LBB189:
 14985               	.LBB190:
 14986               	.LM1921:
 14987 5ec2 C0E9      		ldi r28,lo8(400)
 14988 5ec4 D1E0      		ldi r29,hi8(400)
 14989               	.LVL879:
 14990               	.L877:
 14991               	.LBE190:
 14992               	.LBE189:
 14993               	.LBE188:
 14994               	.LBE187:
 14995               	.LM1922:
 14996 5ec6 8091 0000 		lds r24,newSecond
 14997               	.LVL880:
 14998 5eca 8130      		cpi r24,lo8(1)
 14999 5ecc 01F4      		brne .L854
 15000               	.LM1923:
 15001 5ece 1092 0000 		sts newSecond,__zero_reg__
 15002               	.LM1924:
 15003 5ed2 0E94 0000 		call timerCheck
 15004               	.LM1925:
 15005 5ed6 0E94 0000 		call inputCheck
 15006               	.L854:
 15007               	.LM1926:
 15008 5eda 8091 0000 		lds r24,switchChanged
 15009 5ede 8130      		cpi r24,lo8(1)
 15010 5ee0 01F4      		brne .L855
 15011               	.LM1927:
 15012 5ee2 1092 0000 		sts switchChanged,__zero_reg__
 15013               	.LM1928:
 15014 5ee6 0E94 0000 		call switchOnOff
 15015               	.L855:
 15016               	.LM1929:
 15017 5eea 8091 0000 		lds r24,runHue
 15018 5eee 8130      		cpi r24,lo8(1)
 15019 5ef0 01F4      		brne .L856
 15020 5ef2 8091 0000 		lds r24,immediateChange
 15021 5ef6 9091 0000 		lds r25,(immediateChange)+1
 15022 5efa A091 0000 		lds r26,(immediateChange)+2
 15023 5efe B091 0000 		lds r27,(immediateChange)+3
 15024 5f02 0097      		sbiw r24,0
 15025 5f04 A105      		cpc r26,__zero_reg__
 15026 5f06 B105      		cpc r27,__zero_reg__
 15027 5f08 01F4      		brne .L856
 15028               	.LM1930:
 15029 5f0a 0E94 0000 		call runHueFunction
 15030               	.L856:
 15031               	.LM1931:
 15032 5f0e 1091 0000 		lds r17,runColorChanges
 15033 5f12 1130      		cpi r17,lo8(1)
 15034 5f14 01F4      		brne .L857
 15035 5f16 8091 0000 		lds r24,immediateChange
 15036 5f1a 9091 0000 		lds r25,(immediateChange)+1
 15037 5f1e A091 0000 		lds r26,(immediateChange)+2
 15038 5f22 B091 0000 		lds r27,(immediateChange)+3
 15039 5f26 0097      		sbiw r24,0
 15040 5f28 A105      		cpc r26,__zero_reg__
 15041 5f2a B105      		cpc r27,__zero_reg__
 15042 5f2c 01F4      		brne .L857
 15043               	.LM1932:
 15044 5f2e 0E94 0000 		call runColorFunction
 15045               	.L857:
 15046               	.LM1933:
 15047 5f32 2091 0000 		lds r18,immediateChange
 15048 5f36 3091 0000 		lds r19,(immediateChange)+1
 15049 5f3a 4091 0000 		lds r20,(immediateChange)+2
 15050 5f3e 5091 0000 		lds r21,(immediateChange)+3
 15051 5f42 2115      		cp r18,__zero_reg__
 15052 5f44 3105      		cpc r19,__zero_reg__
 15053 5f46 4105      		cpc r20,__zero_reg__
 15054 5f48 5105      		cpc r21,__zero_reg__
 15055 5f4a 01F0      		breq .L858
 15056 5f4c 8091 0000 		lds r24,weeklySeconds
 15057 5f50 9091 0000 		lds r25,(weeklySeconds)+1
 15058 5f54 A091 0000 		lds r26,(weeklySeconds)+2
 15059 5f58 B091 0000 		lds r27,(weeklySeconds)+3
 15060 5f5c 2817      		cp r18,r24
 15061 5f5e 3907      		cpc r19,r25
 15062 5f60 4A07      		cpc r20,r26
 15063 5f62 5B07      		cpc r21,r27
 15064 5f64 00F4      		brsh .L858
 15065               	.LBB194:
 15066               	.LBB186:
 15067               	.LM1934:
 15068 5f66 1092 0000 		sts immediateChange,__zero_reg__
 15069 5f6a 1092 0000 		sts (immediateChange)+1,__zero_reg__
 15070 5f6e 1092 0000 		sts (immediateChange)+2,__zero_reg__
 15071 5f72 1092 0000 		sts (immediateChange)+3,__zero_reg__
 15072               	.LM1935:
 15073 5f76 8091 0000 		lds r24,pwmOldValues
 15074 5f7a 8093 B400 		sts 180,r24
 15075               	.LM1936:
 15076 5f7e 8091 0000 		lds r24,pwmOldValues+1
 15077 5f82 88BD      		out 72-32,r24
 15078               	.LM1937:
 15079 5f84 8091 0000 		lds r24,pwmOldValues+2
 15080 5f88 87BD      		out 71-32,r24
 15081               	.LM1938:
 15082 5f8a 0093 0000 		sts switchChanged,r16
 15083               	.L858:
 15084               	.LBE186:
 15085               	.LBE194:
 15086               	.LM1939:
 15087 5f8e 8091 0000 		lds r24,tenthFlag
 15088 5f92 8130      		cpi r24,lo8(1)
 15089 5f94 01F4      		brne .L859
 15090               	.LM1940:
 15091 5f96 1092 0000 		sts tenthFlag,__zero_reg__
 15092               	.LM1941:
 15093 5f9a 0E94 0000 		call inputTenthCheck
 15094               	.LM1942:
 15095 5f9e 8091 0000 		lds r24,failCondition
 15096 5fa2 8823      		tst r24
 15097 5fa4 01F0      		breq .L860
 15098               	.LM1943:
 15099 5fa6 0E94 0000 		call flashFail
 15100               	.L860:
 15101               	.LM1944:
 15102 5faa 1130      		cpi r17,lo8(1)
 15103 5fac 01F4      		brne .L859
 15104               	.LM1945:
 15105 5fae 0E94 0000 		call runColorFunction
 15106               	.L859:
 15107               	.LM1946:
 15108 5fb2 8091 0000 		lds r24,newMinute
 15109 5fb6 8130      		cpi r24,lo8(1)
 15110 5fb8 01F4      		brne .L861
 15111               	.LM1947:
 15112 5fba 1092 0000 		sts newMinute,__zero_reg__
 15113               	.LM1948:
 15114 5fbe 8091 0000 		lds r24,panicMyClockIsNotSet
 15115 5fc2 8130      		cpi r24,lo8(1)
 15116 5fc4 01F4      		brne .L862
 15117               	.LM1949:
 15118 5fc6 80E0      		ldi r24,lo8(.LC77)
 15119 5fc8 90E0      		ldi r25,hi8(.LC77)
 15120 5fca 0E94 0000 		call generalStatus
 15121               	.L862:
 15122               	.LM1950:
 15123 5fce 0E94 0000 		call radioTest
 15124               	.L861:
 15125               	.LM1951:
 15126 5fd2 80E0      		ldi r24,lo8(radioReceiveBuffer)
 15127 5fd4 90E0      		ldi r25,hi8(radioReceiveBuffer)
 15128 5fd6 0E94 0000 		call dynReceive
 15129               	.LM1952:
 15130 5fda 90E0      		ldi r25,lo8(0)
 15131 5fdc 0297      		sbiw r24,2
 15132 5fde 04F4      		brge .+2
 15133 5fe0 00C0      		rjmp .L877
 15134 5fe2 84E8      		ldi r24,lo8(900)
 15135 5fe4 93E0      		ldi r25,hi8(900)
 15136               	.LVL881:
 15137               	.L864:
 15138               	.LBB195:
 15139               	.LBB193:
 15140               	.LBB192:
 15141               	.LBB191:
 15142               	.LM1953:
 15143 5fe6 FE01      		movw r30,r28
 15144               	.LVL882:
 15145               	/* #APP */
 15146               	 ;  105 "c:/winavr-20100110/lib/gcc/../../avr/include/util/delay_basic.h" 1
 15147 5fe8 3197      		1: sbiw r30,1
 15148 5fea 01F4      		brne 1b
 15149               	 ;  0 "" 2
 15150               	/* #NOAPP */
 15151               	.LBE191:
 15152               	.LBE192:
 15153               	.LM1954:
 15154 5fec 0197      		sbiw r24,1
 15155               	.LM1955:
 15156 5fee 01F4      		brne .L864
 15157               	.LBE193:
 15158               	.LBE195:
 15159               	.LM1956:
 15160 5ff0 80E0      		ldi r24,lo8(radioReceiveBuffer)
 15161 5ff2 90E0      		ldi r25,hi8(radioReceiveBuffer)
 15162               	.LVL883:
 15163 5ff4 0E94 0000 		call checkCommand
 15164               	.LVL884:
 15165 5ff8 80E0      		ldi r24,lo8(0)
 15166 5ffa 90E0      		ldi r25,hi8(0)
 15167               	.LVL885:
 15168               	.L865:
 15169               	.LM1957:
 15170 5ffc FC01      		movw r30,r24
 15171 5ffe E050      		subi r30,lo8(-(radioReceiveBuffer))
 15172 6000 F040      		sbci r31,hi8(-(radioReceiveBuffer))
 15173 6002 1082      		st Z,__zero_reg__
 15174               	.LM1958:
 15175 6004 FC01      		movw r30,r24
 15176 6006 E050      		subi r30,lo8(-(receiveBuffer))
 15177 6008 F040      		sbci r31,hi8(-(receiveBuffer))
 15178 600a 1082      		st Z,__zero_reg__
 15179               	.LM1959:
 15180 600c 0196      		adiw r24,1
 15181 600e 8E31      		cpi r24,30
 15182 6010 9105      		cpc r25,__zero_reg__
 15183 6012 01F4      		brne .L865
 15184 6014 00C0      		rjmp .L877
 15185               	.LFE6:
 15187               		.lcomm ticks,2
 15188               		.data
 15191               	tweakTimer:
 15192 018a 09        		.byte	9
 15193 018b 3D        		.byte	61
 15194 018c 00        		.byte	0
 15195 018d 00        		.byte	0
 15196               		.lcomm weeklySeconds,4
 15197               		.lcomm newSecond,1
 15198               		.lcomm newMinute,1
 15199               		.lcomm tenthFlag,1
 15200               		.lcomm failTimer,1
 15203               	failCondition:
 15204 018e 03        		.byte	3
 15207               	tempIntString:
 15208 018f 3030 00   		.string	"00"
 15209               		.lcomm pwmValues,3
 15210               		.lcomm switchChanged,1
 15213               	tempLongString:
 15214 0192 3030 3030 		.string	"0000"
 15214      00
 15217               	tempHugeString:
 15218 0197 3030 3030 		.string	"000000"
 15218      3030 00
 15221               	panicMyClockIsNotSet:
 15222 019e 01        		.byte	1
 15223               		.lcomm runHue,1
 15224               		.lcomm runColorChanges,1
 15227               	oldBright:
 15228 019f 10        		.byte	16
 15231               	bright:
 15232 01a0 1000      		.word	16
 15233               		.lcomm immediateChange,4
 15234               		.lcomm red,2
 15235               		.lcomm green,2
 15236               		.lcomm blue,2
 15237               		.lcomm wasDaylightSavings,1
 15240               	C.203.3335:
 15241 01a2 0000      		.word	0
 15242 01a4 1F00      		.word	31
 15243 01a6 1C00      		.word	28
 15244 01a8 1F00      		.word	31
 15245 01aa 1E00      		.word	30
 15246 01ac 1F00      		.word	31
 15247 01ae 1E00      		.word	30
 15248 01b0 1F00      		.word	31
 15249 01b2 1F00      		.word	31
 15250 01b4 1E00      		.word	30
 15251 01b6 1F00      		.word	31
 15252 01b8 1E00      		.word	30
 15253               		.lcomm pwmdir,1
 15254               		.lcomm pwmOldValues,3
 15255               		.lcomm pwmChangeValues,3
 15256               		.lcomm pwmIsSet,1
 15257               		.lcomm pwmSwitchNumber,2
 15258               		.lcomm littleCount,1
 15259               		.lcomm hueCount,2
 15262               	hueSpeed:
 15263 01ba 1000      		.word	16
 15264               		.lcomm currentHue,2
 15265               		.lcomm colorChangeCount,2
 15268               	colorChangeSpeed:
 15269 01bc 0A00      		.word	10
 15270               		.lcomm currentColor,1
 15271               		.lcomm globalYear,2
 15272               		.lcomm globalMonth,2
 15273               		.lcomm globalDay,2
 15274               		.lcomm globalHour,2
 15275               		.lcomm globalMinute,2
 15276               		.lcomm globalSecond,2
 15277               		.lcomm dow,2
 15278               		.lcomm daylightSavings,8
 15279               		.lcomm switchStatus,64
 15280               		.lcomm switchStuff,16
 15281               		.lcomm receiveBuffer,30
 15282               		.lcomm radioReceiveBuffer,30
 15283               		.lcomm statusMsg,32
 15284               		.lcomm colorChanges,18
 15285               		.lcomm switchBright,16
 15286               		.lcomm weeklyProgram,200
 15287               		.lcomm inputs,32
 15288               		.lcomm timeLimits,48
 15289               		.lcomm rx_addr_p0,8
 15290               		.lcomm rx_addr_p1,8
 15291               		.lcomm rx_addr_p2,8
 15292               		.lcomm rx_addr_p3,8
 15293               		.lcomm rx_addr_p4,8
 15294               		.lcomm rx_addr_p5,8
 15295               		.lcomm tx_addr,8
 15968               	.Letext0:
DEFINED SYMBOLS
                            *ABS*:00000000 switcherator.c
C:\Users\dwhipple\AppData\Local\Temp/cc9p43bf.s:2      *ABS*:0000003f __SREG__
C:\Users\dwhipple\AppData\Local\Temp/cc9p43bf.s:3      *ABS*:0000003e __SP_H__
C:\Users\dwhipple\AppData\Local\Temp/cc9p43bf.s:4      *ABS*:0000003d __SP_L__
C:\Users\dwhipple\AppData\Local\Temp/cc9p43bf.s:5      *ABS*:00000034 __CCP__
C:\Users\dwhipple\AppData\Local\Temp/cc9p43bf.s:6      *ABS*:00000000 __tmp_reg__
C:\Users\dwhipple\AppData\Local\Temp/cc9p43bf.s:7      *ABS*:00000001 __zero_reg__
C:\Users\dwhipple\AppData\Local\Temp/cc9p43bf.s:18     .text:00000000 getPort
C:\Users\dwhipple\AppData\Local\Temp/cc9p43bf.s:15279  .bss:00000083 switchStuff
C:\Users\dwhipple\AppData\Local\Temp/cc9p43bf.s:190    .text:000000aa pwmClear
C:\Users\dwhipple\AppData\Local\Temp/cc9p43bf.s:15227  .data:0000019f oldBright
C:\Users\dwhipple\AppData\Local\Temp/cc9p43bf.s:15231  .data:000001a0 bright
C:\Users\dwhipple\AppData\Local\Temp/cc9p43bf.s:15210  .bss:0000000e runHue
C:\Users\dwhipple\AppData\Local\Temp/cc9p43bf.s:15223  .bss:0000000f runColorChanges
C:\Users\dwhipple\AppData\Local\Temp/cc9p43bf.s:15255  .bss:00000022 pwmIsSet
C:\Users\dwhipple\AppData\Local\Temp/cc9p43bf.s:238    .text:000000ea clearTheSwitch
C:\Users\dwhipple\AppData\Local\Temp/cc9p43bf.s:379    .text:000001ae runColorFunction
C:\Users\dwhipple\AppData\Local\Temp/cc9p43bf.s:15264  .bss:0000002a colorChangeCount
C:\Users\dwhipple\AppData\Local\Temp/cc9p43bf.s:15268  .data:000001bc colorChangeSpeed
C:\Users\dwhipple\AppData\Local\Temp/cc9p43bf.s:15265  .bss:0000002c currentColor
C:\Users\dwhipple\AppData\Local\Temp/cc9p43bf.s:15283  .bss:000000ef colorChanges
C:\Users\dwhipple\AppData\Local\Temp/cc9p43bf.s:15233  .bss:00000014 red
C:\Users\dwhipple\AppData\Local\Temp/cc9p43bf.s:15234  .bss:00000016 green
C:\Users\dwhipple\AppData\Local\Temp/cc9p43bf.s:15235  .bss:00000018 blue
C:\Users\dwhipple\AppData\Local\Temp/cc9p43bf.s:515    .text:000002b0 runHueFunction
C:\Users\dwhipple\AppData\Local\Temp/cc9p43bf.s:15257  .bss:00000025 littleCount
C:\Users\dwhipple\AppData\Local\Temp/cc9p43bf.s:15258  .bss:00000026 hueCount
C:\Users\dwhipple\AppData\Local\Temp/cc9p43bf.s:15262  .data:000001ba hueSpeed
C:\Users\dwhipple\AppData\Local\Temp/cc9p43bf.s:15259  .bss:00000028 currentHue
C:\Users\dwhipple\AppData\Local\Temp/cc9p43bf.s:751    .text:0000049e clearImmediateChange
C:\Users\dwhipple\AppData\Local\Temp/cc9p43bf.s:15224  .bss:00000010 immediateChange
C:\Users\dwhipple\AppData\Local\Temp/cc9p43bf.s:15253  .bss:0000001c pwmOldValues
C:\Users\dwhipple\AppData\Local\Temp/cc9p43bf.s:15209  .bss:0000000d switchChanged
C:\Users\dwhipple\AppData\Local\Temp/cc9p43bf.s:780    .text:000004ca clearTheProgram
C:\Users\dwhipple\AppData\Local\Temp/cc9p43bf.s:15285  .bss:00000111 weeklyProgram
C:\Users\dwhipple\AppData\Local\Temp/cc9p43bf.s:823    .text:000004f6 findOpenSwitch
C:\Users\dwhipple\AppData\Local\Temp/cc9p43bf.s:874    .text:0000052e programGetSwitches
C:\Users\dwhipple\AppData\Local\Temp/cc9p43bf.s:967    .text:000005a0 startTheProgram
C:\Users\dwhipple\AppData\Local\Temp/cc9p43bf.s:15187  .bss:00000002 weeklySeconds
C:\Users\dwhipple\AppData\Local\Temp/cc9p43bf.s:15278  .bss:00000043 switchStatus
C:\Users\dwhipple\AppData\Local\Temp/cc9p43bf.s:1139   .text:000006bc clockInit
C:\Users\dwhipple\AppData\Local\Temp/cc9p43bf.s:1162   .text:000006d6 startClock
C:\Users\dwhipple\AppData\Local\Temp/cc9p43bf.s:1185   .text:000006ee stopClock
C:\Users\dwhipple\AppData\Local\Temp/cc9p43bf.s:1203   .text:000006fa getWeekday
C:\Users\dwhipple\AppData\Local\Temp/cc9p43bf.s:15270  .bss:0000002d globalYear
C:\Users\dwhipple\AppData\Local\Temp/cc9p43bf.s:1305   .text:000007a6 getDayofYear
C:\Users\dwhipple\AppData\Local\Temp/cc9p43bf.s:15240  .data:000001a2 C.203.3335
C:\Users\dwhipple\AppData\Local\Temp/cc9p43bf.s:1387   .text:0000080e checkDaylightSavings
C:\Users\dwhipple\AppData\Local\Temp/cc9p43bf.s:15236  .bss:0000001a wasDaylightSavings
C:\Users\dwhipple\AppData\Local\Temp/cc9p43bf.s:15271  .bss:0000002f globalMonth
C:\Users\dwhipple\AppData\Local\Temp/cc9p43bf.s:15277  .bss:0000003b daylightSavings
C:\Users\dwhipple\AppData\Local\Temp/cc9p43bf.s:15272  .bss:00000031 globalDay
C:\Users\dwhipple\AppData\Local\Temp/cc9p43bf.s:15273  .bss:00000033 globalHour
C:\Users\dwhipple\AppData\Local\Temp/cc9p43bf.s:1451   .text:0000089c advanceDay
C:\Users\dwhipple\AppData\Local\Temp/cc9p43bf.s:15276  .bss:00000039 dow
C:\Users\dwhipple\AppData\Local\Temp/cc9p43bf.s:1655   .text:00000a26 timerCheck
C:\Users\dwhipple\AppData\Local\Temp/cc9p43bf.s:1865   .text:00000b84 switchOnOff
C:\Users\dwhipple\AppData\Local\Temp/cc9p43bf.s:15200  .bss:0000000a pwmValues
C:\Users\dwhipple\AppData\Local\Temp/cc9p43bf.s:15284  .bss:00000101 switchBright
C:\Users\dwhipple\AppData\Local\Temp/cc9p43bf.s:2277   .text:00000e5c formatAddress
C:\Users\dwhipple\AppData\Local\Temp/cc9p43bf.s:2378   .text:00000ed6 unformatAddress
C:\Users\dwhipple\AppData\Local\Temp/cc9p43bf.s:2428   .text:00000f10 getInput
C:\Users\dwhipple\AppData\Local\Temp/cc9p43bf.s:15286  .bss:000001d9 inputs
C:\Users\dwhipple\AppData\Local\Temp/cc9p43bf.s:15287  .bss:000001f9 timeLimits
C:\Users\dwhipple\AppData\Local\Temp/cc9p43bf.s:3493   .text:000015be inputTenthCheck
C:\Users\dwhipple\AppData\Local\Temp/cc9p43bf.s:3540   .text:000015f8 inputCheck
C:\Users\dwhipple\AppData\Local\Temp/cc9p43bf.s:3625   .text:00001672 flashFail
C:\Users\dwhipple\AppData\Local\Temp/cc9p43bf.s:15199  .bss:00000009 failTimer
C:\Users\dwhipple\AppData\Local\Temp/cc9p43bf.s:15203  .data:0000018e failCondition
C:\Users\dwhipple\AppData\Local\Temp/cc9p43bf.s:3726   .text:000016e0 clearFail
C:\Users\dwhipple\AppData\Local\Temp/cc9p43bf.s:3744   .text:000016ea __vector_11
                             .bss:00000000 ticks
C:\Users\dwhipple\AppData\Local\Temp/cc9p43bf.s:15191  .data:0000018a tweakTimer
C:\Users\dwhipple\AppData\Local\Temp/cc9p43bf.s:15275  .bss:00000037 globalSecond
C:\Users\dwhipple\AppData\Local\Temp/cc9p43bf.s:15196  .bss:00000006 newSecond
C:\Users\dwhipple\AppData\Local\Temp/cc9p43bf.s:15274  .bss:00000035 globalMinute
C:\Users\dwhipple\AppData\Local\Temp/cc9p43bf.s:15197  .bss:00000007 newMinute
C:\Users\dwhipple\AppData\Local\Temp/cc9p43bf.s:15198  .bss:00000008 tenthFlag
C:\Users\dwhipple\AppData\Local\Temp/cc9p43bf.s:3889   .text:00001824 getSwitchNumber
C:\Users\dwhipple\AppData\Local\Temp/cc9p43bf.s:15207  .data:0000018f tempIntString
C:\Users\dwhipple\AppData\Local\Temp/cc9p43bf.s:3915   .text:0000183c sendMessage
C:\Users\dwhipple\AppData\Local\Temp/cc9p43bf.s:4004   .text:0000188e ok
C:\Users\dwhipple\AppData\Local\Temp/cc9p43bf.s:4020   .text:00001898 clearInput
C:\Users\dwhipple\AppData\Local\Temp/cc9p43bf.s:4131   .text:00001928 setDaylightSavings
C:\Users\dwhipple\AppData\Local\Temp/cc9p43bf.s:4213   .text:000019b8 pwmValueSet
C:\Users\dwhipple\AppData\Local\Temp/cc9p43bf.s:15213  .data:00000192 tempLongString
C:\Users\dwhipple\AppData\Local\Temp/cc9p43bf.s:15282  .bss:000000cf statusMsg
C:\Users\dwhipple\AppData\Local\Temp/cc9p43bf.s:4325   .text:00001a70 setHueSpeed
C:\Users\dwhipple\AppData\Local\Temp/cc9p43bf.s:4363   .text:00001a9a cycleHue
C:\Users\dwhipple\AppData\Local\Temp/cc9p43bf.s:4407   .text:00001ad0 switchClear
C:\Users\dwhipple\AppData\Local\Temp/cc9p43bf.s:4435   .text:00001ade switchesOn
C:\Users\dwhipple\AppData\Local\Temp/cc9p43bf.s:4523   .text:00001b5e inputsProgrammed
C:\Users\dwhipple\AppData\Local\Temp/cc9p43bf.s:4606   .text:00001bd4 switchesProgrammed
C:\Users\dwhipple\AppData\Local\Temp/cc9p43bf.s:4689   .text:00001c4a programsProgrammed
C:\Users\dwhipple\AppData\Local\Temp/cc9p43bf.s:4771   .text:00001cc6 radioTest
C:\Users\dwhipple\AppData\Local\Temp/cc9p43bf.s:15288  .bss:00000229 rx_addr_p0
C:\Users\dwhipple\AppData\Local\Temp/cc9p43bf.s:4852   .text:00001d34 radioInit
C:\Users\dwhipple\AppData\Local\Temp/cc9p43bf.s:15294  .bss:00000259 tx_addr
C:\Users\dwhipple\AppData\Local\Temp/cc9p43bf.s:15289  .bss:00000231 rx_addr_p1
C:\Users\dwhipple\AppData\Local\Temp/cc9p43bf.s:15290  .bss:00000239 rx_addr_p2
C:\Users\dwhipple\AppData\Local\Temp/cc9p43bf.s:15291  .bss:00000241 rx_addr_p3
C:\Users\dwhipple\AppData\Local\Temp/cc9p43bf.s:15292  .bss:00000249 rx_addr_p4
C:\Users\dwhipple\AppData\Local\Temp/cc9p43bf.s:15293  .bss:00000251 rx_addr_p5
C:\Users\dwhipple\AppData\Local\Temp/cc9p43bf.s:4999   .text:00001ec8 returnHexWithout
C:\Users\dwhipple\AppData\Local\Temp/cc9p43bf.s:15217  .data:00000197 tempHugeString
C:\Users\dwhipple\AppData\Local\Temp/cc9p43bf.s:5078   .text:00001f18 radioChangeAddress
C:\Users\dwhipple\AppData\Local\Temp/cc9p43bf.s:5495   .text:0000221e radioDisplayAddress
C:\Users\dwhipple\AppData\Local\Temp/cc9p43bf.s:5728   .text:00002412 interjectLineNumber
C:\Users\dwhipple\AppData\Local\Temp/cc9p43bf.s:5784   .text:00002448 memoryDump
C:\Users\dwhipple\AppData\Local\Temp/cc9p43bf.s:15237  .bss:0000001b pwmdir
C:\Users\dwhipple\AppData\Local\Temp/cc9p43bf.s:6435   .text:000028e0 returnHex
C:\Users\dwhipple\AppData\Local\Temp/cc9p43bf.s:6510   .text:00002946 fail
C:\Users\dwhipple\AppData\Local\Temp/cc9p43bf.s:6564   .text:00002996 setDigitalInput
C:\Users\dwhipple\AppData\Local\Temp/cc9p43bf.s:6932   .text:00002bae setAnalogInput
C:\Users\dwhipple\AppData\Local\Temp/cc9p43bf.s:7347   .text:00002e50 programSetTime
C:\Users\dwhipple\AppData\Local\Temp/cc9p43bf.s:7605   .text:00002fda programSetDays
C:\Users\dwhipple\AppData\Local\Temp/cc9p43bf.s:7790   .text:000030f6 setImmediateChange
C:\Users\dwhipple\AppData\Local\Temp/cc9p43bf.s:15254  .bss:0000001f pwmChangeValues
C:\Users\dwhipple\AppData\Local\Temp/cc9p43bf.s:15256  .bss:00000023 pwmSwitchNumber
C:\Users\dwhipple\AppData\Local\Temp/cc9p43bf.s:7942   .text:0000320e colorChangeSet
C:\Users\dwhipple\AppData\Local\Temp/cc9p43bf.s:8043   .text:000032b2 pwmSetup
C:\Users\dwhipple\AppData\Local\Temp/cc9p43bf.s:8201   .text:00003398 setNewSwitch
C:\Users\dwhipple\AppData\Local\Temp/cc9p43bf.s:8403   .text:000034b0 returnInt
C:\Users\dwhipple\AppData\Local\Temp/cc9p43bf.s:8471   .text:000034f8 generalInformation
C:\Users\dwhipple\AppData\Local\Temp/cc9p43bf.s:8822   .text:0000373e generalStatus
C:\Users\dwhipple\AppData\Local\Temp/cc9p43bf.s:15221  .data:0000019e panicMyClockIsNotSet
C:\Users\dwhipple\AppData\Local\Temp/cc9p43bf.s:8995   .text:0000387e setTimeLimits
C:\Users\dwhipple\AppData\Local\Temp/cc9p43bf.s:9506   .text:00003bbe newProgram
C:\Users\dwhipple\AppData\Local\Temp/cc9p43bf.s:9805   .text:00003d6c pwmSummary
C:\Users\dwhipple\AppData\Local\Temp/cc9p43bf.s:10125  .text:00003f8a clockTweak
C:\Users\dwhipple\AppData\Local\Temp/cc9p43bf.s:10208  .text:00004022 clockString
C:\Users\dwhipple\AppData\Local\Temp/cc9p43bf.s:10336  .text:00004124 setClock
C:\Users\dwhipple\AppData\Local\Temp/cc9p43bf.s:10617  .text:00004302 programDisplay
C:\Users\dwhipple\AppData\Local\Temp/cc9p43bf.s:11129  .text:00004654 programAddSwitch
C:\Users\dwhipple\AppData\Local\Temp/cc9p43bf.s:11471  .text:00004860 clearProgram
C:\Users\dwhipple\AppData\Local\Temp/cc9p43bf.s:11565  .text:000048d0 brightnessSet
C:\Users\dwhipple\AppData\Local\Temp/cc9p43bf.s:11661  .text:00004974 switchBrightness
C:\Users\dwhipple\AppData\Local\Temp/cc9p43bf.s:11787  .text:00004a16 switchDisplay
C:\Users\dwhipple\AppData\Local\Temp/cc9p43bf.s:11940  .text:00004afe clearEEPROM
C:\Users\dwhipple\AppData\Local\Temp/cc9p43bf.s:11958  .text:00004b08 clearToEEPROM
C:\Users\dwhipple\AppData\Local\Temp/cc9p43bf.s:12177  .text:00004c40 writeEEPROM
C:\Users\dwhipple\AppData\Local\Temp/cc9p43bf.s:12210  .text:00004c62 saveToEEPROM
C:\Users\dwhipple\AppData\Local\Temp/cc9p43bf.s:12898  .text:00005184 readEEPROM
C:\Users\dwhipple\AppData\Local\Temp/cc9p43bf.s:12968  .text:000051e0 generalInit
C:\Users\dwhipple\AppData\Local\Temp/cc9p43bf.s:13763  .text:000057b8 startProgram
C:\Users\dwhipple\AppData\Local\Temp/cc9p43bf.s:13849  .text:00005836 startSwitch
C:\Users\dwhipple\AppData\Local\Temp/cc9p43bf.s:14186  .text:00005a6a checkCommand
C:\Users\dwhipple\AppData\Local\Temp/cc9p43bf.s:14728  .text:00005d78 main
C:\Users\dwhipple\AppData\Local\Temp/cc9p43bf.s:15280  .bss:00000093 receiveBuffer
C:\Users\dwhipple\AppData\Local\Temp/cc9p43bf.s:15281  .bss:000000b1 radioReceiveBuffer

UNDEFINED SYMBOLS
__divmodhi4
__mulsi3
__ashldi3
__lshrdi3
__divmodsi4
__udivmodsi4
__udivmodhi4
atoi
stopRx
transmit
startRx
strcat
readAddr
nrfInit
writeReg
writeAddr
startRadio
itoa
strtol
__eeupd_word_m328
__eeupd_block_m328
__eerd_word_m328
__eerd_block_m328
atol
dynReceive
__do_copy_data
__do_clear_bss
